Archive member included to satisfy reference by file (symbol)

d:/program_files/programming/rt-threadstudio/repo/extract/toolchain_support_packages/risc-v/risc-v-gcc/10.1.0/bin/../lib/gcc/riscv64-unknown-elf/10.1.0/../../../../riscv64-unknown-elf/lib/rv32im/ilp32\libc.a(lib_a-atoi.o)
                              build\kernel\components\drivers\misc\adc.o (atoi)
d:/program_files/programming/rt-threadstudio/repo/extract/toolchain_support_packages/risc-v/risc-v-gcc/10.1.0/bin/../lib/gcc/riscv64-unknown-elf/10.1.0/../../../../riscv64-unknown-elf/lib/rv32im/ilp32\libc.a(lib_a-fclose.o)
                              build\kernel\components\libc\compilers\newlib\stdio.o (fclose)
d:/program_files/programming/rt-threadstudio/repo/extract/toolchain_support_packages/risc-v/risc-v-gcc/10.1.0/bin/../lib/gcc/riscv64-unknown-elf/10.1.0/../../../../riscv64-unknown-elf/lib/rv32im/ilp32\libc.a(lib_a-fflush.o)
                              d:/program_files/programming/rt-threadstudio/repo/extract/toolchain_support_packages/risc-v/risc-v-gcc/10.1.0/bin/../lib/gcc/riscv64-unknown-elf/10.1.0/../../../../riscv64-unknown-elf/lib/rv32im/ilp32\libc.a(lib_a-fclose.o) (__sflush_r)
d:/program_files/programming/rt-threadstudio/repo/extract/toolchain_support_packages/risc-v/risc-v-gcc/10.1.0/bin/../lib/gcc/riscv64-unknown-elf/10.1.0/../../../../riscv64-unknown-elf/lib/rv32im/ilp32\libc.a(lib_a-fileno.o)
                              build\kernel\components\libc\compilers\newlib\stdio.o (fileno)
d:/program_files/programming/rt-threadstudio/repo/extract/toolchain_support_packages/risc-v/risc-v-gcc/10.1.0/bin/../lib/gcc/riscv64-unknown-elf/10.1.0/../../../../riscv64-unknown-elf/lib/rv32im/ilp32\libc.a(lib_a-findfp.o)
                              d:/program_files/programming/rt-threadstudio/repo/extract/toolchain_support_packages/risc-v/risc-v-gcc/10.1.0/bin/../lib/gcc/riscv64-unknown-elf/10.1.0/../../../../riscv64-unknown-elf/lib/rv32im/ilp32\libc.a(lib_a-fclose.o) (__sinit)
d:/program_files/programming/rt-threadstudio/repo/extract/toolchain_support_packages/risc-v/risc-v-gcc/10.1.0/bin/../lib/gcc/riscv64-unknown-elf/10.1.0/../../../../riscv64-unknown-elf/lib/rv32im/ilp32\libc.a(lib_a-fopen.o)
                              build\kernel\components\libc\compilers\newlib\stdio.o (fopen)
d:/program_files/programming/rt-threadstudio/repo/extract/toolchain_support_packages/risc-v/risc-v-gcc/10.1.0/bin/../lib/gcc/riscv64-unknown-elf/10.1.0/../../../../riscv64-unknown-elf/lib/rv32im/ilp32\libc.a(lib_a-fseek.o)
                              d:/program_files/programming/rt-threadstudio/repo/extract/toolchain_support_packages/risc-v/risc-v-gcc/10.1.0/bin/../lib/gcc/riscv64-unknown-elf/10.1.0/../../../../riscv64-unknown-elf/lib/rv32im/ilp32\libc.a(lib_a-fopen.o) (_fseek_r)
d:/program_files/programming/rt-threadstudio/repo/extract/toolchain_support_packages/risc-v/risc-v-gcc/10.1.0/bin/../lib/gcc/riscv64-unknown-elf/10.1.0/../../../../riscv64-unknown-elf/lib/rv32im/ilp32\libc.a(lib_a-fseeko.o)
                              d:/program_files/programming/rt-threadstudio/repo/extract/toolchain_support_packages/risc-v/risc-v-gcc/10.1.0/bin/../lib/gcc/riscv64-unknown-elf/10.1.0/../../../../riscv64-unknown-elf/lib/rv32im/ilp32\libc.a(lib_a-fseek.o) (_fseeko_r)
d:/program_files/programming/rt-threadstudio/repo/extract/toolchain_support_packages/risc-v/risc-v-gcc/10.1.0/bin/../lib/gcc/riscv64-unknown-elf/10.1.0/../../../../riscv64-unknown-elf/lib/rv32im/ilp32\libc.a(lib_a-ftello.o)
                              d:/program_files/programming/rt-threadstudio/repo/extract/toolchain_support_packages/risc-v/risc-v-gcc/10.1.0/bin/../lib/gcc/riscv64-unknown-elf/10.1.0/../../../../riscv64-unknown-elf/lib/rv32im/ilp32\libc.a(lib_a-fseeko.o) (_ftello_r)
d:/program_files/programming/rt-threadstudio/repo/extract/toolchain_support_packages/risc-v/risc-v-gcc/10.1.0/bin/../lib/gcc/riscv64-unknown-elf/10.1.0/../../../../riscv64-unknown-elf/lib/rv32im/ilp32\libc.a(lib_a-fwalk.o)
                              d:/program_files/programming/rt-threadstudio/repo/extract/toolchain_support_packages/risc-v/risc-v-gcc/10.1.0/bin/../lib/gcc/riscv64-unknown-elf/10.1.0/../../../../riscv64-unknown-elf/lib/rv32im/ilp32\libc.a(lib_a-findfp.o) (_fwalk)
d:/program_files/programming/rt-threadstudio/repo/extract/toolchain_support_packages/risc-v/risc-v-gcc/10.1.0/bin/../lib/gcc/riscv64-unknown-elf/10.1.0/../../../../riscv64-unknown-elf/lib/rv32im/ilp32\libc.a(lib_a-impure.o)
                              build\kernel\components\libc\compilers\newlib\stdio.o (_global_impure_ptr)
d:/program_files/programming/rt-threadstudio/repo/extract/toolchain_support_packages/risc-v/risc-v-gcc/10.1.0/bin/../lib/gcc/riscv64-unknown-elf/10.1.0/../../../../riscv64-unknown-elf/lib/rv32im/ilp32\libc.a(lib_a-makebuf.o)
                              d:/program_files/programming/rt-threadstudio/repo/extract/toolchain_support_packages/risc-v/risc-v-gcc/10.1.0/bin/../lib/gcc/riscv64-unknown-elf/10.1.0/../../../../riscv64-unknown-elf/lib/rv32im/ilp32\libc.a(lib_a-fseeko.o) (__smakebuf_r)
d:/program_files/programming/rt-threadstudio/repo/extract/toolchain_support_packages/risc-v/risc-v-gcc/10.1.0/bin/../lib/gcc/riscv64-unknown-elf/10.1.0/../../../../riscv64-unknown-elf/lib/rv32im/ilp32\libc.a(lib_a-memcmp.o)
                              build\kernel\components\finsh\shell.o (memcmp)
d:/program_files/programming/rt-threadstudio/repo/extract/toolchain_support_packages/risc-v/risc-v-gcc/10.1.0/bin/../lib/gcc/riscv64-unknown-elf/10.1.0/../../../../riscv64-unknown-elf/lib/rv32im/ilp32\libc.a(lib_a-memcpy.o)
                              build\kernel\components\drivers\audio\audio.o (memcpy)
d:/program_files/programming/rt-threadstudio/repo/extract/toolchain_support_packages/risc-v/risc-v-gcc/10.1.0/bin/../lib/gcc/riscv64-unknown-elf/10.1.0/../../../../riscv64-unknown-elf/lib/rv32im/ilp32\libc.a(lib_a-memset.o)
                              build\kernel\src\kservice.o (memset)
d:/program_files/programming/rt-threadstudio/repo/extract/toolchain_support_packages/risc-v/risc-v-gcc/10.1.0/bin/../lib/gcc/riscv64-unknown-elf/10.1.0/../../../../riscv64-unknown-elf/lib/rv32im/ilp32\libc.a(lib_a-putenv.o)
                              build\kernel\components\libc\compilers\newlib\libc.o (putenv)
d:/program_files/programming/rt-threadstudio/repo/extract/toolchain_support_packages/risc-v/risc-v-gcc/10.1.0/bin/../lib/gcc/riscv64-unknown-elf/10.1.0/../../../../riscv64-unknown-elf/lib/rv32im/ilp32\libc.a(lib_a-putenv_r.o)
                              d:/program_files/programming/rt-threadstudio/repo/extract/toolchain_support_packages/risc-v/risc-v-gcc/10.1.0/bin/../lib/gcc/riscv64-unknown-elf/10.1.0/../../../../riscv64-unknown-elf/lib/rv32im/ilp32\libc.a(lib_a-putenv.o) (_putenv_r)
d:/program_files/programming/rt-threadstudio/repo/extract/toolchain_support_packages/risc-v/risc-v-gcc/10.1.0/bin/../lib/gcc/riscv64-unknown-elf/10.1.0/../../../../riscv64-unknown-elf/lib/rv32im/ilp32\libc.a(lib_a-refill.o)
                              d:/program_files/programming/rt-threadstudio/repo/extract/toolchain_support_packages/risc-v/risc-v-gcc/10.1.0/bin/../lib/gcc/riscv64-unknown-elf/10.1.0/../../../../riscv64-unknown-elf/lib/rv32im/ilp32\libc.a(lib_a-fseeko.o) (__srefill_r)
d:/program_files/programming/rt-threadstudio/repo/extract/toolchain_support_packages/risc-v/risc-v-gcc/10.1.0/bin/../lib/gcc/riscv64-unknown-elf/10.1.0/../../../../riscv64-unknown-elf/lib/rv32im/ilp32\libc.a(lib_a-setenv_r.o)
                              d:/program_files/programming/rt-threadstudio/repo/extract/toolchain_support_packages/risc-v/risc-v-gcc/10.1.0/bin/../lib/gcc/riscv64-unknown-elf/10.1.0/../../../../riscv64-unknown-elf/lib/rv32im/ilp32\libc.a(lib_a-putenv_r.o) (_setenv_r)
d:/program_files/programming/rt-threadstudio/repo/extract/toolchain_support_packages/risc-v/risc-v-gcc/10.1.0/bin/../lib/gcc/riscv64-unknown-elf/10.1.0/../../../../riscv64-unknown-elf/lib/rv32im/ilp32\libc.a(lib_a-setvbuf.o)
                              build\kernel\components\libc\compilers\newlib\stdio.o (setvbuf)
d:/program_files/programming/rt-threadstudio/repo/extract/toolchain_support_packages/risc-v/risc-v-gcc/10.1.0/bin/../lib/gcc/riscv64-unknown-elf/10.1.0/../../../../riscv64-unknown-elf/lib/rv32im/ilp32\libc.a(lib_a-snprintf.o)
                              build\kernel\components\libc\compilers\newlib\stdio.o (snprintf)
d:/program_files/programming/rt-threadstudio/repo/extract/toolchain_support_packages/risc-v/risc-v-gcc/10.1.0/bin/../lib/gcc/riscv64-unknown-elf/10.1.0/../../../../riscv64-unknown-elf/lib/rv32im/ilp32\libc.a(lib_a-stdio.o)
                              d:/program_files/programming/rt-threadstudio/repo/extract/toolchain_support_packages/risc-v/risc-v-gcc/10.1.0/bin/../lib/gcc/riscv64-unknown-elf/10.1.0/../../../../riscv64-unknown-elf/lib/rv32im/ilp32\libc.a(lib_a-findfp.o) (__sread)
d:/program_files/programming/rt-threadstudio/repo/extract/toolchain_support_packages/risc-v/risc-v-gcc/10.1.0/bin/../lib/gcc/riscv64-unknown-elf/10.1.0/../../../../riscv64-unknown-elf/lib/rv32im/ilp32\libc.a(lib_a-strcat.o)
                              build\kernel\components\finsh\shell.o (strcat)
d:/program_files/programming/rt-threadstudio/repo/extract/toolchain_support_packages/risc-v/risc-v-gcc/10.1.0/bin/../lib/gcc/riscv64-unknown-elf/10.1.0/../../../../riscv64-unknown-elf/lib/rv32im/ilp32\libc.a(lib_a-strchr.o)
                              d:/program_files/programming/rt-threadstudio/repo/extract/toolchain_support_packages/risc-v/risc-v-gcc/10.1.0/bin/../lib/gcc/riscv64-unknown-elf/10.1.0/../../../../riscv64-unknown-elf/lib/rv32im/ilp32\libc.a(lib_a-putenv_r.o) (strchr)
d:/program_files/programming/rt-threadstudio/repo/extract/toolchain_support_packages/risc-v/risc-v-gcc/10.1.0/bin/../lib/gcc/riscv64-unknown-elf/10.1.0/../../../../riscv64-unknown-elf/lib/rv32im/ilp32\libc.a(lib_a-strcmp.o)
                              build\kernel\components\dfs\src\dfs_fs.o (strcmp)
d:/program_files/programming/rt-threadstudio/repo/extract/toolchain_support_packages/risc-v/risc-v-gcc/10.1.0/bin/../lib/gcc/riscv64-unknown-elf/10.1.0/../../../../riscv64-unknown-elf/lib/rv32im/ilp32\libc.a(lib_a-strcpy.o)
                              build\kernel\components\finsh\shell.o (strcpy)
d:/program_files/programming/rt-threadstudio/repo/extract/toolchain_support_packages/risc-v/risc-v-gcc/10.1.0/bin/../lib/gcc/riscv64-unknown-elf/10.1.0/../../../../riscv64-unknown-elf/lib/rv32im/ilp32\libc.a(lib_a-strdup_r.o)
                              d:/program_files/programming/rt-threadstudio/repo/extract/toolchain_support_packages/risc-v/risc-v-gcc/10.1.0/bin/../lib/gcc/riscv64-unknown-elf/10.1.0/../../../../riscv64-unknown-elf/lib/rv32im/ilp32\libc.a(lib_a-putenv_r.o) (_strdup_r)
d:/program_files/programming/rt-threadstudio/repo/extract/toolchain_support_packages/risc-v/risc-v-gcc/10.1.0/bin/../lib/gcc/riscv64-unknown-elf/10.1.0/../../../../riscv64-unknown-elf/lib/rv32im/ilp32\libc.a(lib_a-strlen.o)
                              build\kernel\components\dfs\src\dfs_posix.o (strlen)
d:/program_files/programming/rt-threadstudio/repo/extract/toolchain_support_packages/risc-v/risc-v-gcc/10.1.0/bin/../lib/gcc/riscv64-unknown-elf/10.1.0/../../../../riscv64-unknown-elf/lib/rv32im/ilp32\libc.a(lib_a-strncmp.o)
                              build\kernel\components\dfs\src\dfs_fs.o (strncmp)
d:/program_files/programming/rt-threadstudio/repo/extract/toolchain_support_packages/risc-v/risc-v-gcc/10.1.0/bin/../lib/gcc/riscv64-unknown-elf/10.1.0/../../../../riscv64-unknown-elf/lib/rv32im/ilp32\libc.a(lib_a-strncpy.o)
                              build\kernel\components\dfs\src\dfs_posix.o (strncpy)
d:/program_files/programming/rt-threadstudio/repo/extract/toolchain_support_packages/risc-v/risc-v-gcc/10.1.0/bin/../lib/gcc/riscv64-unknown-elf/10.1.0/../../../../riscv64-unknown-elf/lib/rv32im/ilp32\libc.a(lib_a-strrchr.o)
                              build\kernel\components\dfs\src\dfs_file.o (strrchr)
d:/program_files/programming/rt-threadstudio/repo/extract/toolchain_support_packages/risc-v/risc-v-gcc/10.1.0/bin/../lib/gcc/riscv64-unknown-elf/10.1.0/../../../../riscv64-unknown-elf/lib/rv32im/ilp32\libc.a(lib_a-strstr.o)
                              build\kernel\components\finsh\msh_file.o (strstr)
d:/program_files/programming/rt-threadstudio/repo/extract/toolchain_support_packages/risc-v/risc-v-gcc/10.1.0/bin/../lib/gcc/riscv64-unknown-elf/10.1.0/../../../../riscv64-unknown-elf/lib/rv32im/ilp32\libc.a(lib_a-strtol.o)
                              d:/program_files/programming/rt-threadstudio/repo/extract/toolchain_support_packages/risc-v/risc-v-gcc/10.1.0/bin/../lib/gcc/riscv64-unknown-elf/10.1.0/../../../../riscv64-unknown-elf/lib/rv32im/ilp32\libc.a(lib_a-atoi.o) (_strtol_r)
d:/program_files/programming/rt-threadstudio/repo/extract/toolchain_support_packages/risc-v/risc-v-gcc/10.1.0/bin/../lib/gcc/riscv64-unknown-elf/10.1.0/../../../../riscv64-unknown-elf/lib/rv32im/ilp32\libc.a(lib_a-svfprintf.o)
                              d:/program_files/programming/rt-threadstudio/repo/extract/toolchain_support_packages/risc-v/risc-v-gcc/10.1.0/bin/../lib/gcc/riscv64-unknown-elf/10.1.0/../../../../riscv64-unknown-elf/lib/rv32im/ilp32\libc.a(lib_a-snprintf.o) (_svfprintf_r)
d:/program_files/programming/rt-threadstudio/repo/extract/toolchain_support_packages/risc-v/risc-v-gcc/10.1.0/bin/../lib/gcc/riscv64-unknown-elf/10.1.0/../../../../riscv64-unknown-elf/lib/rv32im/ilp32\libc.a(lib_a-ctype_.o)
                              d:/program_files/programming/rt-threadstudio/repo/extract/toolchain_support_packages/risc-v/risc-v-gcc/10.1.0/bin/../lib/gcc/riscv64-unknown-elf/10.1.0/../../../../riscv64-unknown-elf/lib/rv32im/ilp32\libc.a(lib_a-strtol.o) (_ctype_)
d:/program_files/programming/rt-threadstudio/repo/extract/toolchain_support_packages/risc-v/risc-v-gcc/10.1.0/bin/../lib/gcc/riscv64-unknown-elf/10.1.0/../../../../riscv64-unknown-elf/lib/rv32im/ilp32\libc.a(lib_a-environ.o)
                              d:/program_files/programming/rt-threadstudio/repo/extract/toolchain_support_packages/risc-v/risc-v-gcc/10.1.0/bin/../lib/gcc/riscv64-unknown-elf/10.1.0/../../../../riscv64-unknown-elf/lib/rv32im/ilp32\libc.a(lib_a-setenv_r.o) (environ)
d:/program_files/programming/rt-threadstudio/repo/extract/toolchain_support_packages/risc-v/risc-v-gcc/10.1.0/bin/../lib/gcc/riscv64-unknown-elf/10.1.0/../../../../riscv64-unknown-elf/lib/rv32im/ilp32\libc.a(lib_a-envlock.o)
                              d:/program_files/programming/rt-threadstudio/repo/extract/toolchain_support_packages/risc-v/risc-v-gcc/10.1.0/bin/../lib/gcc/riscv64-unknown-elf/10.1.0/../../../../riscv64-unknown-elf/lib/rv32im/ilp32\libc.a(lib_a-setenv_r.o) (__env_lock)
d:/program_files/programming/rt-threadstudio/repo/extract/toolchain_support_packages/risc-v/risc-v-gcc/10.1.0/bin/../lib/gcc/riscv64-unknown-elf/10.1.0/../../../../riscv64-unknown-elf/lib/rv32im/ilp32\libc.a(lib_a-flags.o)
                              d:/program_files/programming/rt-threadstudio/repo/extract/toolchain_support_packages/risc-v/risc-v-gcc/10.1.0/bin/../lib/gcc/riscv64-unknown-elf/10.1.0/../../../../riscv64-unknown-elf/lib/rv32im/ilp32\libc.a(lib_a-fopen.o) (__sflags)
d:/program_files/programming/rt-threadstudio/repo/extract/toolchain_support_packages/risc-v/risc-v-gcc/10.1.0/bin/../lib/gcc/riscv64-unknown-elf/10.1.0/../../../../riscv64-unknown-elf/lib/rv32im/ilp32\libc.a(lib_a-getenv_r.o)
                              d:/program_files/programming/rt-threadstudio/repo/extract/toolchain_support_packages/risc-v/risc-v-gcc/10.1.0/bin/../lib/gcc/riscv64-unknown-elf/10.1.0/../../../../riscv64-unknown-elf/lib/rv32im/ilp32\libc.a(lib_a-setenv_r.o) (_findenv_r)
d:/program_files/programming/rt-threadstudio/repo/extract/toolchain_support_packages/risc-v/risc-v-gcc/10.1.0/bin/../lib/gcc/riscv64-unknown-elf/10.1.0/../../../../riscv64-unknown-elf/lib/rv32im/ilp32\libc.a(lib_a-ldtoa.o)
                              d:/program_files/programming/rt-threadstudio/repo/extract/toolchain_support_packages/risc-v/risc-v-gcc/10.1.0/bin/../lib/gcc/riscv64-unknown-elf/10.1.0/../../../../riscv64-unknown-elf/lib/rv32im/ilp32\libc.a(lib_a-svfprintf.o) (_ldtoa_r)
d:/program_files/programming/rt-threadstudio/repo/extract/toolchain_support_packages/risc-v/risc-v-gcc/10.1.0/bin/../lib/gcc/riscv64-unknown-elf/10.1.0/../../../../riscv64-unknown-elf/lib/rv32im/ilp32\libc.a(lib_a-localeconv.o)
                              d:/program_files/programming/rt-threadstudio/repo/extract/toolchain_support_packages/risc-v/risc-v-gcc/10.1.0/bin/../lib/gcc/riscv64-unknown-elf/10.1.0/../../../../riscv64-unknown-elf/lib/rv32im/ilp32\libc.a(lib_a-svfprintf.o) (_localeconv_r)
d:/program_files/programming/rt-threadstudio/repo/extract/toolchain_support_packages/risc-v/risc-v-gcc/10.1.0/bin/../lib/gcc/riscv64-unknown-elf/10.1.0/../../../../riscv64-unknown-elf/lib/rv32im/ilp32\libc.a(lib_a-locale.o)
                              d:/program_files/programming/rt-threadstudio/repo/extract/toolchain_support_packages/risc-v/risc-v-gcc/10.1.0/bin/../lib/gcc/riscv64-unknown-elf/10.1.0/../../../../riscv64-unknown-elf/lib/rv32im/ilp32\libc.a(lib_a-localeconv.o) (__global_locale)
d:/program_files/programming/rt-threadstudio/repo/extract/toolchain_support_packages/risc-v/risc-v-gcc/10.1.0/bin/../lib/gcc/riscv64-unknown-elf/10.1.0/../../../../riscv64-unknown-elf/lib/rv32im/ilp32\libc.a(lib_a-malloc.o)
                              d:/program_files/programming/rt-threadstudio/repo/extract/toolchain_support_packages/risc-v/risc-v-gcc/10.1.0/bin/../lib/gcc/riscv64-unknown-elf/10.1.0/../../../../riscv64-unknown-elf/lib/rv32im/ilp32\libc.a(lib_a-setvbuf.o) (malloc)
d:/program_files/programming/rt-threadstudio/repo/extract/toolchain_support_packages/risc-v/risc-v-gcc/10.1.0/bin/../lib/gcc/riscv64-unknown-elf/10.1.0/../../../../riscv64-unknown-elf/lib/rv32im/ilp32\libc.a(lib_a-mbtowc_r.o)
                              d:/program_files/programming/rt-threadstudio/repo/extract/toolchain_support_packages/risc-v/risc-v-gcc/10.1.0/bin/../lib/gcc/riscv64-unknown-elf/10.1.0/../../../../riscv64-unknown-elf/lib/rv32im/ilp32\libc.a(lib_a-locale.o) (__ascii_mbtowc)
d:/program_files/programming/rt-threadstudio/repo/extract/toolchain_support_packages/risc-v/risc-v-gcc/10.1.0/bin/../lib/gcc/riscv64-unknown-elf/10.1.0/../../../../riscv64-unknown-elf/lib/rv32im/ilp32\libc.a(lib_a-memchr.o)
                              d:/program_files/programming/rt-threadstudio/repo/extract/toolchain_support_packages/risc-v/risc-v-gcc/10.1.0/bin/../lib/gcc/riscv64-unknown-elf/10.1.0/../../../../riscv64-unknown-elf/lib/rv32im/ilp32\libc.a(lib_a-svfprintf.o) (memchr)
d:/program_files/programming/rt-threadstudio/repo/extract/toolchain_support_packages/risc-v/risc-v-gcc/10.1.0/bin/../lib/gcc/riscv64-unknown-elf/10.1.0/../../../../riscv64-unknown-elf/lib/rv32im/ilp32\libc.a(lib_a-mprec.o)
                              d:/program_files/programming/rt-threadstudio/repo/extract/toolchain_support_packages/risc-v/risc-v-gcc/10.1.0/bin/../lib/gcc/riscv64-unknown-elf/10.1.0/../../../../riscv64-unknown-elf/lib/rv32im/ilp32\libc.a(lib_a-ldtoa.o) (_Balloc)
d:/program_files/programming/rt-threadstudio/repo/extract/toolchain_support_packages/risc-v/risc-v-gcc/10.1.0/bin/../lib/gcc/riscv64-unknown-elf/10.1.0/../../../../riscv64-unknown-elf/lib/rv32im/ilp32\libc.a(lib_a-s_frexp.o)
                              d:/program_files/programming/rt-threadstudio/repo/extract/toolchain_support_packages/risc-v/risc-v-gcc/10.1.0/bin/../lib/gcc/riscv64-unknown-elf/10.1.0/../../../../riscv64-unknown-elf/lib/rv32im/ilp32\libc.a(lib_a-svfprintf.o) (frexp)
d:/program_files/programming/rt-threadstudio/repo/extract/toolchain_support_packages/risc-v/risc-v-gcc/10.1.0/bin/../lib/gcc/riscv64-unknown-elf/10.1.0/../../../../riscv64-unknown-elf/lib/rv32im/ilp32\libc.a(lib_a-sprintf.o)
                              d:/program_files/programming/rt-threadstudio/repo/extract/toolchain_support_packages/risc-v/risc-v-gcc/10.1.0/bin/../lib/gcc/riscv64-unknown-elf/10.1.0/../../../../riscv64-unknown-elf/lib/rv32im/ilp32\libc.a(lib_a-ldtoa.o) (sprintf)
d:/program_files/programming/rt-threadstudio/repo/extract/toolchain_support_packages/risc-v/risc-v-gcc/10.1.0/bin/../lib/gcc/riscv64-unknown-elf/10.1.0/../../../../riscv64-unknown-elf/lib/rv32im/ilp32\libc.a(lib_a-strnlen.o)
                              d:/program_files/programming/rt-threadstudio/repo/extract/toolchain_support_packages/risc-v/risc-v-gcc/10.1.0/bin/../lib/gcc/riscv64-unknown-elf/10.1.0/../../../../riscv64-unknown-elf/lib/rv32im/ilp32\libc.a(lib_a-strstr.o) (strnlen)
d:/program_files/programming/rt-threadstudio/repo/extract/toolchain_support_packages/risc-v/risc-v-gcc/10.1.0/bin/../lib/gcc/riscv64-unknown-elf/10.1.0/../../../../riscv64-unknown-elf/lib/rv32im/ilp32\libc.a(lib_a-svfiprintf.o)
                              d:/program_files/programming/rt-threadstudio/repo/extract/toolchain_support_packages/risc-v/risc-v-gcc/10.1.0/bin/../lib/gcc/riscv64-unknown-elf/10.1.0/../../../../riscv64-unknown-elf/lib/rv32im/ilp32\libc.a(lib_a-svfprintf.o) (__ssprint_r)
d:/program_files/programming/rt-threadstudio/repo/extract/toolchain_support_packages/risc-v/risc-v-gcc/10.1.0/bin/../lib/gcc/riscv64-unknown-elf/10.1.0/../../../../riscv64-unknown-elf/lib/rv32im/ilp32\libc.a(lib_a-wctomb_r.o)
                              d:/program_files/programming/rt-threadstudio/repo/extract/toolchain_support_packages/risc-v/risc-v-gcc/10.1.0/bin/../lib/gcc/riscv64-unknown-elf/10.1.0/../../../../riscv64-unknown-elf/lib/rv32im/ilp32\libc.a(lib_a-locale.o) (__ascii_wctomb)
d:/program_files/programming/rt-threadstudio/repo/extract/toolchain_support_packages/risc-v/risc-v-gcc/10.1.0/bin/../lib/gcc/riscv64-unknown-elf/10.1.0/../../../../riscv64-unknown-elf/lib/rv32im/ilp32\libc.a(lib_a-assert.o)
                              d:/program_files/programming/rt-threadstudio/repo/extract/toolchain_support_packages/risc-v/risc-v-gcc/10.1.0/bin/../lib/gcc/riscv64-unknown-elf/10.1.0/../../../../riscv64-unknown-elf/lib/rv32im/ilp32\libc.a(lib_a-mprec.o) (__assert_func)
d:/program_files/programming/rt-threadstudio/repo/extract/toolchain_support_packages/risc-v/risc-v-gcc/10.1.0/bin/../lib/gcc/riscv64-unknown-elf/10.1.0/../../../../riscv64-unknown-elf/lib/rv32im/ilp32\libc.a(lib_a-fiprintf.o)
                              d:/program_files/programming/rt-threadstudio/repo/extract/toolchain_support_packages/risc-v/risc-v-gcc/10.1.0/bin/../lib/gcc/riscv64-unknown-elf/10.1.0/../../../../riscv64-unknown-elf/lib/rv32im/ilp32\libc.a(lib_a-assert.o) (fiprintf)
d:/program_files/programming/rt-threadstudio/repo/extract/toolchain_support_packages/risc-v/risc-v-gcc/10.1.0/bin/../lib/gcc/riscv64-unknown-elf/10.1.0/../../../../riscv64-unknown-elf/lib/rv32im/ilp32\libc.a(lib_a-memmove-stub.o)
                              d:/program_files/programming/rt-threadstudio/repo/extract/toolchain_support_packages/risc-v/risc-v-gcc/10.1.0/bin/../lib/gcc/riscv64-unknown-elf/10.1.0/../../../../riscv64-unknown-elf/lib/rv32im/ilp32\libc.a(lib_a-svfiprintf.o) (memmove)
d:/program_files/programming/rt-threadstudio/repo/extract/toolchain_support_packages/risc-v/risc-v-gcc/10.1.0/bin/../lib/gcc/riscv64-unknown-elf/10.1.0/../../../../riscv64-unknown-elf/lib/rv32im/ilp32\libc.a(lib_a-vfiprintf.o)
                              d:/program_files/programming/rt-threadstudio/repo/extract/toolchain_support_packages/risc-v/risc-v-gcc/10.1.0/bin/../lib/gcc/riscv64-unknown-elf/10.1.0/../../../../riscv64-unknown-elf/lib/rv32im/ilp32\libc.a(lib_a-fiprintf.o) (_vfiprintf_r)
d:/program_files/programming/rt-threadstudio/repo/extract/toolchain_support_packages/risc-v/risc-v-gcc/10.1.0/bin/../lib/gcc/riscv64-unknown-elf/10.1.0/../../../../riscv64-unknown-elf/lib/rv32im/ilp32\libc.a(lib_a-wsetup.o)
                              d:/program_files/programming/rt-threadstudio/repo/extract/toolchain_support_packages/risc-v/risc-v-gcc/10.1.0/bin/../lib/gcc/riscv64-unknown-elf/10.1.0/../../../../riscv64-unknown-elf/lib/rv32im/ilp32\libc.a(lib_a-vfiprintf.o) (__swsetup_r)
d:/program_files/programming/rt-threadstudio/repo/extract/toolchain_support_packages/risc-v/risc-v-gcc/10.1.0/bin/../lib/gcc/riscv64-unknown-elf/10.1.0/../../../../riscv64-unknown-elf/lib/rv32im/ilp32\libc.a(lib_a-abort.o)
                              d:/program_files/programming/rt-threadstudio/repo/extract/toolchain_support_packages/risc-v/risc-v-gcc/10.1.0/bin/../lib/gcc/riscv64-unknown-elf/10.1.0/../../../../riscv64-unknown-elf/lib/rv32im/ilp32\libc.a(lib_a-assert.o) (abort)
d:/program_files/programming/rt-threadstudio/repo/extract/toolchain_support_packages/risc-v/risc-v-gcc/10.1.0/bin/../lib/gcc/riscv64-unknown-elf/10.1.0/../../../../riscv64-unknown-elf/lib/rv32im/ilp32\libc.a(lib_a-fputwc.o)
                              d:/program_files/programming/rt-threadstudio/repo/extract/toolchain_support_packages/risc-v/risc-v-gcc/10.1.0/bin/../lib/gcc/riscv64-unknown-elf/10.1.0/../../../../riscv64-unknown-elf/lib/rv32im/ilp32\libc.a(lib_a-vfiprintf.o) (_fputwc_r)
d:/program_files/programming/rt-threadstudio/repo/extract/toolchain_support_packages/risc-v/risc-v-gcc/10.1.0/bin/../lib/gcc/riscv64-unknown-elf/10.1.0/../../../../riscv64-unknown-elf/lib/rv32im/ilp32\libc.a(lib_a-fvwrite.o)
                              d:/program_files/programming/rt-threadstudio/repo/extract/toolchain_support_packages/risc-v/risc-v-gcc/10.1.0/bin/../lib/gcc/riscv64-unknown-elf/10.1.0/../../../../riscv64-unknown-elf/lib/rv32im/ilp32\libc.a(lib_a-vfiprintf.o) (__sfvwrite_r)
d:/program_files/programming/rt-threadstudio/repo/extract/toolchain_support_packages/risc-v/risc-v-gcc/10.1.0/bin/../lib/gcc/riscv64-unknown-elf/10.1.0/../../../../riscv64-unknown-elf/lib/rv32im/ilp32\libc.a(lib_a-signal.o)
                              d:/program_files/programming/rt-threadstudio/repo/extract/toolchain_support_packages/risc-v/risc-v-gcc/10.1.0/bin/../lib/gcc/riscv64-unknown-elf/10.1.0/../../../../riscv64-unknown-elf/lib/rv32im/ilp32\libc.a(lib_a-abort.o) (raise)
d:/program_files/programming/rt-threadstudio/repo/extract/toolchain_support_packages/risc-v/risc-v-gcc/10.1.0/bin/../lib/gcc/riscv64-unknown-elf/10.1.0/../../../../riscv64-unknown-elf/lib/rv32im/ilp32\libc.a(lib_a-wbuf.o)
                              d:/program_files/programming/rt-threadstudio/repo/extract/toolchain_support_packages/risc-v/risc-v-gcc/10.1.0/bin/../lib/gcc/riscv64-unknown-elf/10.1.0/../../../../riscv64-unknown-elf/lib/rv32im/ilp32\libc.a(lib_a-fputwc.o) (__swbuf_r)
d:/program_files/programming/rt-threadstudio/repo/extract/toolchain_support_packages/risc-v/risc-v-gcc/10.1.0/bin/../lib/gcc/riscv64-unknown-elf/10.1.0/../../../../riscv64-unknown-elf/lib/rv32im/ilp32\libc.a(lib_a-wcrtomb.o)
                              d:/program_files/programming/rt-threadstudio/repo/extract/toolchain_support_packages/risc-v/risc-v-gcc/10.1.0/bin/../lib/gcc/riscv64-unknown-elf/10.1.0/../../../../riscv64-unknown-elf/lib/rv32im/ilp32\libc.a(lib_a-fputwc.o) (_wcrtomb_r)
libraries\hal_libraries\ab32vg1_hal\libhal.a(cache.o)
                              build\board\board.o (os_cache_init)
libraries\hal_libraries\ab32vg1_hal\libhal.a(s_cache.o)
                              libraries\hal_libraries\bmsis\source\startup.o (isr_cache)
libraries\hal_libraries\ab32vg1_hal\libhal.a(spiflash.o)
                              libraries\hal_libraries\ab32vg1_hal\libhal.a(cache.o) (spiflash_read)
libraries\hal_libraries\ab32vg1_hal\libhal.a(ab32vg1_hal_adc.o)
                              libraries\hal_drivers\drv_adc.o (hal_adc_enable)
libraries\hal_libraries\ab32vg1_hal\libhal.a(debug.o)
                              libraries\hal_libraries\ab32vg1_hal\libhal.a(cache.o) (debug_dump_info)
libraries\hal_libraries\ab32vg1_hal\libhal.a(platform.o)
                              libraries\hal_libraries\ab32vg1_hal\libhal.a(debug.o) (dummy_dump)
libraries\hal_libraries\ab32vg1_hal\libhal.a(rom_fun.o)
                              build\board\board.o (my_printf)
libraries\hal_libraries\ab32vg1_hal\libhal.a(save-restore.o)
                              build\kernel\src\ipc.o (__riscv_save_12)
d:/program_files/programming/rt-threadstudio/repo/extract/toolchain_support_packages/risc-v/risc-v-gcc/10.1.0/bin/../lib/gcc/riscv64-unknown-elf/10.1.0/rv32im/ilp32\libgcc.a(_divdi3.o)
                              libraries\hal_drivers\drv_pwm.o (__divdi3)
d:/program_files/programming/rt-threadstudio/repo/extract/toolchain_support_packages/risc-v/risc-v-gcc/10.1.0/bin/../lib/gcc/riscv64-unknown-elf/10.1.0/rv32im/ilp32\libgcc.a(_udivdi3.o)
                              libraries\hal_drivers\drv_pwm.o (__udivdi3)
d:/program_files/programming/rt-threadstudio/repo/extract/toolchain_support_packages/risc-v/risc-v-gcc/10.1.0/bin/../lib/gcc/riscv64-unknown-elf/10.1.0/rv32im/ilp32\libgcc.a(_umoddi3.o)
                              d:/program_files/programming/rt-threadstudio/repo/extract/toolchain_support_packages/risc-v/risc-v-gcc/10.1.0/bin/../lib/gcc/riscv64-unknown-elf/10.1.0/../../../../riscv64-unknown-elf/lib/rv32im/ilp32\libc.a(lib_a-svfprintf.o) (__umoddi3)
d:/program_files/programming/rt-threadstudio/repo/extract/toolchain_support_packages/risc-v/risc-v-gcc/10.1.0/bin/../lib/gcc/riscv64-unknown-elf/10.1.0/rv32im/ilp32\libgcc.a(divdf3.o)
                              build\kernel\components\drivers\misc\rt_drv_pwm.o (__divdf3)
d:/program_files/programming/rt-threadstudio/repo/extract/toolchain_support_packages/risc-v/risc-v-gcc/10.1.0/bin/../lib/gcc/riscv64-unknown-elf/10.1.0/rv32im/ilp32\libgcc.a(muldf3.o)
                              build\kernel\components\drivers\misc\rt_drv_pwm.o (__muldf3)
d:/program_files/programming/rt-threadstudio/repo/extract/toolchain_support_packages/risc-v/risc-v-gcc/10.1.0/bin/../lib/gcc/riscv64-unknown-elf/10.1.0/rv32im/ilp32\libgcc.a(fixdfsi.o)
                              build\kernel\components\drivers\misc\rt_drv_pwm.o (__fixdfsi)
d:/program_files/programming/rt-threadstudio/repo/extract/toolchain_support_packages/risc-v/risc-v-gcc/10.1.0/bin/../lib/gcc/riscv64-unknown-elf/10.1.0/rv32im/ilp32\libgcc.a(floatunsidf.o)
                              build\kernel\components\drivers\misc\rt_drv_pwm.o (__floatunsidf)
d:/program_files/programming/rt-threadstudio/repo/extract/toolchain_support_packages/risc-v/risc-v-gcc/10.1.0/bin/../lib/gcc/riscv64-unknown-elf/10.1.0/rv32im/ilp32\libgcc.a(eqtf2.o)
                              d:/program_files/programming/rt-threadstudio/repo/extract/toolchain_support_packages/risc-v/risc-v-gcc/10.1.0/bin/../lib/gcc/riscv64-unknown-elf/10.1.0/../../../../riscv64-unknown-elf/lib/rv32im/ilp32\libc.a(lib_a-svfprintf.o) (__eqtf2)
d:/program_files/programming/rt-threadstudio/repo/extract/toolchain_support_packages/risc-v/risc-v-gcc/10.1.0/bin/../lib/gcc/riscv64-unknown-elf/10.1.0/rv32im/ilp32\libgcc.a(getf2.o)
                              d:/program_files/programming/rt-threadstudio/repo/extract/toolchain_support_packages/risc-v/risc-v-gcc/10.1.0/bin/../lib/gcc/riscv64-unknown-elf/10.1.0/../../../../riscv64-unknown-elf/lib/rv32im/ilp32\libc.a(lib_a-svfprintf.o) (__gttf2)
d:/program_files/programming/rt-threadstudio/repo/extract/toolchain_support_packages/risc-v/risc-v-gcc/10.1.0/bin/../lib/gcc/riscv64-unknown-elf/10.1.0/rv32im/ilp32\libgcc.a(letf2.o)
                              d:/program_files/programming/rt-threadstudio/repo/extract/toolchain_support_packages/risc-v/risc-v-gcc/10.1.0/bin/../lib/gcc/riscv64-unknown-elf/10.1.0/../../../../riscv64-unknown-elf/lib/rv32im/ilp32\libc.a(lib_a-svfprintf.o) (__lttf2)
d:/program_files/programming/rt-threadstudio/repo/extract/toolchain_support_packages/risc-v/risc-v-gcc/10.1.0/bin/../lib/gcc/riscv64-unknown-elf/10.1.0/rv32im/ilp32\libgcc.a(multf3.o)
                              d:/program_files/programming/rt-threadstudio/repo/extract/toolchain_support_packages/risc-v/risc-v-gcc/10.1.0/bin/../lib/gcc/riscv64-unknown-elf/10.1.0/../../../../riscv64-unknown-elf/lib/rv32im/ilp32\libc.a(lib_a-svfprintf.o) (__multf3)
d:/program_files/programming/rt-threadstudio/repo/extract/toolchain_support_packages/risc-v/risc-v-gcc/10.1.0/bin/../lib/gcc/riscv64-unknown-elf/10.1.0/rv32im/ilp32\libgcc.a(subtf3.o)
                              d:/program_files/programming/rt-threadstudio/repo/extract/toolchain_support_packages/risc-v/risc-v-gcc/10.1.0/bin/../lib/gcc/riscv64-unknown-elf/10.1.0/../../../../riscv64-unknown-elf/lib/rv32im/ilp32\libc.a(lib_a-svfprintf.o) (__subtf3)
d:/program_files/programming/rt-threadstudio/repo/extract/toolchain_support_packages/risc-v/risc-v-gcc/10.1.0/bin/../lib/gcc/riscv64-unknown-elf/10.1.0/rv32im/ilp32\libgcc.a(fixtfsi.o)
                              d:/program_files/programming/rt-threadstudio/repo/extract/toolchain_support_packages/risc-v/risc-v-gcc/10.1.0/bin/../lib/gcc/riscv64-unknown-elf/10.1.0/../../../../riscv64-unknown-elf/lib/rv32im/ilp32\libc.a(lib_a-svfprintf.o) (__fixtfsi)
d:/program_files/programming/rt-threadstudio/repo/extract/toolchain_support_packages/risc-v/risc-v-gcc/10.1.0/bin/../lib/gcc/riscv64-unknown-elf/10.1.0/rv32im/ilp32\libgcc.a(floatsitf.o)
                              d:/program_files/programming/rt-threadstudio/repo/extract/toolchain_support_packages/risc-v/risc-v-gcc/10.1.0/bin/../lib/gcc/riscv64-unknown-elf/10.1.0/../../../../riscv64-unknown-elf/lib/rv32im/ilp32\libc.a(lib_a-svfprintf.o) (__floatsitf)
d:/program_files/programming/rt-threadstudio/repo/extract/toolchain_support_packages/risc-v/risc-v-gcc/10.1.0/bin/../lib/gcc/riscv64-unknown-elf/10.1.0/rv32im/ilp32\libgcc.a(addsf3.o)
                              build\kernel\components\drivers\hwtimer\hwtimer.o (__addsf3)
d:/program_files/programming/rt-threadstudio/repo/extract/toolchain_support_packages/risc-v/risc-v-gcc/10.1.0/bin/../lib/gcc/riscv64-unknown-elf/10.1.0/rv32im/ilp32\libgcc.a(divsf3.o)
                              build\kernel\components\drivers\hwtimer\hwtimer.o (__divsf3)
d:/program_files/programming/rt-threadstudio/repo/extract/toolchain_support_packages/risc-v/risc-v-gcc/10.1.0/bin/../lib/gcc/riscv64-unknown-elf/10.1.0/rv32im/ilp32\libgcc.a(eqsf2.o)
                              build\kernel\components\drivers\hwtimer\hwtimer.o (__eqsf2)
d:/program_files/programming/rt-threadstudio/repo/extract/toolchain_support_packages/risc-v/risc-v-gcc/10.1.0/bin/../lib/gcc/riscv64-unknown-elf/10.1.0/rv32im/ilp32\libgcc.a(gesf2.o)
                              build\kernel\components\drivers\hwtimer\hwtimer.o (__gesf2)
d:/program_files/programming/rt-threadstudio/repo/extract/toolchain_support_packages/risc-v/risc-v-gcc/10.1.0/bin/../lib/gcc/riscv64-unknown-elf/10.1.0/rv32im/ilp32\libgcc.a(lesf2.o)
                              build\kernel\components\drivers\hwtimer\hwtimer.o (__ltsf2)
d:/program_files/programming/rt-threadstudio/repo/extract/toolchain_support_packages/risc-v/risc-v-gcc/10.1.0/bin/../lib/gcc/riscv64-unknown-elf/10.1.0/rv32im/ilp32\libgcc.a(mulsf3.o)
                              build\kernel\components\drivers\hwtimer\hwtimer.o (__mulsf3)
d:/program_files/programming/rt-threadstudio/repo/extract/toolchain_support_packages/risc-v/risc-v-gcc/10.1.0/bin/../lib/gcc/riscv64-unknown-elf/10.1.0/rv32im/ilp32\libgcc.a(subsf3.o)
                              build\kernel\components\drivers\hwtimer\hwtimer.o (__subsf3)
d:/program_files/programming/rt-threadstudio/repo/extract/toolchain_support_packages/risc-v/risc-v-gcc/10.1.0/bin/../lib/gcc/riscv64-unknown-elf/10.1.0/rv32im/ilp32\libgcc.a(fixsfsi.o)
                              build\kernel\components\drivers\hwtimer\hwtimer.o (__fixsfsi)
d:/program_files/programming/rt-threadstudio/repo/extract/toolchain_support_packages/risc-v/risc-v-gcc/10.1.0/bin/../lib/gcc/riscv64-unknown-elf/10.1.0/rv32im/ilp32\libgcc.a(fixunssfsi.o)
                              build\kernel\components\drivers\hwtimer\hwtimer.o (__fixunssfsi)
d:/program_files/programming/rt-threadstudio/repo/extract/toolchain_support_packages/risc-v/risc-v-gcc/10.1.0/bin/../lib/gcc/riscv64-unknown-elf/10.1.0/rv32im/ilp32\libgcc.a(floatsisf.o)
                              build\kernel\components\drivers\hwtimer\hwtimer.o (__floatsisf)
d:/program_files/programming/rt-threadstudio/repo/extract/toolchain_support_packages/risc-v/risc-v-gcc/10.1.0/bin/../lib/gcc/riscv64-unknown-elf/10.1.0/rv32im/ilp32\libgcc.a(floatunsisf.o)
                              build\kernel\components\drivers\hwtimer\hwtimer.o (__floatunsisf)
d:/program_files/programming/rt-threadstudio/repo/extract/toolchain_support_packages/risc-v/risc-v-gcc/10.1.0/bin/../lib/gcc/riscv64-unknown-elf/10.1.0/rv32im/ilp32\libgcc.a(extenddftf2.o)
                              d:/program_files/programming/rt-threadstudio/repo/extract/toolchain_support_packages/risc-v/risc-v-gcc/10.1.0/bin/../lib/gcc/riscv64-unknown-elf/10.1.0/../../../../riscv64-unknown-elf/lib/rv32im/ilp32\libc.a(lib_a-svfprintf.o) (__extenddftf2)
d:/program_files/programming/rt-threadstudio/repo/extract/toolchain_support_packages/risc-v/risc-v-gcc/10.1.0/bin/../lib/gcc/riscv64-unknown-elf/10.1.0/rv32im/ilp32\libgcc.a(trunctfdf2.o)
                              d:/program_files/programming/rt-threadstudio/repo/extract/toolchain_support_packages/risc-v/risc-v-gcc/10.1.0/bin/../lib/gcc/riscv64-unknown-elf/10.1.0/../../../../riscv64-unknown-elf/lib/rv32im/ilp32\libc.a(lib_a-svfprintf.o) (__trunctfdf2)
d:/program_files/programming/rt-threadstudio/repo/extract/toolchain_support_packages/risc-v/risc-v-gcc/10.1.0/bin/../lib/gcc/riscv64-unknown-elf/10.1.0/rv32im/ilp32\libgcc.a(_clz.o)
                              d:/program_files/programming/rt-threadstudio/repo/extract/toolchain_support_packages/risc-v/risc-v-gcc/10.1.0/bin/../lib/gcc/riscv64-unknown-elf/10.1.0/rv32im/ilp32\libgcc.a(_divdi3.o) (__clz_tab)
d:/program_files/programming/rt-threadstudio/repo/extract/toolchain_support_packages/risc-v/risc-v-gcc/10.1.0/bin/../lib/gcc/riscv64-unknown-elf/10.1.0/rv32im/ilp32\libgcc.a(_clzsi2.o)
                              d:/program_files/programming/rt-threadstudio/repo/extract/toolchain_support_packages/risc-v/risc-v-gcc/10.1.0/bin/../lib/gcc/riscv64-unknown-elf/10.1.0/rv32im/ilp32\libgcc.a(divdf3.o) (__clzsi2)

Allocating common symbols
Common symbol       size              file

dump_info           0x4               libraries\hal_libraries\ab32vg1_hal\libhal.a(debug.o)
cache_cb            0x2c              libraries\hal_libraries\ab32vg1_hal\libhal.a(cache.o)
dump_err            0x4               libraries\hal_libraries\ab32vg1_hal\libhal.a(debug.o)
spi_dummy_byte      0x4               libraries\hal_libraries\ab32vg1_hal\libhal.a(spiflash.o)

Discarded input sections

 .text          0x0000000000000000        0x0 build\applications\main.o
 .data          0x0000000000000000        0x0 build\applications\main.o
 .bss           0x0000000000000000        0x0 build\applications\main.o
 .data          0x0000000000000000        0x0 build\applications\mnt.o
 .bss           0x0000000000000000        0x0 build\applications\mnt.o
 .data          0x0000000000000000        0x0 build\board\board.o
 .data          0x0000000000000000        0x0 build\board\ab32vg1_hal_msp.o
 .bss           0x0000000000000000        0x0 build\board\ab32vg1_hal_msp.o
 .data          0x0000000000000000        0x0 build\kernel\src\memheap.o
 .bss           0x0000000000000000        0x0 build\kernel\src\memheap.o
 .data          0x0000000000000000        0x0 build\kernel\src\clock.o
 .bss           0x0000000000000000        0x0 build\kernel\src\clock.o
 .data          0x0000000000000000        0x0 build\kernel\src\ipc.o
 .bss           0x0000000000000000        0x0 build\kernel\src\ipc.o
 .data          0x0000000000000000        0x0 build\kernel\src\kservice.o
 .data          0x0000000000000000        0x0 build\kernel\src\thread.o
 .bss           0x0000000000000000        0x0 build\kernel\src\thread.o
 .data          0x0000000000000000        0x0 build\kernel\src\irq.o
 .bss           0x0000000000000000        0x0 build\kernel\src\irq.o
 .data          0x0000000000000000        0x0 build\kernel\src\idle.o
 .data          0x0000000000000000        0x0 build\kernel\src\timer.o
 .data          0x0000000000000000        0x0 build\kernel\src\mempool.o
 .bss           0x0000000000000000        0x0 build\kernel\src\mempool.o
 .data          0x0000000000000000        0x0 build\kernel\src\device.o
 .bss           0x0000000000000000        0x0 build\kernel\src\device.o
 .data          0x0000000000000000        0x0 build\kernel\src\mem.o
 .bss           0x0000000000000000        0x0 build\kernel\src\object.o
 .data          0x0000000000000000        0x0 build\kernel\src\scheduler.o
 .data          0x0000000000000000        0x0 build\kernel\src\components.o
 .bss           0x0000000000000000        0x0 build\kernel\src\components.o
 .data          0x0000000000000000        0x0 build\kernel\components\dfs\src\dfs_posix.o
 .bss           0x0000000000000000        0x0 build\kernel\components\dfs\src\dfs_posix.o
 .data          0x0000000000000000        0x0 build\kernel\components\dfs\src\dfs_fs.o
 .bss           0x0000000000000000        0x0 build\kernel\components\dfs\src\dfs_fs.o
 .data          0x0000000000000000        0x0 build\kernel\components\dfs\src\dfs_file.o
 .data          0x0000000000000000        0x0 build\kernel\components\dfs\filesystems\devfs\devfs.o
 .bss           0x0000000000000000        0x0 build\kernel\components\dfs\filesystems\devfs\devfs.o
 .data          0x0000000000000000        0x0 build\kernel\components\dfs\filesystems\elmfat\dfs_elm.o
 .bss           0x0000000000000000        0x0 build\kernel\components\dfs\filesystems\elmfat\dfs_elm.o
 .data          0x0000000000000000        0x0 build\kernel\components\dfs\filesystems\elmfat\ffunicode.o
 .bss           0x0000000000000000        0x0 build\kernel\components\dfs\filesystems\elmfat\ffunicode.o
 .data          0x0000000000000000        0x0 build\kernel\components\dfs\filesystems\elmfat\ff.o
 .bss           0x0000000000000000        0x0 build\kernel\components\dfs\filesystems\elmfat\ff.o
 .data          0x0000000000000000        0x0 build\kernel\components\drivers\audio\audio.o
 .bss           0x0000000000000000        0x0 build\kernel\components\drivers\audio\audio.o
 .data          0x0000000000000000        0x0 build\kernel\components\drivers\audio\audio_pipe.o
 .bss           0x0000000000000000        0x0 build\kernel\components\drivers\audio\audio_pipe.o
 .data          0x0000000000000000        0x0 build\kernel\components\drivers\hwtimer\hwtimer.o
 .bss           0x0000000000000000        0x0 build\kernel\components\drivers\hwtimer\hwtimer.o
 .data          0x0000000000000000        0x0 build\kernel\components\drivers\i2c\i2c_core.o
 .bss           0x0000000000000000        0x0 build\kernel\components\drivers\i2c\i2c_core.o
 .data          0x0000000000000000        0x0 build\kernel\components\drivers\i2c\i2c_dev.o
 .bss           0x0000000000000000        0x0 build\kernel\components\drivers\i2c\i2c_dev.o
 .data          0x0000000000000000        0x0 build\kernel\components\drivers\i2c\i2c-bit-ops.o
 .bss           0x0000000000000000        0x0 build\kernel\components\drivers\i2c\i2c-bit-ops.o
 .data          0x0000000000000000        0x0 build\kernel\components\drivers\misc\adc.o
 .bss           0x0000000000000000        0x0 build\kernel\components\drivers\misc\adc.o
 .data          0x0000000000000000        0x0 build\kernel\components\drivers\misc\rt_drv_pwm.o
 .bss           0x0000000000000000        0x0 build\kernel\components\drivers\misc\rt_drv_pwm.o
 .data          0x0000000000000000        0x0 build\kernel\components\drivers\misc\pin.o
 .data          0x0000000000000000        0x0 build\kernel\components\drivers\rtc\rtc.o
 .bss           0x0000000000000000        0x0 build\kernel\components\drivers\rtc\rtc.o
 .data          0x0000000000000000        0x0 build\kernel\components\drivers\sdio\mmc.o
 .bss           0x0000000000000000        0x0 build\kernel\components\drivers\sdio\mmc.o
 .data          0x0000000000000000        0x0 build\kernel\components\drivers\sdio\sd.o
 .bss           0x0000000000000000        0x0 build\kernel\components\drivers\sdio\sd.o
 .data          0x0000000000000000        0x0 build\kernel\components\drivers\sdio\block_dev.o
 .bss           0x0000000000000000        0x0 build\kernel\components\drivers\sdio\block_dev.o
 .data          0x0000000000000000        0x0 build\kernel\components\drivers\sdio\sdio.o
 .bss           0x0000000000000000        0x0 build\kernel\components\drivers\sdio\sdio.o
 .data          0x0000000000000000        0x0 build\kernel\components\drivers\sdio\mmcsd_core.o
 .data          0x0000000000000000        0x0 build\kernel\components\drivers\serial\serial.o
 .bss           0x0000000000000000        0x0 build\kernel\components\drivers\serial\serial.o
 .text          0x0000000000000000      0x6b6 build\kernel\components\drivers\src\workqueue.o
 .data          0x0000000000000000        0x0 build\kernel\components\drivers\src\workqueue.o
 .bss           0x0000000000000000        0x0 build\kernel\components\drivers\src\workqueue.o
 .rodata.str1.4
                0x0000000000000000       0x34 build\kernel\components\drivers\src\workqueue.o
 .rodata        0x0000000000000000       0xf5 build\kernel\components\drivers\src\workqueue.o
 .comment       0x0000000000000000       0x13 build\kernel\components\drivers\src\workqueue.o
 .riscv.attributes
                0x0000000000000000       0x26 build\kernel\components\drivers\src\workqueue.o
 .data          0x0000000000000000        0x0 build\kernel\components\drivers\src\dataqueue.o
 .bss           0x0000000000000000        0x0 build\kernel\components\drivers\src\dataqueue.o
 .text          0x0000000000000000      0x28e build\kernel\components\drivers\src\pipe.o
 .data          0x0000000000000000        0x0 build\kernel\components\drivers\src\pipe.o
 .bss           0x0000000000000000        0x0 build\kernel\components\drivers\src\pipe.o
 .rodata.str1.4
                0x0000000000000000        0xf build\kernel\components\drivers\src\pipe.o
 .rodata        0x0000000000000000       0x28 build\kernel\components\drivers\src\pipe.o
 .comment       0x0000000000000000       0x13 build\kernel\components\drivers\src\pipe.o
 .riscv.attributes
                0x0000000000000000       0x26 build\kernel\components\drivers\src\pipe.o
 .data          0x0000000000000000        0x0 build\kernel\components\drivers\src\completion.o
 .bss           0x0000000000000000        0x0 build\kernel\components\drivers\src\completion.o
 .data          0x0000000000000000        0x0 build\kernel\components\drivers\src\ringbuffer.o
 .bss           0x0000000000000000        0x0 build\kernel\components\drivers\src\ringbuffer.o
 .text          0x0000000000000000      0x702 build\kernel\components\drivers\src\ringblk_buf.o
 .data          0x0000000000000000        0x0 build\kernel\components\drivers\src\ringblk_buf.o
 .bss           0x0000000000000000        0x0 build\kernel\components\drivers\src\ringblk_buf.o
 .rodata.str1.4
                0x0000000000000000       0x86 build\kernel\components\drivers\src\ringblk_buf.o
 .rodata        0x0000000000000000      0x128 build\kernel\components\drivers\src\ringblk_buf.o
 .comment       0x0000000000000000       0x13 build\kernel\components\drivers\src\ringblk_buf.o
 .riscv.attributes
                0x0000000000000000       0x26 build\kernel\components\drivers\src\ringblk_buf.o
 .text          0x0000000000000000      0x1fe build\kernel\components\drivers\src\waitqueue.o
 .data          0x0000000000000000        0x0 build\kernel\components\drivers\src\waitqueue.o
 .bss           0x0000000000000000        0x0 build\kernel\components\drivers\src\waitqueue.o
 .rodata.str1.4
                0x0000000000000000       0x2a build\kernel\components\drivers\src\waitqueue.o
 .rodata        0x0000000000000000        0xf build\kernel\components\drivers\src\waitqueue.o
 .comment       0x0000000000000000       0x13 build\kernel\components\drivers\src\waitqueue.o
 .riscv.attributes
                0x0000000000000000       0x26 build\kernel\components\drivers\src\waitqueue.o
 .data          0x0000000000000000        0x0 build\kernel\components\drivers\watchdog\watchdog.o
 .bss           0x0000000000000000        0x0 build\kernel\components\drivers\watchdog\watchdog.o
 .data          0x0000000000000000        0x0 build\kernel\components\finsh\finsh_node.o
 .data          0x0000000000000000        0x0 build\kernel\components\finsh\finsh_parser.o
 .bss           0x0000000000000000        0x0 build\kernel\components\finsh\finsh_parser.o
 .data          0x0000000000000000        0x0 build\kernel\components\finsh\cmd.o
 .bss           0x0000000000000000        0x0 build\kernel\components\finsh\cmd.o
 .data          0x0000000000000000        0x0 build\kernel\components\finsh\finsh_vm.o
 .data          0x0000000000000000        0x0 build\kernel\components\finsh\msh_file.o
 .bss           0x0000000000000000        0x0 build\kernel\components\finsh\msh_file.o
 .data          0x0000000000000000        0x0 build\kernel\components\finsh\shell.o
 .data          0x0000000000000000        0x0 build\kernel\components\finsh\finsh_var.o
 .data          0x0000000000000000        0x0 build\kernel\components\finsh\finsh_compiler.o
 .bss           0x0000000000000000        0x0 build\kernel\components\finsh\finsh_compiler.o
 .data          0x0000000000000000        0x0 build\kernel\components\finsh\finsh_heap.o
 .data          0x0000000000000000        0x0 build\kernel\components\finsh\finsh_ops.o
 .bss           0x0000000000000000        0x0 build\kernel\components\finsh\finsh_ops.o
 .data          0x0000000000000000        0x0 build\kernel\components\finsh\finsh_error.o
 .bss           0x0000000000000000        0x0 build\kernel\components\finsh\finsh_error.o
 .data          0x0000000000000000        0x0 build\kernel\components\finsh\msh.o
 .bss           0x0000000000000000        0x0 build\kernel\components\finsh\msh.o
 .data          0x0000000000000000        0x0 build\kernel\components\finsh\finsh_token.o
 .bss           0x0000000000000000        0x0 build\kernel\components\finsh\finsh_token.o
 .data          0x0000000000000000        0x0 build\kernel\components\finsh\finsh_init.o
 .bss           0x0000000000000000        0x0 build\kernel\components\finsh\finsh_init.o
 .data          0x0000000000000000        0x0 build\kernel\components\libc\compilers\common\time.o
 .data          0x0000000000000000        0x0 build\kernel\components\libc\compilers\common\stdlib.o
 .bss           0x0000000000000000        0x0 build\kernel\components\libc\compilers\common\stdlib.o
 .data          0x0000000000000000        0x0 build\kernel\components\libc\compilers\newlib\libc.o
 .bss           0x0000000000000000        0x0 build\kernel\components\libc\compilers\newlib\libc.o
 .data          0x0000000000000000        0x0 build\kernel\components\libc\compilers\newlib\syscalls.o
 .bss           0x0000000000000000        0x0 build\kernel\components\libc\compilers\newlib\syscalls.o
 .data          0x0000000000000000        0x0 build\kernel\components\libc\compilers\newlib\stdio.o
 .bss           0x0000000000000000        0x0 build\kernel\components\libc\compilers\newlib\stdio.o
 .data          0x0000000000000000        0x0 libraries\hal_drivers\drv_gpio.o
 .bss           0x0000000000000000        0x0 libraries\hal_drivers\drv_gpio.o
 .data          0x0000000000000000        0x0 libraries\hal_drivers\drv_rtc.o
 .data          0x0000000000000000        0x0 libraries\hal_drivers\drv_soft_i2c.o
 .data          0x0000000000000000        0x0 libraries\hal_drivers\drv_wdt.o
 .data          0x0000000000000000        0x0 libraries\hal_drivers\drv_sdio.o
 .bss           0x0000000000000000        0x0 libraries\hal_drivers\drv_adc.o
 .data          0x0000000000000000        0x0 libraries\hal_drivers\drv_irrx.o
 .bss           0x0000000000000000        0x0 libraries\hal_drivers\drv_irrx.o
 .bss           0x0000000000000000        0x0 libraries\hal_drivers\drv_pwm.o
 .bss           0x0000000000000000        0x0 libraries\hal_drivers\drv_hwtimer.o
 .data          0x0000000000000000        0x0 libcpu\cpu\interrupt.o
 .data          0x0000000000000000        0x0 libcpu\cpu\cpuport.o
 .bss           0x0000000000000000        0x0 libcpu\cpu\cpuport.o
 .data          0x0000000000000000        0x0 libcpu\cpu\context_gcc.o
 .bss           0x0000000000000000        0x0 libcpu\cpu\context_gcc.o
 .text          0x0000000000000000        0x0 libraries\hal_libraries\ab32vg1_hal\source\ab32vg1_hal_dac.o
 .data          0x0000000000000000        0x0 libraries\hal_libraries\ab32vg1_hal\source\ab32vg1_hal_dac.o
 .bss           0x0000000000000000        0x0 libraries\hal_libraries\ab32vg1_hal\source\ab32vg1_hal_dac.o
 .comment       0x0000000000000000       0x13 libraries\hal_libraries\ab32vg1_hal\source\ab32vg1_hal_dac.o
 .riscv.attributes
                0x0000000000000000       0x26 libraries\hal_libraries\ab32vg1_hal\source\ab32vg1_hal_dac.o
 .data          0x0000000000000000        0x0 libraries\hal_libraries\ab32vg1_hal\source\ab32vg1_hal_gpio.o
 .bss           0x0000000000000000        0x0 libraries\hal_libraries\ab32vg1_hal\source\ab32vg1_hal_gpio.o
 .text          0x0000000000000000      0x4d0 libraries\hal_libraries\ab32vg1_hal\source\ab32vg1_hal_sd.o
 .data          0x0000000000000000        0x0 libraries\hal_libraries\ab32vg1_hal\source\ab32vg1_hal_sd.o
 .bss           0x0000000000000000        0x0 libraries\hal_libraries\ab32vg1_hal\source\ab32vg1_hal_sd.o
 .rodata.str1.4
                0x0000000000000000       0x60 libraries\hal_libraries\ab32vg1_hal\source\ab32vg1_hal_sd.o
 .comment       0x0000000000000000       0x13 libraries\hal_libraries\ab32vg1_hal\source\ab32vg1_hal_sd.o
 .riscv.attributes
                0x0000000000000000       0x26 libraries\hal_libraries\ab32vg1_hal\source\ab32vg1_hal_sd.o
 .data          0x0000000000000000        0x0 libraries\hal_libraries\ab32vg1_hal\source\ab32vg1_hal.o
 .bss           0x0000000000000000        0x0 libraries\hal_libraries\ab32vg1_hal\source\ab32vg1_hal.o
 .data          0x0000000000000000        0x0 libraries\hal_libraries\ab32vg1_hal\source\ab32vg1_hal_uart.o
 .bss           0x0000000000000000        0x0 libraries\hal_libraries\ab32vg1_hal\source\ab32vg1_hal_uart.o
 .data          0x0000000000000000        0x0 libraries\hal_libraries\ab32vg1_hal\source\ab32vg1_hal_rcu.o
 .bss           0x0000000000000000        0x0 libraries\hal_libraries\ab32vg1_hal\source\ab32vg1_hal_rcu.o
 .text          0x0000000000000000        0x0 libraries\hal_libraries\bmsis\source\startup.o
 .data          0x0000000000000000        0x0 libraries\hal_libraries\bmsis\source\startup.o
 .bss           0x0000000000000000        0x0 libraries\hal_libraries\bmsis\source\startup.o
 .data          0x0000000000000000        0x0 libraries\hal_libraries\bmsis\source\system_ab32vgx.o
 .data          0x0000000000000000        0x0 d:/program_files/programming/rt-threadstudio/repo/extract/toolchain_support_packages/risc-v/risc-v-gcc/10.1.0/bin/../lib/gcc/riscv64-unknown-elf/10.1.0/../../../../riscv64-unknown-elf/lib/rv32im/ilp32\libc.a(lib_a-atoi.o)
 .bss           0x0000000000000000        0x0 d:/program_files/programming/rt-threadstudio/repo/extract/toolchain_support_packages/risc-v/risc-v-gcc/10.1.0/bin/../lib/gcc/riscv64-unknown-elf/10.1.0/../../../../riscv64-unknown-elf/lib/rv32im/ilp32\libc.a(lib_a-atoi.o)
 .data          0x0000000000000000        0x0 d:/program_files/programming/rt-threadstudio/repo/extract/toolchain_support_packages/risc-v/risc-v-gcc/10.1.0/bin/../lib/gcc/riscv64-unknown-elf/10.1.0/../../../../riscv64-unknown-elf/lib/rv32im/ilp32\libc.a(lib_a-fclose.o)
 .bss           0x0000000000000000        0x0 d:/program_files/programming/rt-threadstudio/repo/extract/toolchain_support_packages/risc-v/risc-v-gcc/10.1.0/bin/../lib/gcc/riscv64-unknown-elf/10.1.0/../../../../riscv64-unknown-elf/lib/rv32im/ilp32\libc.a(lib_a-fclose.o)
 .data          0x0000000000000000        0x0 d:/program_files/programming/rt-threadstudio/repo/extract/toolchain_support_packages/risc-v/risc-v-gcc/10.1.0/bin/../lib/gcc/riscv64-unknown-elf/10.1.0/../../../../riscv64-unknown-elf/lib/rv32im/ilp32\libc.a(lib_a-fflush.o)
 .bss           0x0000000000000000        0x0 d:/program_files/programming/rt-threadstudio/repo/extract/toolchain_support_packages/risc-v/risc-v-gcc/10.1.0/bin/../lib/gcc/riscv64-unknown-elf/10.1.0/../../../../riscv64-unknown-elf/lib/rv32im/ilp32\libc.a(lib_a-fflush.o)
 .data          0x0000000000000000        0x0 d:/program_files/programming/rt-threadstudio/repo/extract/toolchain_support_packages/risc-v/risc-v-gcc/10.1.0/bin/../lib/gcc/riscv64-unknown-elf/10.1.0/../../../../riscv64-unknown-elf/lib/rv32im/ilp32\libc.a(lib_a-fileno.o)
 .bss           0x0000000000000000        0x0 d:/program_files/programming/rt-threadstudio/repo/extract/toolchain_support_packages/risc-v/risc-v-gcc/10.1.0/bin/../lib/gcc/riscv64-unknown-elf/10.1.0/../../../../riscv64-unknown-elf/lib/rv32im/ilp32\libc.a(lib_a-fileno.o)
 .data          0x0000000000000000        0x0 d:/program_files/programming/rt-threadstudio/repo/extract/toolchain_support_packages/risc-v/risc-v-gcc/10.1.0/bin/../lib/gcc/riscv64-unknown-elf/10.1.0/../../../../riscv64-unknown-elf/lib/rv32im/ilp32\libc.a(lib_a-findfp.o)
 .bss           0x0000000000000000        0x0 d:/program_files/programming/rt-threadstudio/repo/extract/toolchain_support_packages/risc-v/risc-v-gcc/10.1.0/bin/../lib/gcc/riscv64-unknown-elf/10.1.0/../../../../riscv64-unknown-elf/lib/rv32im/ilp32\libc.a(lib_a-findfp.o)
 .data          0x0000000000000000        0x0 d:/program_files/programming/rt-threadstudio/repo/extract/toolchain_support_packages/risc-v/risc-v-gcc/10.1.0/bin/../lib/gcc/riscv64-unknown-elf/10.1.0/../../../../riscv64-unknown-elf/lib/rv32im/ilp32\libc.a(lib_a-fopen.o)
 .bss           0x0000000000000000        0x0 d:/program_files/programming/rt-threadstudio/repo/extract/toolchain_support_packages/risc-v/risc-v-gcc/10.1.0/bin/../lib/gcc/riscv64-unknown-elf/10.1.0/../../../../riscv64-unknown-elf/lib/rv32im/ilp32\libc.a(lib_a-fopen.o)
 .data          0x0000000000000000        0x0 d:/program_files/programming/rt-threadstudio/repo/extract/toolchain_support_packages/risc-v/risc-v-gcc/10.1.0/bin/../lib/gcc/riscv64-unknown-elf/10.1.0/../../../../riscv64-unknown-elf/lib/rv32im/ilp32\libc.a(lib_a-fseek.o)
 .bss           0x0000000000000000        0x0 d:/program_files/programming/rt-threadstudio/repo/extract/toolchain_support_packages/risc-v/risc-v-gcc/10.1.0/bin/../lib/gcc/riscv64-unknown-elf/10.1.0/../../../../riscv64-unknown-elf/lib/rv32im/ilp32\libc.a(lib_a-fseek.o)
 .data          0x0000000000000000        0x0 d:/program_files/programming/rt-threadstudio/repo/extract/toolchain_support_packages/risc-v/risc-v-gcc/10.1.0/bin/../lib/gcc/riscv64-unknown-elf/10.1.0/../../../../riscv64-unknown-elf/lib/rv32im/ilp32\libc.a(lib_a-fseeko.o)
 .bss           0x0000000000000000        0x0 d:/program_files/programming/rt-threadstudio/repo/extract/toolchain_support_packages/risc-v/risc-v-gcc/10.1.0/bin/../lib/gcc/riscv64-unknown-elf/10.1.0/../../../../riscv64-unknown-elf/lib/rv32im/ilp32\libc.a(lib_a-fseeko.o)
 .data          0x0000000000000000        0x0 d:/program_files/programming/rt-threadstudio/repo/extract/toolchain_support_packages/risc-v/risc-v-gcc/10.1.0/bin/../lib/gcc/riscv64-unknown-elf/10.1.0/../../../../riscv64-unknown-elf/lib/rv32im/ilp32\libc.a(lib_a-ftello.o)
 .bss           0x0000000000000000        0x0 d:/program_files/programming/rt-threadstudio/repo/extract/toolchain_support_packages/risc-v/risc-v-gcc/10.1.0/bin/../lib/gcc/riscv64-unknown-elf/10.1.0/../../../../riscv64-unknown-elf/lib/rv32im/ilp32\libc.a(lib_a-ftello.o)
 .data          0x0000000000000000        0x0 d:/program_files/programming/rt-threadstudio/repo/extract/toolchain_support_packages/risc-v/risc-v-gcc/10.1.0/bin/../lib/gcc/riscv64-unknown-elf/10.1.0/../../../../riscv64-unknown-elf/lib/rv32im/ilp32\libc.a(lib_a-fwalk.o)
 .bss           0x0000000000000000        0x0 d:/program_files/programming/rt-threadstudio/repo/extract/toolchain_support_packages/risc-v/risc-v-gcc/10.1.0/bin/../lib/gcc/riscv64-unknown-elf/10.1.0/../../../../riscv64-unknown-elf/lib/rv32im/ilp32\libc.a(lib_a-fwalk.o)
 .text          0x0000000000000000        0x0 d:/program_files/programming/rt-threadstudio/repo/extract/toolchain_support_packages/risc-v/risc-v-gcc/10.1.0/bin/../lib/gcc/riscv64-unknown-elf/10.1.0/../../../../riscv64-unknown-elf/lib/rv32im/ilp32\libc.a(lib_a-impure.o)
 .bss           0x0000000000000000        0x0 d:/program_files/programming/rt-threadstudio/repo/extract/toolchain_support_packages/risc-v/risc-v-gcc/10.1.0/bin/../lib/gcc/riscv64-unknown-elf/10.1.0/../../../../riscv64-unknown-elf/lib/rv32im/ilp32\libc.a(lib_a-impure.o)
 .data          0x0000000000000000        0x0 d:/program_files/programming/rt-threadstudio/repo/extract/toolchain_support_packages/risc-v/risc-v-gcc/10.1.0/bin/../lib/gcc/riscv64-unknown-elf/10.1.0/../../../../riscv64-unknown-elf/lib/rv32im/ilp32\libc.a(lib_a-makebuf.o)
 .bss           0x0000000000000000        0x0 d:/program_files/programming/rt-threadstudio/repo/extract/toolchain_support_packages/risc-v/risc-v-gcc/10.1.0/bin/../lib/gcc/riscv64-unknown-elf/10.1.0/../../../../riscv64-unknown-elf/lib/rv32im/ilp32\libc.a(lib_a-makebuf.o)
 .data          0x0000000000000000        0x0 d:/program_files/programming/rt-threadstudio/repo/extract/toolchain_support_packages/risc-v/risc-v-gcc/10.1.0/bin/../lib/gcc/riscv64-unknown-elf/10.1.0/../../../../riscv64-unknown-elf/lib/rv32im/ilp32\libc.a(lib_a-memcmp.o)
 .bss           0x0000000000000000        0x0 d:/program_files/programming/rt-threadstudio/repo/extract/toolchain_support_packages/risc-v/risc-v-gcc/10.1.0/bin/../lib/gcc/riscv64-unknown-elf/10.1.0/../../../../riscv64-unknown-elf/lib/rv32im/ilp32\libc.a(lib_a-memcmp.o)
 .data          0x0000000000000000        0x0 d:/program_files/programming/rt-threadstudio/repo/extract/toolchain_support_packages/risc-v/risc-v-gcc/10.1.0/bin/../lib/gcc/riscv64-unknown-elf/10.1.0/../../../../riscv64-unknown-elf/lib/rv32im/ilp32\libc.a(lib_a-memcpy.o)
 .bss           0x0000000000000000        0x0 d:/program_files/programming/rt-threadstudio/repo/extract/toolchain_support_packages/risc-v/risc-v-gcc/10.1.0/bin/../lib/gcc/riscv64-unknown-elf/10.1.0/../../../../riscv64-unknown-elf/lib/rv32im/ilp32\libc.a(lib_a-memcpy.o)
 .data          0x0000000000000000        0x0 d:/program_files/programming/rt-threadstudio/repo/extract/toolchain_support_packages/risc-v/risc-v-gcc/10.1.0/bin/../lib/gcc/riscv64-unknown-elf/10.1.0/../../../../riscv64-unknown-elf/lib/rv32im/ilp32\libc.a(lib_a-memset.o)
 .bss           0x0000000000000000        0x0 d:/program_files/programming/rt-threadstudio/repo/extract/toolchain_support_packages/risc-v/risc-v-gcc/10.1.0/bin/../lib/gcc/riscv64-unknown-elf/10.1.0/../../../../riscv64-unknown-elf/lib/rv32im/ilp32\libc.a(lib_a-memset.o)
 .data          0x0000000000000000        0x0 d:/program_files/programming/rt-threadstudio/repo/extract/toolchain_support_packages/risc-v/risc-v-gcc/10.1.0/bin/../lib/gcc/riscv64-unknown-elf/10.1.0/../../../../riscv64-unknown-elf/lib/rv32im/ilp32\libc.a(lib_a-putenv.o)
 .bss           0x0000000000000000        0x0 d:/program_files/programming/rt-threadstudio/repo/extract/toolchain_support_packages/risc-v/risc-v-gcc/10.1.0/bin/../lib/gcc/riscv64-unknown-elf/10.1.0/../../../../riscv64-unknown-elf/lib/rv32im/ilp32\libc.a(lib_a-putenv.o)
 .data          0x0000000000000000        0x0 d:/program_files/programming/rt-threadstudio/repo/extract/toolchain_support_packages/risc-v/risc-v-gcc/10.1.0/bin/../lib/gcc/riscv64-unknown-elf/10.1.0/../../../../riscv64-unknown-elf/lib/rv32im/ilp32\libc.a(lib_a-putenv_r.o)
 .bss           0x0000000000000000        0x0 d:/program_files/programming/rt-threadstudio/repo/extract/toolchain_support_packages/risc-v/risc-v-gcc/10.1.0/bin/../lib/gcc/riscv64-unknown-elf/10.1.0/../../../../riscv64-unknown-elf/lib/rv32im/ilp32\libc.a(lib_a-putenv_r.o)
 .data          0x0000000000000000        0x0 d:/program_files/programming/rt-threadstudio/repo/extract/toolchain_support_packages/risc-v/risc-v-gcc/10.1.0/bin/../lib/gcc/riscv64-unknown-elf/10.1.0/../../../../riscv64-unknown-elf/lib/rv32im/ilp32\libc.a(lib_a-refill.o)
 .bss           0x0000000000000000        0x0 d:/program_files/programming/rt-threadstudio/repo/extract/toolchain_support_packages/risc-v/risc-v-gcc/10.1.0/bin/../lib/gcc/riscv64-unknown-elf/10.1.0/../../../../riscv64-unknown-elf/lib/rv32im/ilp32\libc.a(lib_a-refill.o)
 .data          0x0000000000000000        0x0 d:/program_files/programming/rt-threadstudio/repo/extract/toolchain_support_packages/risc-v/risc-v-gcc/10.1.0/bin/../lib/gcc/riscv64-unknown-elf/10.1.0/../../../../riscv64-unknown-elf/lib/rv32im/ilp32\libc.a(lib_a-setenv_r.o)
 .bss           0x0000000000000000        0x0 d:/program_files/programming/rt-threadstudio/repo/extract/toolchain_support_packages/risc-v/risc-v-gcc/10.1.0/bin/../lib/gcc/riscv64-unknown-elf/10.1.0/../../../../riscv64-unknown-elf/lib/rv32im/ilp32\libc.a(lib_a-setenv_r.o)
 .data          0x0000000000000000        0x0 d:/program_files/programming/rt-threadstudio/repo/extract/toolchain_support_packages/risc-v/risc-v-gcc/10.1.0/bin/../lib/gcc/riscv64-unknown-elf/10.1.0/../../../../riscv64-unknown-elf/lib/rv32im/ilp32\libc.a(lib_a-setvbuf.o)
 .bss           0x0000000000000000        0x0 d:/program_files/programming/rt-threadstudio/repo/extract/toolchain_support_packages/risc-v/risc-v-gcc/10.1.0/bin/../lib/gcc/riscv64-unknown-elf/10.1.0/../../../../riscv64-unknown-elf/lib/rv32im/ilp32\libc.a(lib_a-setvbuf.o)
 .data          0x0000000000000000        0x0 d:/program_files/programming/rt-threadstudio/repo/extract/toolchain_support_packages/risc-v/risc-v-gcc/10.1.0/bin/../lib/gcc/riscv64-unknown-elf/10.1.0/../../../../riscv64-unknown-elf/lib/rv32im/ilp32\libc.a(lib_a-snprintf.o)
 .bss           0x0000000000000000        0x0 d:/program_files/programming/rt-threadstudio/repo/extract/toolchain_support_packages/risc-v/risc-v-gcc/10.1.0/bin/../lib/gcc/riscv64-unknown-elf/10.1.0/../../../../riscv64-unknown-elf/lib/rv32im/ilp32\libc.a(lib_a-snprintf.o)
 .data          0x0000000000000000        0x0 d:/program_files/programming/rt-threadstudio/repo/extract/toolchain_support_packages/risc-v/risc-v-gcc/10.1.0/bin/../lib/gcc/riscv64-unknown-elf/10.1.0/../../../../riscv64-unknown-elf/lib/rv32im/ilp32\libc.a(lib_a-stdio.o)
 .bss           0x0000000000000000        0x0 d:/program_files/programming/rt-threadstudio/repo/extract/toolchain_support_packages/risc-v/risc-v-gcc/10.1.0/bin/../lib/gcc/riscv64-unknown-elf/10.1.0/../../../../riscv64-unknown-elf/lib/rv32im/ilp32\libc.a(lib_a-stdio.o)
 .data          0x0000000000000000        0x0 d:/program_files/programming/rt-threadstudio/repo/extract/toolchain_support_packages/risc-v/risc-v-gcc/10.1.0/bin/../lib/gcc/riscv64-unknown-elf/10.1.0/../../../../riscv64-unknown-elf/lib/rv32im/ilp32\libc.a(lib_a-strcat.o)
 .bss           0x0000000000000000        0x0 d:/program_files/programming/rt-threadstudio/repo/extract/toolchain_support_packages/risc-v/risc-v-gcc/10.1.0/bin/../lib/gcc/riscv64-unknown-elf/10.1.0/../../../../riscv64-unknown-elf/lib/rv32im/ilp32\libc.a(lib_a-strcat.o)
 .data          0x0000000000000000        0x0 d:/program_files/programming/rt-threadstudio/repo/extract/toolchain_support_packages/risc-v/risc-v-gcc/10.1.0/bin/../lib/gcc/riscv64-unknown-elf/10.1.0/../../../../riscv64-unknown-elf/lib/rv32im/ilp32\libc.a(lib_a-strchr.o)
 .bss           0x0000000000000000        0x0 d:/program_files/programming/rt-threadstudio/repo/extract/toolchain_support_packages/risc-v/risc-v-gcc/10.1.0/bin/../lib/gcc/riscv64-unknown-elf/10.1.0/../../../../riscv64-unknown-elf/lib/rv32im/ilp32\libc.a(lib_a-strchr.o)
 .data          0x0000000000000000        0x0 d:/program_files/programming/rt-threadstudio/repo/extract/toolchain_support_packages/risc-v/risc-v-gcc/10.1.0/bin/../lib/gcc/riscv64-unknown-elf/10.1.0/../../../../riscv64-unknown-elf/lib/rv32im/ilp32\libc.a(lib_a-strcmp.o)
 .bss           0x0000000000000000        0x0 d:/program_files/programming/rt-threadstudio/repo/extract/toolchain_support_packages/risc-v/risc-v-gcc/10.1.0/bin/../lib/gcc/riscv64-unknown-elf/10.1.0/../../../../riscv64-unknown-elf/lib/rv32im/ilp32\libc.a(lib_a-strcmp.o)
 .data          0x0000000000000000        0x0 d:/program_files/programming/rt-threadstudio/repo/extract/toolchain_support_packages/risc-v/risc-v-gcc/10.1.0/bin/../lib/gcc/riscv64-unknown-elf/10.1.0/../../../../riscv64-unknown-elf/lib/rv32im/ilp32\libc.a(lib_a-strcpy.o)
 .bss           0x0000000000000000        0x0 d:/program_files/programming/rt-threadstudio/repo/extract/toolchain_support_packages/risc-v/risc-v-gcc/10.1.0/bin/../lib/gcc/riscv64-unknown-elf/10.1.0/../../../../riscv64-unknown-elf/lib/rv32im/ilp32\libc.a(lib_a-strcpy.o)
 .data          0x0000000000000000        0x0 d:/program_files/programming/rt-threadstudio/repo/extract/toolchain_support_packages/risc-v/risc-v-gcc/10.1.0/bin/../lib/gcc/riscv64-unknown-elf/10.1.0/../../../../riscv64-unknown-elf/lib/rv32im/ilp32\libc.a(lib_a-strdup_r.o)
 .bss           0x0000000000000000        0x0 d:/program_files/programming/rt-threadstudio/repo/extract/toolchain_support_packages/risc-v/risc-v-gcc/10.1.0/bin/../lib/gcc/riscv64-unknown-elf/10.1.0/../../../../riscv64-unknown-elf/lib/rv32im/ilp32\libc.a(lib_a-strdup_r.o)
 .data          0x0000000000000000        0x0 d:/program_files/programming/rt-threadstudio/repo/extract/toolchain_support_packages/risc-v/risc-v-gcc/10.1.0/bin/../lib/gcc/riscv64-unknown-elf/10.1.0/../../../../riscv64-unknown-elf/lib/rv32im/ilp32\libc.a(lib_a-strlen.o)
 .bss           0x0000000000000000        0x0 d:/program_files/programming/rt-threadstudio/repo/extract/toolchain_support_packages/risc-v/risc-v-gcc/10.1.0/bin/../lib/gcc/riscv64-unknown-elf/10.1.0/../../../../riscv64-unknown-elf/lib/rv32im/ilp32\libc.a(lib_a-strlen.o)
 .data          0x0000000000000000        0x0 d:/program_files/programming/rt-threadstudio/repo/extract/toolchain_support_packages/risc-v/risc-v-gcc/10.1.0/bin/../lib/gcc/riscv64-unknown-elf/10.1.0/../../../../riscv64-unknown-elf/lib/rv32im/ilp32\libc.a(lib_a-strncmp.o)
 .bss           0x0000000000000000        0x0 d:/program_files/programming/rt-threadstudio/repo/extract/toolchain_support_packages/risc-v/risc-v-gcc/10.1.0/bin/../lib/gcc/riscv64-unknown-elf/10.1.0/../../../../riscv64-unknown-elf/lib/rv32im/ilp32\libc.a(lib_a-strncmp.o)
 .data          0x0000000000000000        0x0 d:/program_files/programming/rt-threadstudio/repo/extract/toolchain_support_packages/risc-v/risc-v-gcc/10.1.0/bin/../lib/gcc/riscv64-unknown-elf/10.1.0/../../../../riscv64-unknown-elf/lib/rv32im/ilp32\libc.a(lib_a-strncpy.o)
 .bss           0x0000000000000000        0x0 d:/program_files/programming/rt-threadstudio/repo/extract/toolchain_support_packages/risc-v/risc-v-gcc/10.1.0/bin/../lib/gcc/riscv64-unknown-elf/10.1.0/../../../../riscv64-unknown-elf/lib/rv32im/ilp32\libc.a(lib_a-strncpy.o)
 .data          0x0000000000000000        0x0 d:/program_files/programming/rt-threadstudio/repo/extract/toolchain_support_packages/risc-v/risc-v-gcc/10.1.0/bin/../lib/gcc/riscv64-unknown-elf/10.1.0/../../../../riscv64-unknown-elf/lib/rv32im/ilp32\libc.a(lib_a-strrchr.o)
 .bss           0x0000000000000000        0x0 d:/program_files/programming/rt-threadstudio/repo/extract/toolchain_support_packages/risc-v/risc-v-gcc/10.1.0/bin/../lib/gcc/riscv64-unknown-elf/10.1.0/../../../../riscv64-unknown-elf/lib/rv32im/ilp32\libc.a(lib_a-strrchr.o)
 .data          0x0000000000000000        0x0 d:/program_files/programming/rt-threadstudio/repo/extract/toolchain_support_packages/risc-v/risc-v-gcc/10.1.0/bin/../lib/gcc/riscv64-unknown-elf/10.1.0/../../../../riscv64-unknown-elf/lib/rv32im/ilp32\libc.a(lib_a-strstr.o)
 .bss           0x0000000000000000        0x0 d:/program_files/programming/rt-threadstudio/repo/extract/toolchain_support_packages/risc-v/risc-v-gcc/10.1.0/bin/../lib/gcc/riscv64-unknown-elf/10.1.0/../../../../riscv64-unknown-elf/lib/rv32im/ilp32\libc.a(lib_a-strstr.o)
 .data          0x0000000000000000        0x0 d:/program_files/programming/rt-threadstudio/repo/extract/toolchain_support_packages/risc-v/risc-v-gcc/10.1.0/bin/../lib/gcc/riscv64-unknown-elf/10.1.0/../../../../riscv64-unknown-elf/lib/rv32im/ilp32\libc.a(lib_a-strtol.o)
 .bss           0x0000000000000000        0x0 d:/program_files/programming/rt-threadstudio/repo/extract/toolchain_support_packages/risc-v/risc-v-gcc/10.1.0/bin/../lib/gcc/riscv64-unknown-elf/10.1.0/../../../../riscv64-unknown-elf/lib/rv32im/ilp32\libc.a(lib_a-strtol.o)
 .data          0x0000000000000000        0x0 d:/program_files/programming/rt-threadstudio/repo/extract/toolchain_support_packages/risc-v/risc-v-gcc/10.1.0/bin/../lib/gcc/riscv64-unknown-elf/10.1.0/../../../../riscv64-unknown-elf/lib/rv32im/ilp32\libc.a(lib_a-svfprintf.o)
 .bss           0x0000000000000000        0x0 d:/program_files/programming/rt-threadstudio/repo/extract/toolchain_support_packages/risc-v/risc-v-gcc/10.1.0/bin/../lib/gcc/riscv64-unknown-elf/10.1.0/../../../../riscv64-unknown-elf/lib/rv32im/ilp32\libc.a(lib_a-svfprintf.o)
 .text          0x0000000000000000        0x0 d:/program_files/programming/rt-threadstudio/repo/extract/toolchain_support_packages/risc-v/risc-v-gcc/10.1.0/bin/../lib/gcc/riscv64-unknown-elf/10.1.0/../../../../riscv64-unknown-elf/lib/rv32im/ilp32\libc.a(lib_a-ctype_.o)
 .data          0x0000000000000000        0x0 d:/program_files/programming/rt-threadstudio/repo/extract/toolchain_support_packages/risc-v/risc-v-gcc/10.1.0/bin/../lib/gcc/riscv64-unknown-elf/10.1.0/../../../../riscv64-unknown-elf/lib/rv32im/ilp32\libc.a(lib_a-ctype_.o)
 .bss           0x0000000000000000        0x0 d:/program_files/programming/rt-threadstudio/repo/extract/toolchain_support_packages/risc-v/risc-v-gcc/10.1.0/bin/../lib/gcc/riscv64-unknown-elf/10.1.0/../../../../riscv64-unknown-elf/lib/rv32im/ilp32\libc.a(lib_a-ctype_.o)
 .text          0x0000000000000000        0x0 d:/program_files/programming/rt-threadstudio/repo/extract/toolchain_support_packages/risc-v/risc-v-gcc/10.1.0/bin/../lib/gcc/riscv64-unknown-elf/10.1.0/../../../../riscv64-unknown-elf/lib/rv32im/ilp32\libc.a(lib_a-environ.o)
 .data          0x0000000000000000        0x0 d:/program_files/programming/rt-threadstudio/repo/extract/toolchain_support_packages/risc-v/risc-v-gcc/10.1.0/bin/../lib/gcc/riscv64-unknown-elf/10.1.0/../../../../riscv64-unknown-elf/lib/rv32im/ilp32\libc.a(lib_a-environ.o)
 .bss           0x0000000000000000        0x0 d:/program_files/programming/rt-threadstudio/repo/extract/toolchain_support_packages/risc-v/risc-v-gcc/10.1.0/bin/../lib/gcc/riscv64-unknown-elf/10.1.0/../../../../riscv64-unknown-elf/lib/rv32im/ilp32\libc.a(lib_a-environ.o)
 .data          0x0000000000000000        0x0 d:/program_files/programming/rt-threadstudio/repo/extract/toolchain_support_packages/risc-v/risc-v-gcc/10.1.0/bin/../lib/gcc/riscv64-unknown-elf/10.1.0/../../../../riscv64-unknown-elf/lib/rv32im/ilp32\libc.a(lib_a-envlock.o)
 .bss           0x0000000000000000        0x0 d:/program_files/programming/rt-threadstudio/repo/extract/toolchain_support_packages/risc-v/risc-v-gcc/10.1.0/bin/../lib/gcc/riscv64-unknown-elf/10.1.0/../../../../riscv64-unknown-elf/lib/rv32im/ilp32\libc.a(lib_a-envlock.o)
 .data          0x0000000000000000        0x0 d:/program_files/programming/rt-threadstudio/repo/extract/toolchain_support_packages/risc-v/risc-v-gcc/10.1.0/bin/../lib/gcc/riscv64-unknown-elf/10.1.0/../../../../riscv64-unknown-elf/lib/rv32im/ilp32\libc.a(lib_a-flags.o)
 .bss           0x0000000000000000        0x0 d:/program_files/programming/rt-threadstudio/repo/extract/toolchain_support_packages/risc-v/risc-v-gcc/10.1.0/bin/../lib/gcc/riscv64-unknown-elf/10.1.0/../../../../riscv64-unknown-elf/lib/rv32im/ilp32\libc.a(lib_a-flags.o)
 .data          0x0000000000000000        0x0 d:/program_files/programming/rt-threadstudio/repo/extract/toolchain_support_packages/risc-v/risc-v-gcc/10.1.0/bin/../lib/gcc/riscv64-unknown-elf/10.1.0/../../../../riscv64-unknown-elf/lib/rv32im/ilp32\libc.a(lib_a-getenv_r.o)
 .bss           0x0000000000000000        0x0 d:/program_files/programming/rt-threadstudio/repo/extract/toolchain_support_packages/risc-v/risc-v-gcc/10.1.0/bin/../lib/gcc/riscv64-unknown-elf/10.1.0/../../../../riscv64-unknown-elf/lib/rv32im/ilp32\libc.a(lib_a-getenv_r.o)
 .data          0x0000000000000000        0x0 d:/program_files/programming/rt-threadstudio/repo/extract/toolchain_support_packages/risc-v/risc-v-gcc/10.1.0/bin/../lib/gcc/riscv64-unknown-elf/10.1.0/../../../../riscv64-unknown-elf/lib/rv32im/ilp32\libc.a(lib_a-ldtoa.o)
 .bss           0x0000000000000000        0x0 d:/program_files/programming/rt-threadstudio/repo/extract/toolchain_support_packages/risc-v/risc-v-gcc/10.1.0/bin/../lib/gcc/riscv64-unknown-elf/10.1.0/../../../../riscv64-unknown-elf/lib/rv32im/ilp32\libc.a(lib_a-ldtoa.o)
 .data          0x0000000000000000        0x0 d:/program_files/programming/rt-threadstudio/repo/extract/toolchain_support_packages/risc-v/risc-v-gcc/10.1.0/bin/../lib/gcc/riscv64-unknown-elf/10.1.0/../../../../riscv64-unknown-elf/lib/rv32im/ilp32\libc.a(lib_a-localeconv.o)
 .bss           0x0000000000000000        0x0 d:/program_files/programming/rt-threadstudio/repo/extract/toolchain_support_packages/risc-v/risc-v-gcc/10.1.0/bin/../lib/gcc/riscv64-unknown-elf/10.1.0/../../../../riscv64-unknown-elf/lib/rv32im/ilp32\libc.a(lib_a-localeconv.o)
 .bss           0x0000000000000000        0x0 d:/program_files/programming/rt-threadstudio/repo/extract/toolchain_support_packages/risc-v/risc-v-gcc/10.1.0/bin/../lib/gcc/riscv64-unknown-elf/10.1.0/../../../../riscv64-unknown-elf/lib/rv32im/ilp32\libc.a(lib_a-locale.o)
 .sbss          0x0000000000000000        0x4 d:/program_files/programming/rt-threadstudio/repo/extract/toolchain_support_packages/risc-v/risc-v-gcc/10.1.0/bin/../lib/gcc/riscv64-unknown-elf/10.1.0/../../../../riscv64-unknown-elf/lib/rv32im/ilp32\libc.a(lib_a-locale.o)
 .data          0x0000000000000000        0x0 d:/program_files/programming/rt-threadstudio/repo/extract/toolchain_support_packages/risc-v/risc-v-gcc/10.1.0/bin/../lib/gcc/riscv64-unknown-elf/10.1.0/../../../../riscv64-unknown-elf/lib/rv32im/ilp32\libc.a(lib_a-malloc.o)
 .bss           0x0000000000000000        0x0 d:/program_files/programming/rt-threadstudio/repo/extract/toolchain_support_packages/risc-v/risc-v-gcc/10.1.0/bin/../lib/gcc/riscv64-unknown-elf/10.1.0/../../../../riscv64-unknown-elf/lib/rv32im/ilp32\libc.a(lib_a-malloc.o)
 .data          0x0000000000000000        0x0 d:/program_files/programming/rt-threadstudio/repo/extract/toolchain_support_packages/risc-v/risc-v-gcc/10.1.0/bin/../lib/gcc/riscv64-unknown-elf/10.1.0/../../../../riscv64-unknown-elf/lib/rv32im/ilp32\libc.a(lib_a-mbtowc_r.o)
 .bss           0x0000000000000000        0x0 d:/program_files/programming/rt-threadstudio/repo/extract/toolchain_support_packages/risc-v/risc-v-gcc/10.1.0/bin/../lib/gcc/riscv64-unknown-elf/10.1.0/../../../../riscv64-unknown-elf/lib/rv32im/ilp32\libc.a(lib_a-mbtowc_r.o)
 .data          0x0000000000000000        0x0 d:/program_files/programming/rt-threadstudio/repo/extract/toolchain_support_packages/risc-v/risc-v-gcc/10.1.0/bin/../lib/gcc/riscv64-unknown-elf/10.1.0/../../../../riscv64-unknown-elf/lib/rv32im/ilp32\libc.a(lib_a-memchr.o)
 .bss           0x0000000000000000        0x0 d:/program_files/programming/rt-threadstudio/repo/extract/toolchain_support_packages/risc-v/risc-v-gcc/10.1.0/bin/../lib/gcc/riscv64-unknown-elf/10.1.0/../../../../riscv64-unknown-elf/lib/rv32im/ilp32\libc.a(lib_a-memchr.o)
 .data          0x0000000000000000        0x0 d:/program_files/programming/rt-threadstudio/repo/extract/toolchain_support_packages/risc-v/risc-v-gcc/10.1.0/bin/../lib/gcc/riscv64-unknown-elf/10.1.0/../../../../riscv64-unknown-elf/lib/rv32im/ilp32\libc.a(lib_a-mprec.o)
 .bss           0x0000000000000000        0x0 d:/program_files/programming/rt-threadstudio/repo/extract/toolchain_support_packages/risc-v/risc-v-gcc/10.1.0/bin/../lib/gcc/riscv64-unknown-elf/10.1.0/../../../../riscv64-unknown-elf/lib/rv32im/ilp32\libc.a(lib_a-mprec.o)
 .data          0x0000000000000000        0x0 d:/program_files/programming/rt-threadstudio/repo/extract/toolchain_support_packages/risc-v/risc-v-gcc/10.1.0/bin/../lib/gcc/riscv64-unknown-elf/10.1.0/../../../../riscv64-unknown-elf/lib/rv32im/ilp32\libc.a(lib_a-s_frexp.o)
 .bss           0x0000000000000000        0x0 d:/program_files/programming/rt-threadstudio/repo/extract/toolchain_support_packages/risc-v/risc-v-gcc/10.1.0/bin/../lib/gcc/riscv64-unknown-elf/10.1.0/../../../../riscv64-unknown-elf/lib/rv32im/ilp32\libc.a(lib_a-s_frexp.o)
 .data          0x0000000000000000        0x0 d:/program_files/programming/rt-threadstudio/repo/extract/toolchain_support_packages/risc-v/risc-v-gcc/10.1.0/bin/../lib/gcc/riscv64-unknown-elf/10.1.0/../../../../riscv64-unknown-elf/lib/rv32im/ilp32\libc.a(lib_a-sprintf.o)
 .bss           0x0000000000000000        0x0 d:/program_files/programming/rt-threadstudio/repo/extract/toolchain_support_packages/risc-v/risc-v-gcc/10.1.0/bin/../lib/gcc/riscv64-unknown-elf/10.1.0/../../../../riscv64-unknown-elf/lib/rv32im/ilp32\libc.a(lib_a-sprintf.o)
 .data          0x0000000000000000        0x0 d:/program_files/programming/rt-threadstudio/repo/extract/toolchain_support_packages/risc-v/risc-v-gcc/10.1.0/bin/../lib/gcc/riscv64-unknown-elf/10.1.0/../../../../riscv64-unknown-elf/lib/rv32im/ilp32\libc.a(lib_a-strnlen.o)
 .bss           0x0000000000000000        0x0 d:/program_files/programming/rt-threadstudio/repo/extract/toolchain_support_packages/risc-v/risc-v-gcc/10.1.0/bin/../lib/gcc/riscv64-unknown-elf/10.1.0/../../../../riscv64-unknown-elf/lib/rv32im/ilp32\libc.a(lib_a-strnlen.o)
 .data          0x0000000000000000        0x0 d:/program_files/programming/rt-threadstudio/repo/extract/toolchain_support_packages/risc-v/risc-v-gcc/10.1.0/bin/../lib/gcc/riscv64-unknown-elf/10.1.0/../../../../riscv64-unknown-elf/lib/rv32im/ilp32\libc.a(lib_a-svfiprintf.o)
 .bss           0x0000000000000000        0x0 d:/program_files/programming/rt-threadstudio/repo/extract/toolchain_support_packages/risc-v/risc-v-gcc/10.1.0/bin/../lib/gcc/riscv64-unknown-elf/10.1.0/../../../../riscv64-unknown-elf/lib/rv32im/ilp32\libc.a(lib_a-svfiprintf.o)
 .data          0x0000000000000000        0x0 d:/program_files/programming/rt-threadstudio/repo/extract/toolchain_support_packages/risc-v/risc-v-gcc/10.1.0/bin/../lib/gcc/riscv64-unknown-elf/10.1.0/../../../../riscv64-unknown-elf/lib/rv32im/ilp32\libc.a(lib_a-wctomb_r.o)
 .bss           0x0000000000000000        0x0 d:/program_files/programming/rt-threadstudio/repo/extract/toolchain_support_packages/risc-v/risc-v-gcc/10.1.0/bin/../lib/gcc/riscv64-unknown-elf/10.1.0/../../../../riscv64-unknown-elf/lib/rv32im/ilp32\libc.a(lib_a-wctomb_r.o)
 .data          0x0000000000000000        0x0 d:/program_files/programming/rt-threadstudio/repo/extract/toolchain_support_packages/risc-v/risc-v-gcc/10.1.0/bin/../lib/gcc/riscv64-unknown-elf/10.1.0/../../../../riscv64-unknown-elf/lib/rv32im/ilp32\libc.a(lib_a-assert.o)
 .bss           0x0000000000000000        0x0 d:/program_files/programming/rt-threadstudio/repo/extract/toolchain_support_packages/risc-v/risc-v-gcc/10.1.0/bin/../lib/gcc/riscv64-unknown-elf/10.1.0/../../../../riscv64-unknown-elf/lib/rv32im/ilp32\libc.a(lib_a-assert.o)
 .data          0x0000000000000000        0x0 d:/program_files/programming/rt-threadstudio/repo/extract/toolchain_support_packages/risc-v/risc-v-gcc/10.1.0/bin/../lib/gcc/riscv64-unknown-elf/10.1.0/../../../../riscv64-unknown-elf/lib/rv32im/ilp32\libc.a(lib_a-fiprintf.o)
 .bss           0x0000000000000000        0x0 d:/program_files/programming/rt-threadstudio/repo/extract/toolchain_support_packages/risc-v/risc-v-gcc/10.1.0/bin/../lib/gcc/riscv64-unknown-elf/10.1.0/../../../../riscv64-unknown-elf/lib/rv32im/ilp32\libc.a(lib_a-fiprintf.o)
 .data          0x0000000000000000        0x0 d:/program_files/programming/rt-threadstudio/repo/extract/toolchain_support_packages/risc-v/risc-v-gcc/10.1.0/bin/../lib/gcc/riscv64-unknown-elf/10.1.0/../../../../riscv64-unknown-elf/lib/rv32im/ilp32\libc.a(lib_a-memmove-stub.o)
 .bss           0x0000000000000000        0x0 d:/program_files/programming/rt-threadstudio/repo/extract/toolchain_support_packages/risc-v/risc-v-gcc/10.1.0/bin/../lib/gcc/riscv64-unknown-elf/10.1.0/../../../../riscv64-unknown-elf/lib/rv32im/ilp32\libc.a(lib_a-memmove-stub.o)
 .data          0x0000000000000000        0x0 d:/program_files/programming/rt-threadstudio/repo/extract/toolchain_support_packages/risc-v/risc-v-gcc/10.1.0/bin/../lib/gcc/riscv64-unknown-elf/10.1.0/../../../../riscv64-unknown-elf/lib/rv32im/ilp32\libc.a(lib_a-vfiprintf.o)
 .bss           0x0000000000000000        0x0 d:/program_files/programming/rt-threadstudio/repo/extract/toolchain_support_packages/risc-v/risc-v-gcc/10.1.0/bin/../lib/gcc/riscv64-unknown-elf/10.1.0/../../../../riscv64-unknown-elf/lib/rv32im/ilp32\libc.a(lib_a-vfiprintf.o)
 .data          0x0000000000000000        0x0 d:/program_files/programming/rt-threadstudio/repo/extract/toolchain_support_packages/risc-v/risc-v-gcc/10.1.0/bin/../lib/gcc/riscv64-unknown-elf/10.1.0/../../../../riscv64-unknown-elf/lib/rv32im/ilp32\libc.a(lib_a-wsetup.o)
 .bss           0x0000000000000000        0x0 d:/program_files/programming/rt-threadstudio/repo/extract/toolchain_support_packages/risc-v/risc-v-gcc/10.1.0/bin/../lib/gcc/riscv64-unknown-elf/10.1.0/../../../../riscv64-unknown-elf/lib/rv32im/ilp32\libc.a(lib_a-wsetup.o)
 .data          0x0000000000000000        0x0 d:/program_files/programming/rt-threadstudio/repo/extract/toolchain_support_packages/risc-v/risc-v-gcc/10.1.0/bin/../lib/gcc/riscv64-unknown-elf/10.1.0/../../../../riscv64-unknown-elf/lib/rv32im/ilp32\libc.a(lib_a-abort.o)
 .bss           0x0000000000000000        0x0 d:/program_files/programming/rt-threadstudio/repo/extract/toolchain_support_packages/risc-v/risc-v-gcc/10.1.0/bin/../lib/gcc/riscv64-unknown-elf/10.1.0/../../../../riscv64-unknown-elf/lib/rv32im/ilp32\libc.a(lib_a-abort.o)
 .data          0x0000000000000000        0x0 d:/program_files/programming/rt-threadstudio/repo/extract/toolchain_support_packages/risc-v/risc-v-gcc/10.1.0/bin/../lib/gcc/riscv64-unknown-elf/10.1.0/../../../../riscv64-unknown-elf/lib/rv32im/ilp32\libc.a(lib_a-fputwc.o)
 .bss           0x0000000000000000        0x0 d:/program_files/programming/rt-threadstudio/repo/extract/toolchain_support_packages/risc-v/risc-v-gcc/10.1.0/bin/../lib/gcc/riscv64-unknown-elf/10.1.0/../../../../riscv64-unknown-elf/lib/rv32im/ilp32\libc.a(lib_a-fputwc.o)
 .data          0x0000000000000000        0x0 d:/program_files/programming/rt-threadstudio/repo/extract/toolchain_support_packages/risc-v/risc-v-gcc/10.1.0/bin/../lib/gcc/riscv64-unknown-elf/10.1.0/../../../../riscv64-unknown-elf/lib/rv32im/ilp32\libc.a(lib_a-fvwrite.o)
 .bss           0x0000000000000000        0x0 d:/program_files/programming/rt-threadstudio/repo/extract/toolchain_support_packages/risc-v/risc-v-gcc/10.1.0/bin/../lib/gcc/riscv64-unknown-elf/10.1.0/../../../../riscv64-unknown-elf/lib/rv32im/ilp32\libc.a(lib_a-fvwrite.o)
 .data          0x0000000000000000        0x0 d:/program_files/programming/rt-threadstudio/repo/extract/toolchain_support_packages/risc-v/risc-v-gcc/10.1.0/bin/../lib/gcc/riscv64-unknown-elf/10.1.0/../../../../riscv64-unknown-elf/lib/rv32im/ilp32\libc.a(lib_a-signal.o)
 .bss           0x0000000000000000        0x0 d:/program_files/programming/rt-threadstudio/repo/extract/toolchain_support_packages/risc-v/risc-v-gcc/10.1.0/bin/../lib/gcc/riscv64-unknown-elf/10.1.0/../../../../riscv64-unknown-elf/lib/rv32im/ilp32\libc.a(lib_a-signal.o)
 .data          0x0000000000000000        0x0 d:/program_files/programming/rt-threadstudio/repo/extract/toolchain_support_packages/risc-v/risc-v-gcc/10.1.0/bin/../lib/gcc/riscv64-unknown-elf/10.1.0/../../../../riscv64-unknown-elf/lib/rv32im/ilp32\libc.a(lib_a-wbuf.o)
 .bss           0x0000000000000000        0x0 d:/program_files/programming/rt-threadstudio/repo/extract/toolchain_support_packages/risc-v/risc-v-gcc/10.1.0/bin/../lib/gcc/riscv64-unknown-elf/10.1.0/../../../../riscv64-unknown-elf/lib/rv32im/ilp32\libc.a(lib_a-wbuf.o)
 .data          0x0000000000000000        0x0 d:/program_files/programming/rt-threadstudio/repo/extract/toolchain_support_packages/risc-v/risc-v-gcc/10.1.0/bin/../lib/gcc/riscv64-unknown-elf/10.1.0/../../../../riscv64-unknown-elf/lib/rv32im/ilp32\libc.a(lib_a-wcrtomb.o)
 .bss           0x0000000000000000        0x0 d:/program_files/programming/rt-threadstudio/repo/extract/toolchain_support_packages/risc-v/risc-v-gcc/10.1.0/bin/../lib/gcc/riscv64-unknown-elf/10.1.0/../../../../riscv64-unknown-elf/lib/rv32im/ilp32\libc.a(lib_a-wcrtomb.o)
 .text          0x0000000000000000        0x0 libraries\hal_libraries\ab32vg1_hal\libhal.a(cache.o)
 .data          0x0000000000000000        0x0 libraries\hal_libraries\ab32vg1_hal\libhal.a(cache.o)
 .bss           0x0000000000000000        0x0 libraries\hal_libraries\ab32vg1_hal\libhal.a(cache.o)
 .text          0x0000000000000000        0x0 libraries\hal_libraries\ab32vg1_hal\libhal.a(s_cache.o)
 .data          0x0000000000000000        0x0 libraries\hal_libraries\ab32vg1_hal\libhal.a(s_cache.o)
 .bss           0x0000000000000000        0x0 libraries\hal_libraries\ab32vg1_hal\libhal.a(s_cache.o)
 .text          0x0000000000000000        0x0 libraries\hal_libraries\ab32vg1_hal\libhal.a(spiflash.o)
 .data          0x0000000000000000        0x0 libraries\hal_libraries\ab32vg1_hal\libhal.a(spiflash.o)
 .bss           0x0000000000000000        0x0 libraries\hal_libraries\ab32vg1_hal\libhal.a(spiflash.o)
 .text          0x0000000000000000        0x0 libraries\hal_libraries\ab32vg1_hal\libhal.a(ab32vg1_hal_adc.o)
 .data          0x0000000000000000        0x0 libraries\hal_libraries\ab32vg1_hal\libhal.a(ab32vg1_hal_adc.o)
 .bss           0x0000000000000000        0x0 libraries\hal_libraries\ab32vg1_hal\libhal.a(ab32vg1_hal_adc.o)
 .text          0x0000000000000000        0x0 libraries\hal_libraries\ab32vg1_hal\libhal.a(debug.o)
 .data          0x0000000000000000        0x0 libraries\hal_libraries\ab32vg1_hal\libhal.a(debug.o)
 .bss           0x0000000000000000        0x0 libraries\hal_libraries\ab32vg1_hal\libhal.a(debug.o)
 .text.set_dump
                0x0000000000000000       0x26 libraries\hal_libraries\ab32vg1_hal\libhal.a(debug.o)
 .text.debug_set
                0x0000000000000000       0x22 libraries\hal_libraries\ab32vg1_hal\libhal.a(debug.o)
 COMMON         0x0000000000000000        0x8 libraries\hal_libraries\ab32vg1_hal\libhal.a(debug.o)
 .text          0x0000000000000000        0x0 libraries\hal_libraries\ab32vg1_hal\libhal.a(platform.o)
 .data          0x0000000000000000        0x0 libraries\hal_libraries\ab32vg1_hal\libhal.a(platform.o)
 .bss           0x0000000000000000        0x0 libraries\hal_libraries\ab32vg1_hal\libhal.a(platform.o)
 .text          0x0000000000000000        0x0 libraries\hal_libraries\ab32vg1_hal\libhal.a(rom_fun.o)
 .data          0x0000000000000000        0x0 libraries\hal_libraries\ab32vg1_hal\libhal.a(rom_fun.o)
 .bss           0x0000000000000000        0x0 libraries\hal_libraries\ab32vg1_hal\libhal.a(rom_fun.o)
 .text          0x0000000000000000        0x0 libraries\hal_libraries\ab32vg1_hal\libhal.a(save-restore.o)
 .data          0x0000000000000000        0x0 libraries\hal_libraries\ab32vg1_hal\libhal.a(save-restore.o)
 .bss           0x0000000000000000        0x0 libraries\hal_libraries\ab32vg1_hal\libhal.a(save-restore.o)
 .text          0x0000000000000000      0x480 d:/program_files/programming/rt-threadstudio/repo/extract/toolchain_support_packages/risc-v/risc-v-gcc/10.1.0/bin/../lib/gcc/riscv64-unknown-elf/10.1.0/rv32im/ilp32\libgcc.a(_divdi3.o)
 .data          0x0000000000000000        0x0 d:/program_files/programming/rt-threadstudio/repo/extract/toolchain_support_packages/risc-v/risc-v-gcc/10.1.0/bin/../lib/gcc/riscv64-unknown-elf/10.1.0/rv32im/ilp32\libgcc.a(_divdi3.o)
 .bss           0x0000000000000000        0x0 d:/program_files/programming/rt-threadstudio/repo/extract/toolchain_support_packages/risc-v/risc-v-gcc/10.1.0/bin/../lib/gcc/riscv64-unknown-elf/10.1.0/rv32im/ilp32\libgcc.a(_divdi3.o)
 .debug_info    0x0000000000000000      0x7e8 d:/program_files/programming/rt-threadstudio/repo/extract/toolchain_support_packages/risc-v/risc-v-gcc/10.1.0/bin/../lib/gcc/riscv64-unknown-elf/10.1.0/rv32im/ilp32\libgcc.a(_divdi3.o)
 .debug_abbrev  0x0000000000000000      0x1b5 d:/program_files/programming/rt-threadstudio/repo/extract/toolchain_support_packages/risc-v/risc-v-gcc/10.1.0/bin/../lib/gcc/riscv64-unknown-elf/10.1.0/rv32im/ilp32\libgcc.a(_divdi3.o)
 .debug_loc     0x0000000000000000      0x9fa d:/program_files/programming/rt-threadstudio/repo/extract/toolchain_support_packages/risc-v/risc-v-gcc/10.1.0/bin/../lib/gcc/riscv64-unknown-elf/10.1.0/rv32im/ilp32\libgcc.a(_divdi3.o)
 .debug_aranges
                0x0000000000000000       0x20 d:/program_files/programming/rt-threadstudio/repo/extract/toolchain_support_packages/risc-v/risc-v-gcc/10.1.0/bin/../lib/gcc/riscv64-unknown-elf/10.1.0/rv32im/ilp32\libgcc.a(_divdi3.o)
 .debug_ranges  0x0000000000000000       0xf8 d:/program_files/programming/rt-threadstudio/repo/extract/toolchain_support_packages/risc-v/risc-v-gcc/10.1.0/bin/../lib/gcc/riscv64-unknown-elf/10.1.0/rv32im/ilp32\libgcc.a(_divdi3.o)
 .debug_line    0x0000000000000000      0x81b d:/program_files/programming/rt-threadstudio/repo/extract/toolchain_support_packages/risc-v/risc-v-gcc/10.1.0/bin/../lib/gcc/riscv64-unknown-elf/10.1.0/rv32im/ilp32\libgcc.a(_divdi3.o)
 .debug_str     0x0000000000000000      0x2e5 d:/program_files/programming/rt-threadstudio/repo/extract/toolchain_support_packages/risc-v/risc-v-gcc/10.1.0/bin/../lib/gcc/riscv64-unknown-elf/10.1.0/rv32im/ilp32\libgcc.a(_divdi3.o)
 .comment       0x0000000000000000       0x13 d:/program_files/programming/rt-threadstudio/repo/extract/toolchain_support_packages/risc-v/risc-v-gcc/10.1.0/bin/../lib/gcc/riscv64-unknown-elf/10.1.0/rv32im/ilp32\libgcc.a(_divdi3.o)
 .eh_frame      0x0000000000000000       0x28 d:/program_files/programming/rt-threadstudio/repo/extract/toolchain_support_packages/risc-v/risc-v-gcc/10.1.0/bin/../lib/gcc/riscv64-unknown-elf/10.1.0/rv32im/ilp32\libgcc.a(_divdi3.o)
 .riscv.attributes
                0x0000000000000000       0x21 d:/program_files/programming/rt-threadstudio/repo/extract/toolchain_support_packages/risc-v/risc-v-gcc/10.1.0/bin/../lib/gcc/riscv64-unknown-elf/10.1.0/rv32im/ilp32\libgcc.a(_divdi3.o)
 .data          0x0000000000000000        0x0 d:/program_files/programming/rt-threadstudio/repo/extract/toolchain_support_packages/risc-v/risc-v-gcc/10.1.0/bin/../lib/gcc/riscv64-unknown-elf/10.1.0/rv32im/ilp32\libgcc.a(_udivdi3.o)
 .bss           0x0000000000000000        0x0 d:/program_files/programming/rt-threadstudio/repo/extract/toolchain_support_packages/risc-v/risc-v-gcc/10.1.0/bin/../lib/gcc/riscv64-unknown-elf/10.1.0/rv32im/ilp32\libgcc.a(_udivdi3.o)
 .eh_frame      0x0000000000000000       0x28 d:/program_files/programming/rt-threadstudio/repo/extract/toolchain_support_packages/risc-v/risc-v-gcc/10.1.0/bin/../lib/gcc/riscv64-unknown-elf/10.1.0/rv32im/ilp32\libgcc.a(_udivdi3.o)
 .data          0x0000000000000000        0x0 d:/program_files/programming/rt-threadstudio/repo/extract/toolchain_support_packages/risc-v/risc-v-gcc/10.1.0/bin/../lib/gcc/riscv64-unknown-elf/10.1.0/rv32im/ilp32\libgcc.a(_umoddi3.o)
 .bss           0x0000000000000000        0x0 d:/program_files/programming/rt-threadstudio/repo/extract/toolchain_support_packages/risc-v/risc-v-gcc/10.1.0/bin/../lib/gcc/riscv64-unknown-elf/10.1.0/rv32im/ilp32\libgcc.a(_umoddi3.o)
 .eh_frame      0x0000000000000000       0x28 d:/program_files/programming/rt-threadstudio/repo/extract/toolchain_support_packages/risc-v/risc-v-gcc/10.1.0/bin/../lib/gcc/riscv64-unknown-elf/10.1.0/rv32im/ilp32\libgcc.a(_umoddi3.o)
 .data          0x0000000000000000        0x0 d:/program_files/programming/rt-threadstudio/repo/extract/toolchain_support_packages/risc-v/risc-v-gcc/10.1.0/bin/../lib/gcc/riscv64-unknown-elf/10.1.0/rv32im/ilp32\libgcc.a(divdf3.o)
 .bss           0x0000000000000000        0x0 d:/program_files/programming/rt-threadstudio/repo/extract/toolchain_support_packages/risc-v/risc-v-gcc/10.1.0/bin/../lib/gcc/riscv64-unknown-elf/10.1.0/rv32im/ilp32\libgcc.a(divdf3.o)
 .data          0x0000000000000000        0x0 d:/program_files/programming/rt-threadstudio/repo/extract/toolchain_support_packages/risc-v/risc-v-gcc/10.1.0/bin/../lib/gcc/riscv64-unknown-elf/10.1.0/rv32im/ilp32\libgcc.a(muldf3.o)
 .bss           0x0000000000000000        0x0 d:/program_files/programming/rt-threadstudio/repo/extract/toolchain_support_packages/risc-v/risc-v-gcc/10.1.0/bin/../lib/gcc/riscv64-unknown-elf/10.1.0/rv32im/ilp32\libgcc.a(muldf3.o)
 .data          0x0000000000000000        0x0 d:/program_files/programming/rt-threadstudio/repo/extract/toolchain_support_packages/risc-v/risc-v-gcc/10.1.0/bin/../lib/gcc/riscv64-unknown-elf/10.1.0/rv32im/ilp32\libgcc.a(fixdfsi.o)
 .bss           0x0000000000000000        0x0 d:/program_files/programming/rt-threadstudio/repo/extract/toolchain_support_packages/risc-v/risc-v-gcc/10.1.0/bin/../lib/gcc/riscv64-unknown-elf/10.1.0/rv32im/ilp32\libgcc.a(fixdfsi.o)
 .data          0x0000000000000000        0x0 d:/program_files/programming/rt-threadstudio/repo/extract/toolchain_support_packages/risc-v/risc-v-gcc/10.1.0/bin/../lib/gcc/riscv64-unknown-elf/10.1.0/rv32im/ilp32\libgcc.a(floatunsidf.o)
 .bss           0x0000000000000000        0x0 d:/program_files/programming/rt-threadstudio/repo/extract/toolchain_support_packages/risc-v/risc-v-gcc/10.1.0/bin/../lib/gcc/riscv64-unknown-elf/10.1.0/rv32im/ilp32\libgcc.a(floatunsidf.o)
 .data          0x0000000000000000        0x0 d:/program_files/programming/rt-threadstudio/repo/extract/toolchain_support_packages/risc-v/risc-v-gcc/10.1.0/bin/../lib/gcc/riscv64-unknown-elf/10.1.0/rv32im/ilp32\libgcc.a(eqtf2.o)
 .bss           0x0000000000000000        0x0 d:/program_files/programming/rt-threadstudio/repo/extract/toolchain_support_packages/risc-v/risc-v-gcc/10.1.0/bin/../lib/gcc/riscv64-unknown-elf/10.1.0/rv32im/ilp32\libgcc.a(eqtf2.o)
 .data          0x0000000000000000        0x0 d:/program_files/programming/rt-threadstudio/repo/extract/toolchain_support_packages/risc-v/risc-v-gcc/10.1.0/bin/../lib/gcc/riscv64-unknown-elf/10.1.0/rv32im/ilp32\libgcc.a(getf2.o)
 .bss           0x0000000000000000        0x0 d:/program_files/programming/rt-threadstudio/repo/extract/toolchain_support_packages/risc-v/risc-v-gcc/10.1.0/bin/../lib/gcc/riscv64-unknown-elf/10.1.0/rv32im/ilp32\libgcc.a(getf2.o)
 .data          0x0000000000000000        0x0 d:/program_files/programming/rt-threadstudio/repo/extract/toolchain_support_packages/risc-v/risc-v-gcc/10.1.0/bin/../lib/gcc/riscv64-unknown-elf/10.1.0/rv32im/ilp32\libgcc.a(letf2.o)
 .bss           0x0000000000000000        0x0 d:/program_files/programming/rt-threadstudio/repo/extract/toolchain_support_packages/risc-v/risc-v-gcc/10.1.0/bin/../lib/gcc/riscv64-unknown-elf/10.1.0/rv32im/ilp32\libgcc.a(letf2.o)
 .data          0x0000000000000000        0x0 d:/program_files/programming/rt-threadstudio/repo/extract/toolchain_support_packages/risc-v/risc-v-gcc/10.1.0/bin/../lib/gcc/riscv64-unknown-elf/10.1.0/rv32im/ilp32\libgcc.a(multf3.o)
 .bss           0x0000000000000000        0x0 d:/program_files/programming/rt-threadstudio/repo/extract/toolchain_support_packages/risc-v/risc-v-gcc/10.1.0/bin/../lib/gcc/riscv64-unknown-elf/10.1.0/rv32im/ilp32\libgcc.a(multf3.o)
 .data          0x0000000000000000        0x0 d:/program_files/programming/rt-threadstudio/repo/extract/toolchain_support_packages/risc-v/risc-v-gcc/10.1.0/bin/../lib/gcc/riscv64-unknown-elf/10.1.0/rv32im/ilp32\libgcc.a(subtf3.o)
 .bss           0x0000000000000000        0x0 d:/program_files/programming/rt-threadstudio/repo/extract/toolchain_support_packages/risc-v/risc-v-gcc/10.1.0/bin/../lib/gcc/riscv64-unknown-elf/10.1.0/rv32im/ilp32\libgcc.a(subtf3.o)
 .data          0x0000000000000000        0x0 d:/program_files/programming/rt-threadstudio/repo/extract/toolchain_support_packages/risc-v/risc-v-gcc/10.1.0/bin/../lib/gcc/riscv64-unknown-elf/10.1.0/rv32im/ilp32\libgcc.a(fixtfsi.o)
 .bss           0x0000000000000000        0x0 d:/program_files/programming/rt-threadstudio/repo/extract/toolchain_support_packages/risc-v/risc-v-gcc/10.1.0/bin/../lib/gcc/riscv64-unknown-elf/10.1.0/rv32im/ilp32\libgcc.a(fixtfsi.o)
 .data          0x0000000000000000        0x0 d:/program_files/programming/rt-threadstudio/repo/extract/toolchain_support_packages/risc-v/risc-v-gcc/10.1.0/bin/../lib/gcc/riscv64-unknown-elf/10.1.0/rv32im/ilp32\libgcc.a(floatsitf.o)
 .bss           0x0000000000000000        0x0 d:/program_files/programming/rt-threadstudio/repo/extract/toolchain_support_packages/risc-v/risc-v-gcc/10.1.0/bin/../lib/gcc/riscv64-unknown-elf/10.1.0/rv32im/ilp32\libgcc.a(floatsitf.o)
 .data          0x0000000000000000        0x0 d:/program_files/programming/rt-threadstudio/repo/extract/toolchain_support_packages/risc-v/risc-v-gcc/10.1.0/bin/../lib/gcc/riscv64-unknown-elf/10.1.0/rv32im/ilp32\libgcc.a(addsf3.o)
 .bss           0x0000000000000000        0x0 d:/program_files/programming/rt-threadstudio/repo/extract/toolchain_support_packages/risc-v/risc-v-gcc/10.1.0/bin/../lib/gcc/riscv64-unknown-elf/10.1.0/rv32im/ilp32\libgcc.a(addsf3.o)
 .data          0x0000000000000000        0x0 d:/program_files/programming/rt-threadstudio/repo/extract/toolchain_support_packages/risc-v/risc-v-gcc/10.1.0/bin/../lib/gcc/riscv64-unknown-elf/10.1.0/rv32im/ilp32\libgcc.a(divsf3.o)
 .bss           0x0000000000000000        0x0 d:/program_files/programming/rt-threadstudio/repo/extract/toolchain_support_packages/risc-v/risc-v-gcc/10.1.0/bin/../lib/gcc/riscv64-unknown-elf/10.1.0/rv32im/ilp32\libgcc.a(divsf3.o)
 .data          0x0000000000000000        0x0 d:/program_files/programming/rt-threadstudio/repo/extract/toolchain_support_packages/risc-v/risc-v-gcc/10.1.0/bin/../lib/gcc/riscv64-unknown-elf/10.1.0/rv32im/ilp32\libgcc.a(eqsf2.o)
 .bss           0x0000000000000000        0x0 d:/program_files/programming/rt-threadstudio/repo/extract/toolchain_support_packages/risc-v/risc-v-gcc/10.1.0/bin/../lib/gcc/riscv64-unknown-elf/10.1.0/rv32im/ilp32\libgcc.a(eqsf2.o)
 .data          0x0000000000000000        0x0 d:/program_files/programming/rt-threadstudio/repo/extract/toolchain_support_packages/risc-v/risc-v-gcc/10.1.0/bin/../lib/gcc/riscv64-unknown-elf/10.1.0/rv32im/ilp32\libgcc.a(gesf2.o)
 .bss           0x0000000000000000        0x0 d:/program_files/programming/rt-threadstudio/repo/extract/toolchain_support_packages/risc-v/risc-v-gcc/10.1.0/bin/../lib/gcc/riscv64-unknown-elf/10.1.0/rv32im/ilp32\libgcc.a(gesf2.o)
 .data          0x0000000000000000        0x0 d:/program_files/programming/rt-threadstudio/repo/extract/toolchain_support_packages/risc-v/risc-v-gcc/10.1.0/bin/../lib/gcc/riscv64-unknown-elf/10.1.0/rv32im/ilp32\libgcc.a(lesf2.o)
 .bss           0x0000000000000000        0x0 d:/program_files/programming/rt-threadstudio/repo/extract/toolchain_support_packages/risc-v/risc-v-gcc/10.1.0/bin/../lib/gcc/riscv64-unknown-elf/10.1.0/rv32im/ilp32\libgcc.a(lesf2.o)
 .data          0x0000000000000000        0x0 d:/program_files/programming/rt-threadstudio/repo/extract/toolchain_support_packages/risc-v/risc-v-gcc/10.1.0/bin/../lib/gcc/riscv64-unknown-elf/10.1.0/rv32im/ilp32\libgcc.a(mulsf3.o)
 .bss           0x0000000000000000        0x0 d:/program_files/programming/rt-threadstudio/repo/extract/toolchain_support_packages/risc-v/risc-v-gcc/10.1.0/bin/../lib/gcc/riscv64-unknown-elf/10.1.0/rv32im/ilp32\libgcc.a(mulsf3.o)
 .data          0x0000000000000000        0x0 d:/program_files/programming/rt-threadstudio/repo/extract/toolchain_support_packages/risc-v/risc-v-gcc/10.1.0/bin/../lib/gcc/riscv64-unknown-elf/10.1.0/rv32im/ilp32\libgcc.a(subsf3.o)
 .bss           0x0000000000000000        0x0 d:/program_files/programming/rt-threadstudio/repo/extract/toolchain_support_packages/risc-v/risc-v-gcc/10.1.0/bin/../lib/gcc/riscv64-unknown-elf/10.1.0/rv32im/ilp32\libgcc.a(subsf3.o)
 .data          0x0000000000000000        0x0 d:/program_files/programming/rt-threadstudio/repo/extract/toolchain_support_packages/risc-v/risc-v-gcc/10.1.0/bin/../lib/gcc/riscv64-unknown-elf/10.1.0/rv32im/ilp32\libgcc.a(fixsfsi.o)
 .bss           0x0000000000000000        0x0 d:/program_files/programming/rt-threadstudio/repo/extract/toolchain_support_packages/risc-v/risc-v-gcc/10.1.0/bin/../lib/gcc/riscv64-unknown-elf/10.1.0/rv32im/ilp32\libgcc.a(fixsfsi.o)
 .data          0x0000000000000000        0x0 d:/program_files/programming/rt-threadstudio/repo/extract/toolchain_support_packages/risc-v/risc-v-gcc/10.1.0/bin/../lib/gcc/riscv64-unknown-elf/10.1.0/rv32im/ilp32\libgcc.a(fixunssfsi.o)
 .bss           0x0000000000000000        0x0 d:/program_files/programming/rt-threadstudio/repo/extract/toolchain_support_packages/risc-v/risc-v-gcc/10.1.0/bin/../lib/gcc/riscv64-unknown-elf/10.1.0/rv32im/ilp32\libgcc.a(fixunssfsi.o)
 .data          0x0000000000000000        0x0 d:/program_files/programming/rt-threadstudio/repo/extract/toolchain_support_packages/risc-v/risc-v-gcc/10.1.0/bin/../lib/gcc/riscv64-unknown-elf/10.1.0/rv32im/ilp32\libgcc.a(floatsisf.o)
 .bss           0x0000000000000000        0x0 d:/program_files/programming/rt-threadstudio/repo/extract/toolchain_support_packages/risc-v/risc-v-gcc/10.1.0/bin/../lib/gcc/riscv64-unknown-elf/10.1.0/rv32im/ilp32\libgcc.a(floatsisf.o)
 .data          0x0000000000000000        0x0 d:/program_files/programming/rt-threadstudio/repo/extract/toolchain_support_packages/risc-v/risc-v-gcc/10.1.0/bin/../lib/gcc/riscv64-unknown-elf/10.1.0/rv32im/ilp32\libgcc.a(floatunsisf.o)
 .bss           0x0000000000000000        0x0 d:/program_files/programming/rt-threadstudio/repo/extract/toolchain_support_packages/risc-v/risc-v-gcc/10.1.0/bin/../lib/gcc/riscv64-unknown-elf/10.1.0/rv32im/ilp32\libgcc.a(floatunsisf.o)
 .data          0x0000000000000000        0x0 d:/program_files/programming/rt-threadstudio/repo/extract/toolchain_support_packages/risc-v/risc-v-gcc/10.1.0/bin/../lib/gcc/riscv64-unknown-elf/10.1.0/rv32im/ilp32\libgcc.a(extenddftf2.o)
 .bss           0x0000000000000000        0x0 d:/program_files/programming/rt-threadstudio/repo/extract/toolchain_support_packages/risc-v/risc-v-gcc/10.1.0/bin/../lib/gcc/riscv64-unknown-elf/10.1.0/rv32im/ilp32\libgcc.a(extenddftf2.o)
 .data          0x0000000000000000        0x0 d:/program_files/programming/rt-threadstudio/repo/extract/toolchain_support_packages/risc-v/risc-v-gcc/10.1.0/bin/../lib/gcc/riscv64-unknown-elf/10.1.0/rv32im/ilp32\libgcc.a(trunctfdf2.o)
 .bss           0x0000000000000000        0x0 d:/program_files/programming/rt-threadstudio/repo/extract/toolchain_support_packages/risc-v/risc-v-gcc/10.1.0/bin/../lib/gcc/riscv64-unknown-elf/10.1.0/rv32im/ilp32\libgcc.a(trunctfdf2.o)
 .text          0x0000000000000000        0x0 d:/program_files/programming/rt-threadstudio/repo/extract/toolchain_support_packages/risc-v/risc-v-gcc/10.1.0/bin/../lib/gcc/riscv64-unknown-elf/10.1.0/rv32im/ilp32\libgcc.a(_clz.o)
 .data          0x0000000000000000        0x0 d:/program_files/programming/rt-threadstudio/repo/extract/toolchain_support_packages/risc-v/risc-v-gcc/10.1.0/bin/../lib/gcc/riscv64-unknown-elf/10.1.0/rv32im/ilp32\libgcc.a(_clz.o)
 .bss           0x0000000000000000        0x0 d:/program_files/programming/rt-threadstudio/repo/extract/toolchain_support_packages/risc-v/risc-v-gcc/10.1.0/bin/../lib/gcc/riscv64-unknown-elf/10.1.0/rv32im/ilp32\libgcc.a(_clz.o)
 .data          0x0000000000000000        0x0 d:/program_files/programming/rt-threadstudio/repo/extract/toolchain_support_packages/risc-v/risc-v-gcc/10.1.0/bin/../lib/gcc/riscv64-unknown-elf/10.1.0/rv32im/ilp32\libgcc.a(_clzsi2.o)
 .bss           0x0000000000000000        0x0 d:/program_files/programming/rt-threadstudio/repo/extract/toolchain_support_packages/risc-v/risc-v-gcc/10.1.0/bin/../lib/gcc/riscv64-unknown-elf/10.1.0/rv32im/ilp32\libgcc.a(_clzsi2.o)

Memory Configuration

Name             Origin             Length             Attributes
init             0x0000000010000000 0x0000000000000200
flash            0x0000000010000200 0x0000000000100000 xr
comm             0x0000000000014000 0x000000000000a800 xr
data             0x0000000000011000 0x0000000000002000
stack            0x0000000000013000 0x0000000000001000
heap             0x000000000001e800 0x0000000000011800
ram1             0x0000000000050000 0x0000000000007a00 xr
*default*        0x0000000000000000 0xffffffffffffffff

Linker script and memory map

LOAD build\applications\main.o
LOAD build\applications\mnt.o
LOAD build\board\ports\audio\drv_sound.o
LOAD build\board\board.o
LOAD build\board\ab32vg1_hal_msp.o
LOAD build\kernel\src\memheap.o
LOAD build\kernel\src\clock.o
LOAD build\kernel\src\ipc.o
LOAD build\kernel\src\kservice.o
LOAD build\kernel\src\thread.o
LOAD build\kernel\src\irq.o
LOAD build\kernel\src\idle.o
LOAD build\kernel\src\timer.o
LOAD build\kernel\src\mempool.o
LOAD build\kernel\src\device.o
LOAD build\kernel\src\mem.o
LOAD build\kernel\src\object.o
LOAD build\kernel\src\scheduler.o
LOAD build\kernel\src\components.o
LOAD build\kernel\components\dfs\src\dfs_posix.o
LOAD build\kernel\components\dfs\src\dfs_fs.o
LOAD build\kernel\components\dfs\src\dfs.o
LOAD build\kernel\components\dfs\src\dfs_file.o
LOAD build\kernel\components\dfs\filesystems\devfs\devfs.o
LOAD build\kernel\components\dfs\filesystems\elmfat\dfs_elm.o
LOAD build\kernel\components\dfs\filesystems\elmfat\ffunicode.o
LOAD build\kernel\components\dfs\filesystems\elmfat\ff.o
LOAD build\kernel\components\drivers\audio\audio.o
LOAD build\kernel\components\drivers\audio\audio_pipe.o
LOAD build\kernel\components\drivers\hwtimer\hwtimer.o
LOAD build\kernel\components\drivers\i2c\i2c_core.o
LOAD build\kernel\components\drivers\i2c\i2c_dev.o
LOAD build\kernel\components\drivers\i2c\i2c-bit-ops.o
LOAD build\kernel\components\drivers\misc\adc.o
LOAD build\kernel\components\drivers\misc\rt_drv_pwm.o
LOAD build\kernel\components\drivers\misc\pin.o
LOAD build\kernel\components\drivers\rtc\rtc.o
LOAD build\kernel\components\drivers\sdio\mmc.o
LOAD build\kernel\components\drivers\sdio\sd.o
LOAD build\kernel\components\drivers\sdio\block_dev.o
LOAD build\kernel\components\drivers\sdio\sdio.o
LOAD build\kernel\components\drivers\sdio\mmcsd_core.o
LOAD build\kernel\components\drivers\serial\serial.o
LOAD build\kernel\components\drivers\src\workqueue.o
LOAD build\kernel\components\drivers\src\dataqueue.o
LOAD build\kernel\components\drivers\src\pipe.o
LOAD build\kernel\components\drivers\src\completion.o
LOAD build\kernel\components\drivers\src\ringbuffer.o
LOAD build\kernel\components\drivers\src\ringblk_buf.o
LOAD build\kernel\components\drivers\src\waitqueue.o
LOAD build\kernel\components\drivers\watchdog\watchdog.o
LOAD build\kernel\components\finsh\finsh_node.o
LOAD build\kernel\components\finsh\finsh_parser.o
LOAD build\kernel\components\finsh\cmd.o
LOAD build\kernel\components\finsh\finsh_vm.o
LOAD build\kernel\components\finsh\msh_file.o
LOAD build\kernel\components\finsh\shell.o
LOAD build\kernel\components\finsh\finsh_var.o
LOAD build\kernel\components\finsh\finsh_compiler.o
LOAD build\kernel\components\finsh\finsh_heap.o
LOAD build\kernel\components\finsh\finsh_ops.o
LOAD build\kernel\components\finsh\finsh_error.o
LOAD build\kernel\components\finsh\msh.o
LOAD build\kernel\components\finsh\finsh_token.o
LOAD build\kernel\components\finsh\finsh_init.o
LOAD build\kernel\components\libc\compilers\common\time.o
LOAD build\kernel\components\libc\compilers\common\stdlib.o
LOAD build\kernel\components\libc\compilers\newlib\libc.o
LOAD build\kernel\components\libc\compilers\newlib\syscalls.o
LOAD build\kernel\components\libc\compilers\newlib\stdio.o
LOAD libraries\hal_drivers\drv_gpio.o
LOAD libraries\hal_drivers\drv_rtc.o
LOAD libraries\hal_drivers\drv_soft_i2c.o
LOAD libraries\hal_drivers\drv_wdt.o
LOAD libraries\hal_drivers\drv_sdio.o
LOAD libraries\hal_drivers\drv_adc.o
LOAD libraries\hal_drivers\drv_irrx.o
LOAD libraries\hal_drivers\drv_usart.o
LOAD libraries\hal_drivers\drv_pwm.o
LOAD libraries\hal_drivers\drv_hwtimer.o
LOAD libcpu\cpu\interrupt.o
LOAD libcpu\cpu\cpuport.o
LOAD libcpu\cpu\context_gcc.o
LOAD libraries\hal_libraries\ab32vg1_hal\source\ab32vg1_hal_dac.o
LOAD libraries\hal_libraries\ab32vg1_hal\source\ab32vg1_hal_gpio.o
LOAD libraries\hal_libraries\ab32vg1_hal\source\ab32vg1_hal_sd.o
LOAD libraries\hal_libraries\ab32vg1_hal\source\ab32vg1_hal.o
LOAD libraries\hal_libraries\ab32vg1_hal\source\ab32vg1_hal_uart.o
LOAD libraries\hal_libraries\ab32vg1_hal\source\ab32vg1_hal_rcu.o
LOAD libraries\hal_libraries\bmsis\source\startup.o
LOAD libraries\hal_libraries\bmsis\source\system_ab32vgx.o
LOAD d:/program_files/programming/rt-threadstudio/repo/extract/toolchain_support_packages/risc-v/risc-v-gcc/10.1.0/bin/../lib/gcc/riscv64-unknown-elf/10.1.0/../../../../riscv64-unknown-elf/lib/rv32im/ilp32\libc.a
LOAD d:/program_files/programming/rt-threadstudio/repo/extract/toolchain_support_packages/risc-v/risc-v-gcc/10.1.0/bin/../lib/gcc/riscv64-unknown-elf/10.1.0/../../../../riscv64-unknown-elf/lib/rv32im/ilp32\libm.a
LOAD libraries\hal_libraries\ab32vg1_hal\libhal.a
LOAD d:/program_files/programming/rt-threadstudio/repo/extract/toolchain_support_packages/risc-v/risc-v-gcc/10.1.0/bin/../lib/gcc/riscv64-unknown-elf/10.1.0/rv32im/ilp32\libgcc.a
START GROUP
LOAD d:/program_files/programming/rt-threadstudio/repo/extract/toolchain_support_packages/risc-v/risc-v-gcc/10.1.0/bin/../lib/gcc/riscv64-unknown-elf/10.1.0/../../../../riscv64-unknown-elf/lib/rv32im/ilp32\libc.a
LOAD d:/program_files/programming/rt-threadstudio/repo/extract/toolchain_support_packages/risc-v/risc-v-gcc/10.1.0/bin/../lib/gcc/riscv64-unknown-elf/10.1.0/../../../../riscv64-unknown-elf/lib/rv32im/ilp32\libgloss.a
END GROUP
LOAD d:/program_files/programming/rt-threadstudio/repo/extract/toolchain_support_packages/risc-v/risc-v-gcc/10.1.0/bin/../lib/gcc/riscv64-unknown-elf/10.1.0/rv32im/ilp32\libgcc.a
                0x0000000000100000                __max_flash_size = 0x100000
                0x0000000000002000                __data_ram_size = 0x2000
                0x0000000000001000                __stack_ram_size = 0x1000
                0x000000000000a800                __comm_ram_size = 0xa800
                0x0000000000011800                __heap_ram_size = 0x11800
                0x0000000010000000                __base = 0x10000000
                0x0000000000011000                __data_vma = 0x11000
                0x0000000000013000                __stack_vma = (__data_vma + __data_ram_size)
                0x0000000000014000                __comm_vma = (__stack_vma + __stack_ram_size)
                0x000000000001e800                __heap_vma = (__comm_vma + __comm_ram_size)
                0x0000000000050000                __ram1_vma = 0x50000

.init           0x0000000010000000       0xbe
 *(.reset)
 .reset         0x0000000010000000       0xbe libraries\hal_libraries\bmsis\source\startup.o
                0x0000000010000000                _start

.ram1           0x0000000000050000     0x6854 load address 0x0000000010000200
                0x0000000000050000                . = ALIGN (0x4)
                0x0000000000050000                __rt_init_start = .
 *(SORT_BY_NAME(.rti_fn*))
 .rti_fn.0      0x0000000000050000        0x4 build\kernel\src\components.o
                0x0000000000050000                __rt_init_rti_start
 .rti_fn.0.end  0x0000000000050004        0x4 build\kernel\src\components.o
                0x0000000000050004                __rt_init_rti_board_start
 .rti_fn.1      0x0000000000050008        0x4 libraries\hal_drivers\drv_soft_i2c.o
                0x0000000000050008                __rt_init_rt_hw_i2c_init
 .rti_fn.1      0x000000000005000c        0x4 libraries\hal_drivers\drv_wdt.o
                0x000000000005000c                __rt_init_rt_wdt_init
 .rti_fn.1      0x0000000000050010        0x4 libraries\hal_drivers\drv_adc.o
                0x0000000000050010                __rt_init_ab32_adc_init
 .rti_fn.1      0x0000000000050014        0x4 libraries\hal_drivers\drv_irrx.o
                0x0000000000050014                __rt_init_ab32_irrx_init
 .rti_fn.1      0x0000000000050018        0x4 libraries\hal_drivers\drv_hwtimer.o
                0x0000000000050018                __rt_init_ab32_hwtimer_init
 .rti_fn.1.end  0x000000000005001c        0x4 build\kernel\src\components.o
                0x000000000005001c                __rt_init_rti_board_end
 .rti_fn.2      0x0000000000050020        0x4 build\kernel\components\dfs\src\dfs.o
                0x0000000000050020                __rt_init_dfs_init
 .rti_fn.2      0x0000000000050024        0x4 build\kernel\components\drivers\sdio\mmcsd_core.o
                0x0000000000050024                __rt_init_rt_mmcsd_core_init
 .rti_fn.3      0x0000000000050028        0x4 build\board\ports\audio\drv_sound.o
                0x0000000000050028                __rt_init_rt_hw_sound_init
 .rti_fn.3      0x000000000005002c        0x4 libraries\hal_drivers\drv_rtc.o
                0x000000000005002c                __rt_init_rt_hw_rtc_init
 .rti_fn.3      0x0000000000050030        0x4 libraries\hal_drivers\drv_sdio.o
                0x0000000000050030                __rt_init_rt_hw_sdio_init
 .rti_fn.3      0x0000000000050034        0x4 libraries\hal_drivers\drv_pwm.o
                0x0000000000050034                __rt_init_ab32_pwm_init
 .rti_fn.4      0x0000000000050038        0x4 build\kernel\components\dfs\filesystems\elmfat\dfs_elm.o
                0x0000000000050038                __rt_init_elm_init
 .rti_fn.4      0x000000000005003c        0x4 build\kernel\components\drivers\i2c\i2c_core.o
                0x000000000005003c                __rt_init_rt_i2c_core_init
 .rti_fn.4      0x0000000000050040        0x4 build\kernel\components\libc\compilers\newlib\libc.o
                0x0000000000050040                __rt_init_libc_system_init
 .rti_fn.6      0x0000000000050044        0x4 build\applications\mnt.o
                0x0000000000050044                __rt_init_ab32_sdcard_mount
 .rti_fn.6      0x0000000000050048        0x4 build\kernel\components\finsh\shell.o
                0x0000000000050048                __rt_init_finsh_system_init
 .rti_fn.6.end  0x000000000005004c        0x4 build\kernel\src\components.o
                0x000000000005004c                __rt_init_rti_end
                0x0000000000050050                __rt_init_end = .
                0x0000000000050050                . = ALIGN (0x4)
                [!provide]                        PROVIDE (__ctors_start__ = .)
 *(SORT_BY_NAME(.init_array.*))
 *(.init_array*)
                [!provide]                        PROVIDE (__ctors_end__ = .)
                0x0000000000050050                . = ALIGN (0x4)
 *save-restore.o(.text* .rodata*)
 *libcpu*cpu*context_gcc.o(.text* .rodata*)
 .text          0x0000000000050050      0x19c libcpu\cpu\context_gcc.o
                0x0000000000050050                rt_hw_interrupt_disable
                0x000000000005005e                rt_hw_interrupt_enable
                0x0000000000050070                rt_hw_context_switch_to
                0x00000000000500a4                rt_hw_context_switch
                0x00000000000500c4                rt_switch_to_thread
                0x00000000000500ea                rt_hw_context_switch_interrupt
                0x0000000000050110                rt_soft_isr
                0x0000000000050118                low_prio_irq
 *libcpu*cpu*interrupt.o(.text* .rodata*)
 .text          0x00000000000501ec       0xe0 libcpu\cpu\interrupt.o
                0x00000000000501ec                set_cpu_irq_comm
                0x00000000000501f6                cpu_irq_comm_do
                0x0000000000050230                rt_hw_irq_enable
                0x0000000000050248                rt_hw_irq_disable
                0x0000000000050264                rt_hw_interrupt_init
                0x0000000000050266                rt_hw_interrupt_install
 *libcpu**.o(.rodata*)
 .rodata.str1.4
                0x00000000000502cc        0xd libcpu\cpu\cpuport.o
                                         0x12 (size before relaxing)
 *fill*         0x00000000000502d9        0x3 
 .rodata        0x00000000000502dc       0x13 libcpu\cpu\cpuport.o
 *components*drivers*misc*pin.o(.text*)
 *fill*         0x00000000000502ef        0x1 
 .text          0x00000000000502f0      0x30c build\kernel\components\drivers\misc\pin.o
                0x000000000005032c                rt_pin_mode
                0x0000000000050372                rt_pin_write
                0x00000000000503b8                rt_pin_read
                0x00000000000503f6                rt_pin_get
                0x00000000000504e2                rt_device_pin_register
                0x0000000000050518                rt_pin_attach_irq
                0x0000000000050570                rt_pin_detach_irq
                0x00000000000505b2                rt_pin_irq_enable
 *components*drivers*misc*adc.o(.text*)
 .text          0x00000000000505fc      0x35e build\kernel\components\drivers\misc\adc.o
                0x000000000005065a                rt_hw_adc_register
                0x00000000000506ae                rt_adc_read
                0x00000000000506e6                rt_adc_enable
                0x000000000005071c                rt_adc_disable
                0x000000000005095c                . = ALIGN (0x4)
 *fill*         0x000000000005095a        0x2 
 *src*ipc.o(.text* .rodata*)
 .text          0x000000000005095c     0x1f90 build\kernel\src\ipc.o
                0x00000000000509e2                rt_ipc_get_highest_priority
                0x0000000000050a04                rt_sem_init
                0x0000000000050a68                rt_sem_detach
                0x0000000000050ade                rt_sem_create
                0x0000000000050b62                rt_sem_delete
                0x0000000000050c16                rt_sem_take
                0x0000000000050d64                rt_sem_trytake
                0x0000000000050d68                rt_sem_release
                0x0000000000050e06                rt_sem_control
                0x0000000000050e76                rt_mutex_init
                0x0000000000050ec2                rt_mutex_detach
                0x0000000000050f38                rt_mutex_create
                0x0000000000050fa4                rt_mutex_delete
                0x0000000000051058                rt_mutex_take
                0x00000000000511f8                rt_mutex_release
                0x00000000000513ae                rt_mutex_control
                0x00000000000513f8                rt_event_init
                0x000000000005143c                rt_event_detach
                0x00000000000514b4                rt_event_create
                0x0000000000051518                rt_event_delete
                0x00000000000515ce                rt_event_send
                0x00000000000516b4                rt_event_recv
                0x0000000000051888                rt_event_control
                0x00000000000518f8                rt_mb_init
                0x0000000000051954                rt_mb_detach
                0x00000000000519d4                rt_mb_create
                0x0000000000051a6c                rt_mb_delete
                0x0000000000051b34                rt_mb_send_wait
                0x0000000000051cfc                rt_mb_send
                0x0000000000051d00                rt_mb_urgent
                0x0000000000051db6                rt_mb_recv
                0x0000000000051fa0                rt_mb_control
                0x000000000005201c                rt_mq_init
                0x00000000000520b2                rt_mq_detach
                0x0000000000052132                rt_mq_create
                0x000000000005220c                rt_mq_delete
                0x00000000000522dc                rt_mq_send_wait
                0x00000000000524fe                rt_mq_send
                0x0000000000052502                rt_mq_urgent
                0x0000000000052614                rt_mq_recv
                0x0000000000052856                rt_mq_control
 .rodata.str1.4
                0x00000000000528ec      0x472 build\kernel\src\ipc.o
                                        0x476 (size before relaxing)
 *fill*         0x0000000000052d5e        0x2 
 .rodata        0x0000000000052d60      0x242 build\kernel\src\ipc.o
 *src*irq.o(.text* .rodata*)
 .text          0x0000000000052fa2       0x9a build\kernel\src\irq.o
                0x0000000000052fa2                rt_interrupt_enter_sethook
                0x0000000000052fac                rt_interrupt_leave_sethook
                0x0000000000052fb6                rt_interrupt_enter
                0x0000000000052fec                rt_interrupt_leave
                0x0000000000053022                rt_interrupt_get_nest
 *src*object.o(.text* .rodata*)
 .text          0x000000000005303c      0x3c4 build\kernel\src\object.o
                0x000000000005303c                rt_object_attach_sethook
                0x0000000000053046                rt_object_detach_sethook
                0x0000000000053050                rt_object_trytake_sethook
                0x000000000005305a                rt_object_take_sethook
                0x0000000000053064                rt_object_put_sethook
                0x000000000005306e                rt_object_get_information
                0x0000000000053096                rt_object_get_length
                0x00000000000530c0                rt_object_get_pointers
                0x0000000000053102                rt_object_init
                0x00000000000531a6                rt_object_detach
                0x00000000000531f4                rt_object_allocate
                0x00000000000532ae                rt_object_delete
                0x0000000000053326                rt_object_is_systemobject
                0x0000000000053350                rt_object_get_type
                0x000000000005337c                rt_object_find
 *fill*         0x0000000000053400        0x0 
 .rodata.str1.4
                0x0000000000053400       0x65 build\kernel\src\object.o
                                         0x91 (size before relaxing)
 *fill*         0x0000000000053465        0x3 
 .rodata        0x0000000000053468       0x8b build\kernel\src\object.o
 *src*thread.o(.text* .rodata*)
 *fill*         0x00000000000534f3        0x1 
 .text          0x00000000000534f4      0x81c build\kernel\src\thread.o
                0x0000000000053512                rt_thread_exit
                0x0000000000053626                rt_thread_timeout
                0x00000000000536b0                rt_thread_suspend_sethook
                0x00000000000536ba                rt_thread_resume_sethook
                0x00000000000536c4                rt_thread_inited_sethook
                0x00000000000536ce                rt_thread_init
                0x0000000000053734                rt_thread_self
                0x000000000005373e                rt_thread_detach
                0x00000000000537d4                rt_thread_create
                0x000000000005381a                rt_thread_delete
                0x00000000000538c8                rt_thread_yield
                0x00000000000538fe                rt_thread_suspend
                0x00000000000539bc                rt_thread_sleep
                0x0000000000053a46                rt_thread_delay
                0x0000000000053a48                rt_thread_mdelay
                0x0000000000053a56                rt_thread_delay_until
                0x0000000000053b1e                rt_thread_resume
                0x0000000000053bb0                rt_thread_startup
                0x0000000000053c42                rt_thread_control
                0x0000000000053d0a                rt_thread_find
 *fill*         0x0000000000053d10        0x0 
 .rodata.str1.4
                0x0000000000053d10      0x19f build\kernel\src\thread.o
 *fill*         0x0000000000053eaf        0x1 
 .rodata        0x0000000000053eb0       0xd2 build\kernel\src\thread.o
 *src*timer.o(.text* .rodata*)
 .text          0x0000000000053f82      0x688 build\kernel\src\timer.o
                0x0000000000053f94                rt_timer_enter_sethook
                0x0000000000053f9e                rt_timer_exit_sethook
                0x0000000000053fa8                rt_timer_init
                0x0000000000053ffe                rt_timer_detach
                0x0000000000054088                rt_timer_create
                0x00000000000540be                rt_timer_delete
                0x0000000000054148                rt_timer_start
                0x0000000000054278                rt_timer_stop
                0x00000000000542f4                rt_timer_control
                0x0000000000054398                rt_timer_check
                0x000000000005445e                rt_timer_next_timeout_tick
                0x0000000000054482                rt_soft_timer_check
                0x00000000000545b2                rt_system_timer_init
                0x00000000000545c0                rt_system_timer_thread_init
 *fill*         0x000000000005460a        0x2 
 .rodata.str1.4
                0x000000000005460c       0xde build\kernel\src\timer.o
 *fill*         0x00000000000546ea        0x2 
 .rodata        0x00000000000546ec       0x75 build\kernel\src\timer.o
 *src*mempool.o(.text* .rodata*)
 *fill*         0x0000000000054761        0x1 
 .text          0x0000000000054762      0x4e2 build\kernel\src\mempool.o
                0x0000000000054762                rt_mp_alloc_sethook
                0x000000000005476c                rt_mp_free_sethook
                0x0000000000054776                rt_mp_init
                0x000000000005484c                rt_mp_detach
                0x00000000000548e2                rt_mp_create
                0x00000000000549cc                rt_mp_delete
                0x0000000000054aaa                rt_mp_alloc
                0x0000000000054be4                rt_mp_free
 .rodata.str1.4
                0x0000000000054c44      0x121 build\kernel\src\mempool.o
                                        0x14d (size before relaxing)
 *fill*         0x0000000000054d65        0x3 
 .rodata        0x0000000000054d68       0x48 build\kernel\src\mempool.o
 *src*scheduler.o(.text* .rodata*)
 .text          0x0000000000054db0      0x310 build\kernel\src\scheduler.o
                0x0000000000054db0                rt_scheduler_sethook
                0x0000000000054dba                rt_system_scheduler_init
                0x0000000000054df2                rt_schedule_insert_thread
                0x0000000000054e72                rt_schedule_remove_thread
                0x0000000000054eda                rt_system_scheduler_start
                0x0000000000054f1a                rt_schedule
                0x0000000000055050                rt_enter_critical
                0x0000000000055072                rt_exit_critical
                0x00000000000550b6                rt_critical_level
 *fill*         0x00000000000550c0        0x0 
 .rodata.str1.4
                0x00000000000550c0       0x51 build\kernel\src\scheduler.o
                                         0x65 (size before relaxing)
 *fill*         0x0000000000055111        0x3 
 .rodata        0x0000000000055114       0x36 build\kernel\src\scheduler.o
 *src*clock.o(.text* .rodata*)
 .text          0x000000000005514a       0x90 build\kernel\src\clock.o
                0x000000000005514a                rt_tick_get
                0x0000000000055154                rt_tick_set
                0x000000000005516e                rt_tick_increase
                0x00000000000551a8                rt_tick_from_millisecond
                0x00000000000551d0                rt_tick_get_millisecond
 *src*kservice.o(.text* .rodata*)
 .text          0x00000000000551da      0xad4 build\kernel\src\kservice.o
                0x0000000000055378                rt_get_errno
                0x0000000000055398                rt_set_errno
                0x00000000000553ba                _rt_errno
                0x00000000000553dc                rt_memset
                0x0000000000055460                rt_memcpy
                0x000000000005550e                rt_memmove
                0x0000000000055558                rt_memcmp
                0x0000000000055580                rt_strcasecmp
                0x00000000000555b4                rt_strncpy
                0x00000000000555e0                rt_strncmp
                0x0000000000055610                rt_strcmp
                0x000000000005562a                rt_strnlen
                0x0000000000055642                rt_strlen
                0x0000000000055654                rt_strstr
                0x000000000005568c                rt_strdup
                0x00000000000556b8                rt_vsnprintf
                0x0000000000055a3e                rt_snprintf
                0x0000000000055a58                rt_vsprintf
                0x0000000000055a60                rt_sprintf
                0x0000000000055a7c                rt_console_get_device
                0x0000000000055a86                rt_console_set_device
                0x0000000000055ac2                rt_kputs
                0x0000000000055b0e                rt_kprintf
                0x0000000000055b8e                rt_show_version
                0x0000000000055bcc                rt_malloc_align
                0x0000000000055c06                rt_free_align
                0x0000000000055c12                __rt_ffs
                0x0000000000055c6a                rt_assert_set_hook
                0x0000000000055c74                rt_assert_handler
 *fill*         0x0000000000055cae        0x2 
 .rodata.str1.4
                0x0000000000055cb0       0xc7 build\kernel\src\kservice.o
 *fill*         0x0000000000055d77        0x1 
 .rodata        0x0000000000055d78      0x180 build\kernel\src\kservice.o
                0x0000000000055df8                __lowest_bit_bitmap
 *src*device.o(.text* .rodata*)
 .text          0x0000000000055ef8      0x4ec build\kernel\src\device.o
                0x0000000000055ef8                rt_device_unregister
                0x0000000000055f68                rt_device_find
                0x0000000000055f6e                rt_device_register
                0x0000000000055fa4                rt_device_create
                0x0000000000055fd0                rt_device_destroy
                0x0000000000056048                rt_device_init
                0x00000000000560a4                rt_device_open
                0x0000000000056194                rt_device_close
                0x000000000005620c                rt_device_read
                0x000000000005627c                rt_device_write
                0x00000000000562ec                rt_device_control
                0x0000000000056348                rt_device_set_rx_indicate
                0x0000000000056396                rt_device_set_tx_complete
 *fill*         0x00000000000563e4        0x0 
 .rodata.str1.4
                0x00000000000563e4       0xf4 build\kernel\src\device.o
 .rodata        0x00000000000564d8       0xc6 build\kernel\src\device.o
 *src*idle.o(.text* .rodata*)
 .text          0x000000000005659e      0x17c build\kernel\src\idle.o
                0x000000000005659e                rt_thread_idle_sethook
                0x00000000000565d8                rt_thread_idle_delhook
                0x0000000000056616                rt_thread_idle_excute
                0x00000000000566c2                rt_thread_idle_init
                0x0000000000056710                rt_thread_idle_gethandler
 *fill*         0x000000000005671a        0x2 
 .rodata.str1.4
                0x000000000005671c        0x8 build\kernel\src\idle.o
                                         0x34 (size before relaxing)
 .rodata        0x0000000000056724       0x16 build\kernel\src\idle.o
 *src*components.o(.text* .rodata*)
 .text          0x000000000005673a       0xee build\kernel\src\components.o
                0x000000000005674a                rt_components_board_init
                0x000000000005676e                rt_components_init
                0x0000000000056792                main_thread_entry
                0x00000000000567a4                rt_application_init
                0x00000000000567ec                rtthread_startup
                0x000000000005681c                entry
 *fill*         0x0000000000056828        0x0 
 .rodata.str1.4
                0x0000000000056828       0x17 build\kernel\src\components.o
 *fill*         0x000000000005683f        0x1 
 .rodata        0x0000000000056840       0x14 build\kernel\src\components.o

.comm           0x0000000000014000     0x4e2e load address 0x0000000010006a54
                0x0000000000014000                . = ALIGN (0x4)
 *(.vector)
 .vector        0x0000000000014000       0xd2 libraries\hal_libraries\bmsis\source\startup.o
                0x00000000000140c2                cpu_irq_comm
 .vector        0x00000000000140d2       0x3a libraries\hal_libraries\ab32vg1_hal\libhal.a(s_cache.o)
                0x00000000000140d2                isr_cache
 .vector        0x000000000001410c       0x2c libraries\hal_libraries\ab32vg1_hal\libhal.a(platform.o)
                0x000000000001410c                put_be32
                0x0000000000014114                put_be16
                0x000000000001411e                get_be32
                0x0000000000014120                swap32
                0x0000000000014126                get_be16
                0x000000000001412a                swap16
                0x0000000000014130                bitset_cnt
                0x0000000000014136                dummy_func
                0x0000000000014136                dummy_dump
 .vector        0x0000000000014138      0x128 libraries\hal_libraries\ab32vg1_hal\libhal.a(save-restore.o)
                0x0000000000014138                __riscv_save_12
                0x0000000000014158                __riscv_save_11
                0x0000000000014174                __riscv_save_10
                0x0000000000014190                __riscv_save_9
                0x00000000000141aa                __riscv_save_8
                0x00000000000141c2                __riscv_save_7
                0x00000000000141d6                __riscv_save_6
                0x00000000000141e8                __riscv_save_5
                0x00000000000141f8                __riscv_save_4
                0x0000000000014206                __riscv_save_3
                0x0000000000014212                __riscv_save_2
                0x000000000001421c                __riscv_save_1
                0x0000000000014224                __riscv_save_0
                0x000000000001422a                __riscv_restore_12
                0x000000000001422e                __riscv_restore_11
                0x0000000000014232                __riscv_restore_10
                0x0000000000014236                __riscv_restore_9
                0x000000000001423a                __riscv_restore_8
                0x000000000001423e                __riscv_restore_7
                0x0000000000014242                __riscv_restore_6
                0x0000000000014246                __riscv_restore_5
                0x000000000001424a                __riscv_restore_4
                0x000000000001424e                __riscv_restore_3
                0x0000000000014252                __riscv_restore_2
                0x0000000000014256                __riscv_restore_1
                0x000000000001425a                __riscv_restore_0
                0x0000000000014260                _gp
 *(.irq.cache)
 .irq.cache     0x0000000000014260       0xc2 build\board\board.o
                0x0000000000014260                cache_init
                0x0000000000014296                os_spiflash_lock
                0x00000000000142ba                os_spiflash_unlock
                0x00000000000142dc                os_cache_lock
                0x0000000000014300                os_cache_unlock
 .irq.cache     0x0000000000014322      0x118 libraries\hal_libraries\ab32vg1_hal\libhal.a(cache.o)
                0x0000000000014322                load_bank
                0x0000000000014428                load_cache_execute
 .irq.cache     0x000000000001443a       0x9c libraries\hal_libraries\ab32vg1_hal\libhal.a(s_cache.o)
                0x000000000001449c                load_cache
 *(.irq*)
 .irq.audio     0x00000000000144d6       0x3c build\board\ports\audio\drv_sound.o
                0x00000000000144d6                audio_sem_post
 .irq.timer     0x0000000000014512       0x1a build\board\board.o
                0x0000000000014512                timer0_isr
 .irq.err       0x000000000001452c       0x2e build\board\board.o
                0x000000000001452c                exception_isr
 *fill*         0x000000000001455a        0x2 
 .irq.err.str   0x000000000001455c       0x17 build\board\board.o
 *fill*         0x0000000000014573        0x1 
 .irq.sdio      0x0000000000014574       0x42 libraries\hal_drivers\drv_sdio.o
                0x0000000000014574                rthw_sdio_irq_process
                0x000000000001459e                sdio_isr
 .irq.irrx      0x00000000000145b6       0x8a libraries\hal_drivers\drv_irrx.o
                0x0000000000014610                ab32_get_irkey
 .irq.usart     0x0000000000014640      0x16e libraries\hal_drivers\drv_usart.o
                0x000000000001468a                uart_irq_process
 .irq.timer     0x00000000000147ae       0x5c libraries\hal_drivers\drv_hwtimer.o
                0x00000000000147ae                timer1_isr
 .irq.debug     0x000000000001480a       0xae libraries\hal_libraries\ab32vg1_hal\libhal.a(debug.o)
                0x000000000001480a                os_get_interrupt_nest
                0x000000000001480e                debug_dump_info
                0x0000000000014888                sys_error_hook
 *fill*         0x00000000000148b8        0x0 
 .irq.debug.str
                0x00000000000148b8       0x32 libraries\hal_libraries\ab32vg1_hal\libhal.a(debug.o)
                0x00000000000148b8                debug_dump_err_str_1
 *components*src**.o(.text* .rodata*)
 .text          0x00000000000148ea      0x612 build\kernel\components\dfs\src\dfs_posix.o
                0x00000000000148ea                mkdir
                0x000000000001494c                open
                0x00000000000149b4                close
                0x00000000000149ea                read
                0x0000000000014a2a                write
                0x0000000000014a6a                lseek
                0x0000000000014acc                rename
                0x0000000000014ae6                unlink
                0x0000000000014b00                stat
                0x0000000000014b1a                fstat
                0x0000000000014b60                fsync
                0x0000000000014b88                fcntl
                0x0000000000014bd6                ioctl
                0x0000000000014bf2                ftruncate
                0x0000000000014c3a                statfs
                0x0000000000014c54                rmdir
                0x0000000000014c56                opendir
                0x0000000000014cd4                readdir
                0x0000000000014d4a                telldir
                0x0000000000014d7a                seekdir
                0x0000000000014db4                rewinddir
                0x0000000000014de8                closedir
                0x0000000000014e2a                chdir
                0x0000000000014ebc                access
                0x0000000000014ece                getcwd
 *fill*         0x0000000000014efc        0x0 
 .rodata.str1.4
                0x0000000000014efc        0x4 build\kernel\components\dfs\src\dfs_posix.o
 .rodata.name   0x0000000000014f00       0x42 build\kernel\components\dfs\src\dfs_posix.o
                0x0000000000014f00                __fsym_cd_desc
                0x0000000000014f24                __fsym_cd_name
                0x0000000000014f28                __fsym_mkdir_desc
                0x0000000000014f3c                __fsym_mkdir_name
 .text          0x0000000000014f42      0x692 build\kernel\components\dfs\src\dfs_fs.o
                0x0000000000014f42                dfs_register
                0x0000000000014fcc                dfs_filesystem_lookup
                0x000000000001506a                dfs_filesystem_get_mounted_path
                0x00000000000150a6                dfs_filesystem_get_partition
                0x00000000000151ac                dfs_mount
                0x0000000000015364                dfs_unmount
                0x0000000000015402                dfs_mkfs
                0x00000000000154de                mkfs
                0x00000000000154e0                dfs_statfs
                0x0000000000015504                df
 .rodata.str1.4
                0x00000000000155d4      0x1b2 build\kernel\components\dfs\src\dfs_fs.o
                                        0x1b6 (size before relaxing)
 *fill*         0x0000000000015786        0x2 
 .rodata        0x0000000000015788       0x35 build\kernel\components\dfs\src\dfs_fs.o
 *fill*         0x00000000000157bd        0x3 
 .rodata.name   0x00000000000157c0       0x2d build\kernel\components\dfs\src\dfs_fs.o
                0x00000000000157c0                __fsym_df_desc
                0x00000000000157d0                __fsym_df_name
                0x00000000000157d4                __fsym_mkfs_desc
                0x00000000000157e8                __fsym_mkfs_name
 *fill*         0x00000000000157ed        0x1 
 .text          0x00000000000157ee      0x604 build\kernel\components\dfs\src\dfs.o
                0x00000000000157ee                list_fd
                0x00000000000158fa                dfs_init
                0x00000000000159b0                dfs_lock
                0x00000000000159e8                dfs_unlock
                0x00000000000159f4                fd_new
                0x0000000000015ae8                fd_get
                0x0000000000015b36                fd_put
                0x0000000000015b9a                dfs_subdir
                0x0000000000015bd6                dfs_normalize_path
                0x0000000000015d4a                fd_is_open
                0x0000000000015de8                dfs_fdtable_get
 *fill*         0x0000000000015df2        0x2 
 .rodata.str1.4
                0x0000000000015df4      0x116 build\kernel\components\dfs\src\dfs.o
                                        0x136 (size before relaxing)
 *fill*         0x0000000000015f0a        0x2 
 .rodata        0x0000000000015f0c       0x1f build\kernel\components\dfs\src\dfs.o
 *fill*         0x0000000000015f2b        0x1 
 .rodata.name   0x0000000000015f2c       0x26 build\kernel\components\dfs\src\dfs.o
                0x0000000000015f2c                __fsym___cmd_list_fd_desc
                0x0000000000015f44                __fsym___cmd_list_fd_name
 .text          0x0000000000015f52      0x8cc build\kernel\components\dfs\src\dfs_file.o
                0x0000000000015f52                dfs_file_open
                0x0000000000016030                dfs_file_close
                0x0000000000016060                dfs_file_ioctl
                0x00000000000160a6                dfs_file_read
                0x00000000000160d6                cat
                0x0000000000016150                dfs_file_getdents
                0x0000000000016170                dfs_file_unlink
                0x00000000000161ea                rm
                0x000000000001620c                dfs_file_write
                0x00000000000162e8                dfs_file_flush
                0x00000000000162fc                dfs_file_lseek
                0x0000000000016324                dfs_file_stat
                0x0000000000016420                ls
                0x0000000000016654                copy
                0x0000000000016754                dfs_file_rename
                0x00000000000167e2                dfs_file_ftruncate
 *fill*         0x000000000001681e        0x2 
 .rodata.str1.4
                0x0000000000016820      0x1b4 build\kernel\components\dfs\src\dfs_file.o
                                        0x1cc (size before relaxing)
 .rodata.name   0x00000000000169d4       0x67 build\kernel\components\dfs\src\dfs_file.o
                0x00000000000169d4                __fsym_copy_desc
                0x00000000000169e8                __fsym_copy_name
                0x00000000000169f0                __fsym_cat_desc
                0x00000000000169fc                __fsym_cat_name
                0x0000000000016a00                __fsym_rm_desc
                0x0000000000016a1c                __fsym_rm_name
                0x0000000000016a20                __fsym_ls_desc
                0x0000000000016a38                __fsym_ls_name
 *fill*         0x0000000000016a3b        0x1 
 .text          0x0000000000016a3c      0x664 build\kernel\components\drivers\src\dataqueue.o
                0x0000000000016a3c                rt_data_queue_init
                0x0000000000016abc                rt_data_queue_push
                0x0000000000016c58                rt_data_queue_peek
                0x0000000000016ce4                rt_data_queue_reset
                0x0000000000016d92                rt_data_queue_deinit
                0x0000000000016df8                rt_data_queue_len
                0x0000000000016e82                rt_data_queue_pop
 .rodata.str1.4
                0x00000000000170a0       0x8c build\kernel\components\drivers\src\dataqueue.o
                                         0x90 (size before relaxing)
 .rodata        0x000000000001712c       0x8e build\kernel\components\drivers\src\dataqueue.o
 .text          0x00000000000171ba      0x188 build\kernel\components\drivers\src\completion.o
                0x00000000000171ba                rt_completion_init
                0x00000000000171f0                rt_completion_wait
                0x00000000000172ec                rt_completion_done
 *fill*         0x0000000000017342        0x2 
 .rodata.str1.4
                0x0000000000017344       0x47 build\kernel\components\drivers\src\completion.o
                                         0x72 (size before relaxing)
 *fill*         0x000000000001738b        0x1 
 .rodata        0x000000000001738c       0x3b build\kernel\components\drivers\src\completion.o
 *fill*         0x00000000000173c7        0x1 
 .text          0x00000000000173c8      0x60c build\kernel\components\drivers\src\ringbuffer.o
                0x00000000000173c8                rt_ringbuffer_init
                0x000000000001741a                rt_ringbuffer_putchar_force
                0x00000000000174bc                rt_ringbuffer_data_len
                0x00000000000174f4                rt_ringbuffer_put
                0x00000000000175b2                rt_ringbuffer_put_force
                0x00000000000176cc                rt_ringbuffer_get
                0x00000000000177a6                rt_ringbuffer_peak
                0x0000000000017824                rt_ringbuffer_putchar
                0x0000000000017894                rt_ringbuffer_getchar
                0x0000000000017914                rt_ringbuffer_reset
                0x000000000001793c                rt_ringbuffer_create
                0x000000000001799c                rt_ringbuffer_destroy
 *fill*         0x00000000000179d4        0x0 
 .rodata.str1.4
                0x00000000000179d4        0xe build\kernel\components\drivers\src\ringbuffer.o
                                         0x19 (size before relaxing)
 *fill*         0x00000000000179e2        0x2 
 .rodata        0x00000000000179e4       0xf6 build\kernel\components\drivers\src\ringbuffer.o
 *ab32vg1_hal**.o(.text* .rodata*)
 .text          0x0000000000017ada      0x120 build\board\ab32vg1_hal_msp.o
                0x0000000000017ada                hal_uart_mspinit
                0x0000000000017b9a                hal_sd_mspinit
                0x0000000000017bd6                hal_pwm_mspinit
 .text          0x0000000000017bfa      0x124 libraries\hal_libraries\ab32vg1_hal\source\ab32vg1_hal_gpio.o
                0x0000000000017bfa                gpio_afinit
                0x0000000000017c2a                hal_gpio_init
                0x0000000000017cee                hal_gpio_read
                0x0000000000017cf8                hal_gpio_write
                0x0000000000017d10                hal_gpio_toggle
 .text          0x0000000000017d1e       0x54 libraries\hal_libraries\ab32vg1_hal\source\ab32vg1_hal.o
                0x0000000000017d1e                hal_set_tick_hook
                0x0000000000017d28                hal_set_ticks
                0x0000000000017d4a                hal_udelay
 .text          0x0000000000017d72      0x130 libraries\hal_libraries\ab32vg1_hal\source\ab32vg1_hal_uart.o
                0x0000000000017d72                hal_uart_setbaud
                0x0000000000017d90                hal_uart_setparam
                0x0000000000017de2                hal_uart_deinit
                0x0000000000017de8                HAL_UART_MspInit
                0x0000000000017dea                hal_uart_control
                0x0000000000017e02                hal_uart_write
                0x0000000000017e06                hal_uart_read
                0x0000000000017e0e                hal_uart_getflag
                0x0000000000017e14                hal_uart_clrflag
                0x0000000000017e1c                uart_config_all
                0x0000000000017e88                hal_uart_init
 .text          0x0000000000017ea2       0x70 libraries\hal_libraries\ab32vg1_hal\source\ab32vg1_hal_rcu.o
                0x0000000000017ea2                hal_rcu_periph_clk_enable
                0x0000000000017ed6                hal_rcu_periph_clk_disable
 .text.hal_adc_enable
                0x0000000000017f12       0x14 libraries\hal_libraries\ab32vg1_hal\libhal.a(ab32vg1_hal_adc.o)
                0x0000000000017f12                hal_adc_enable
 .text.hal_adc_start
                0x0000000000017f26        0x6 libraries\hal_libraries\ab32vg1_hal\libhal.a(ab32vg1_hal_adc.o)
                0x0000000000017f26                hal_adc_start
 .text.hal_adc_poll_for_conversion
                0x0000000000017f2c       0x30 libraries\hal_libraries\ab32vg1_hal\libhal.a(ab32vg1_hal_adc.o)
                0x0000000000017f2c                hal_adc_poll_for_conversion
 *drv_gpio.o(.text* .rodata*)
 .text          0x0000000000017f5c      0x1b2 libraries\hal_drivers\drv_gpio.o
                0x00000000000180f8                rt_hw_pin_init
 *fill*         0x000000000001810e        0x2 
 .rodata.str1.4
                0x0000000000018110        0x4 libraries\hal_drivers\drv_gpio.o
 .rodata        0x0000000000018114       0x38 libraries\hal_drivers\drv_gpio.o
 *drv_usart.o(.rodata*)
 .rodata.str1.4
                0x000000000001814c       0x6e libraries\hal_drivers\drv_usart.o
 *fill*         0x00000000000181ba        0x2 
 .rodata        0x00000000000181bc       0x81 libraries\hal_drivers\drv_usart.o
 EXCLUDE_FILE(*unwind*.o *lib_a**.o) *(.srodata*)
 *fill*         0x000000000001823d        0x3 
 .srodata       0x0000000000018240        0x8 build\kernel\src\mem.o
 .srodata       0x0000000000018248        0x7 build\kernel\components\dfs\src\dfs.o
 *fill*         0x000000000001824f        0x1 
 .srodata.cst4  0x0000000000018250        0x8 build\kernel\components\drivers\hwtimer\hwtimer.o
 *fill*         0x0000000000018258        0x0 
 .srodata.cst8  0x0000000000018258        0x8 build\kernel\components\drivers\misc\rt_drv_pwm.o
 .srodata       0x0000000000018260        0x8 libraries\hal_drivers\drv_soft_i2c.o
 .srodata       0x0000000000018268        0x8 libraries\hal_drivers\drv_adc.o
 *(.rela*)
 .rela.text.startup
                0x0000000000018270        0x0 build\applications\main.o
 .rela.text     0x0000000000018270        0x0 build\applications\main.o
 .rela.irq.err  0x0000000000018270        0x0 build\applications\main.o
 .rela.reset    0x0000000000018270        0x0 build\applications\main.o
 .rela.vector   0x0000000000018270        0x0 build\applications\main.o
 .rela.irq.cache
                0x0000000000018270        0x0 build\applications\main.o
 .rela.com_text.cache
                0x0000000000018270        0x0 build\applications\main.o
 .rela.com_text.spiflash
                0x0000000000018270        0x0 build\applications\main.o
 .rela.irq.debug
                0x0000000000018270        0x0 build\applications\main.o
 *(.data*)
 .data          0x0000000000018270       0x1c build\board\ports\audio\drv_sound.o
 .data          0x000000000001828c       0xa0 build\kernel\src\object.o
 .data          0x000000000001832c      0x100 build\kernel\components\dfs\src\dfs.o
                0x000000000001832c                working_directory
 .data          0x000000000001842c       0x3c libraries\hal_drivers\drv_adc.o
 .data          0x0000000000018468        0xc libraries\hal_drivers\drv_usart.o
 .data          0x0000000000018474       0x48 libraries\hal_drivers\drv_pwm.o
 .data          0x00000000000184bc       0x5c libraries\hal_drivers\drv_hwtimer.o
 .data          0x0000000000018518      0x428 d:/program_files/programming/rt-threadstudio/repo/extract/toolchain_support_packages/risc-v/risc-v-gcc/10.1.0/bin/../lib/gcc/riscv64-unknown-elf/10.1.0/../../../../riscv64-unknown-elf/lib/rv32im/ilp32\libc.a(lib_a-impure.o)
 .data          0x0000000000018940      0x16c d:/program_files/programming/rt-threadstudio/repo/extract/toolchain_support_packages/risc-v/risc-v-gcc/10.1.0/bin/../lib/gcc/riscv64-unknown-elf/10.1.0/../../../../riscv64-unknown-elf/lib/rv32im/ilp32\libc.a(lib_a-locale.o)
                0x0000000000018940                __global_locale
 *(.sdata*)
 .sdata         0x0000000000018aac        0x1 build\kernel\src\timer.o
 *fill*         0x0000000000018aad        0x3 
 .sdata         0x0000000000018ab0        0x8 build\kernel\components\drivers\sdio\block_dev.o
 .sdata         0x0000000000018ab8       0x10 build\kernel\components\drivers\sdio\sdio.o
 .sdata         0x0000000000018ac8        0x4 build\kernel\components\finsh\msh.o
 .sdata         0x0000000000018acc        0x1 libraries\hal_drivers\drv_sdio.o
 *fill*         0x0000000000018acd        0x3 
 .sdata         0x0000000000018ad0        0x4 libraries\hal_drivers\drv_pwm.o
 .sdata         0x0000000000018ad4        0x4 d:/program_files/programming/rt-threadstudio/repo/extract/toolchain_support_packages/risc-v/risc-v-gcc/10.1.0/bin/../lib/gcc/riscv64-unknown-elf/10.1.0/../../../../riscv64-unknown-elf/lib/rv32im/ilp32\libc.a(lib_a-impure.o)
                0x0000000000018ad4                _impure_ptr
 .sdata         0x0000000000018ad8        0x4 d:/program_files/programming/rt-threadstudio/repo/extract/toolchain_support_packages/risc-v/risc-v-gcc/10.1.0/bin/../lib/gcc/riscv64-unknown-elf/10.1.0/../../../../riscv64-unknown-elf/lib/rv32im/ilp32\libc.a(lib_a-environ.o)
                0x0000000000018ad8                environ
 .sdata         0x0000000000018adc        0x4 libraries\hal_libraries\ab32vg1_hal\libhal.a(cache.o)
                0x0000000000018adc                _cache_cb
 *(.com_text*)
 .com_text.cache
                0x0000000000018ae0       0x5c libraries\hal_libraries\ab32vg1_hal\libhal.a(cache.o)
                0x0000000000018ae0                os_cache_init
                0x0000000000018b1e                os_cache_setfunc
 .com_text.spiflash
                0x0000000000018b3c      0x2f2 libraries\hal_libraries\ab32vg1_hal\libhal.a(spiflash.o)
                0x0000000000018c02                spiflash_read
                0x0000000000018d70                os_spiflash_read
                0x0000000000018da2                os_spiflash_program
                0x0000000000018dfe                os_spiflash_erase

.bss            0x0000000000011000     0x1990
                0x0000000000011000                __bss_start = .
 *(COMMON)
 COMMON         0x0000000000011000       0x2c libraries\hal_libraries\ab32vg1_hal\libhal.a(cache.o)
                0x0000000000011000                cache_cb
 COMMON         0x000000000001102c        0x4 libraries\hal_libraries\ab32vg1_hal\libhal.a(spiflash.o)
                0x000000000001102c                spi_dummy_byte
 *(.bss)
 .bss           0x0000000000011030       0x58 build\board\ports\audio\drv_sound.o
 .bss           0x0000000000011088       0xc8 build\board\board.o
 .bss           0x0000000000011150       0x80 build\kernel\src\kservice.o
 .bss           0x00000000000111d0      0x290 build\kernel\src\idle.o
 .bss           0x0000000000011460      0x180 build\kernel\src\timer.o
 .bss           0x00000000000115e0       0x20 build\kernel\src\mem.o
 .bss           0x0000000000011600      0x100 build\kernel\src\scheduler.o
                0x0000000000011600                rt_thread_priority_table
 .bss           0x0000000000011700       0x44 build\kernel\components\dfs\src\dfs.o
                0x0000000000011700                filesystem_table
 .bss           0x0000000000011744      0x128 build\kernel\components\dfs\src\dfs_file.o
 .bss           0x000000000001186c       0x34 build\kernel\components\drivers\misc\pin.o
 .bss           0x00000000000118a0      0x500 build\kernel\components\drivers\sdio\mmcsd_core.o
 .bss           0x0000000000011da0      0x140 build\kernel\components\finsh\finsh_node.o
                0x0000000000011da0                global_node_table
 .bss           0x0000000000011ee0      0x180 build\kernel\components\finsh\finsh_vm.o
                0x0000000000011ee0                finsh_vm_stack
                0x0000000000011fe0                text_segment
 .bss           0x0000000000012060       0x81 build\kernel\components\finsh\shell.o
 *fill*         0x00000000000120e1        0x3 
 .bss           0x00000000000120e4       0xc0 build\kernel\components\finsh\finsh_var.o
                0x00000000000120e4                global_variable
 *fill*         0x00000000000121a4        0x4 
 .bss           0x00000000000121a8       0x80 build\kernel\components\finsh\finsh_heap.o
                0x00000000000121a8                finsh_heap
 .bss           0x0000000000012228       0x61 build\kernel\components\libc\compilers\common\time.o
 *fill*         0x0000000000012289        0x3 
 .bss           0x000000000001228c       0x30 libraries\hal_drivers\drv_rtc.o
 .bss           0x00000000000122bc       0x88 libraries\hal_drivers\drv_soft_i2c.o
 .bss           0x0000000000012344       0x34 libraries\hal_drivers\drv_wdt.o
 *fill*         0x0000000000012378        0x8 
 .bss           0x0000000000012380      0x400 libraries\hal_drivers\drv_sdio.o
 .bss           0x0000000000012780       0x58 libraries\hal_drivers\drv_usart.o
 .bss           0x00000000000127d8       0x5c libcpu\cpu\interrupt.o
                0x00000000000127d8                tbl_irq_vector
 .bss           0x0000000000012834        0xc libraries\hal_libraries\bmsis\source\system_ab32vgx.o
                0x0000000000012834                sys
 *(.sbss)
 .sbss          0x0000000000012840        0x4 build\kernel\src\clock.o
 .sbss          0x0000000000012844        0xc build\kernel\src\kservice.o
                0x0000000000012844                rt_assert_hook
 .sbss          0x0000000000012850        0xc build\kernel\src\thread.o
 .sbss          0x000000000001285c        0xc build\kernel\src\irq.o
                0x000000000001285c                rt_interrupt_nest
 .sbss          0x0000000000012868       0x1c build\kernel\src\timer.o
 .sbss          0x0000000000012884        0x8 build\kernel\src\mempool.o
 .sbss          0x000000000001288c       0x20 build\kernel\src\mem.o
 .sbss          0x00000000000128ac       0x14 build\kernel\src\object.o
                0x00000000000128ac                rt_object_put_hook
                0x00000000000128b0                rt_object_take_hook
                0x00000000000128b4                rt_object_trytake_hook
 .sbss          0x00000000000128c0       0x1c build\kernel\src\scheduler.o
                0x00000000000128c4                rt_thread_defunct
                0x00000000000128cc                rt_current_priority
                0x00000000000128d0                rt_current_thread
                0x00000000000128d8                rt_thread_ready_priority_group
 .sbss          0x00000000000128dc       0x14 build\kernel\components\dfs\src\dfs.o
                0x00000000000128e8                filesystem_operation_table
 .sbss          0x00000000000128f0        0x8 build\kernel\components\dfs\filesystems\elmfat\dfs_elm.o
 .sbss          0x00000000000128f8        0xc build\kernel\components\dfs\filesystems\elmfat\ff.o
 .sbss          0x0000000000012904        0x4 build\kernel\components\drivers\misc\adc.o
 .sbss          0x0000000000012908        0x4 build\kernel\components\drivers\serial\serial.o
 .sbss          0x000000000001290c        0x4 build\kernel\components\finsh\cmd.o
 .sbss          0x0000000000012910        0xc build\kernel\components\finsh\finsh_vm.o
                0x0000000000012910                global_syscall_list
                0x0000000000012914                finsh_pc
                0x0000000000012918                finsh_sp
 .sbss          0x000000000001291c       0x18 build\kernel\components\finsh\shell.o
                0x0000000000012920                shell
                0x0000000000012924                _sysvar_table_end
                0x0000000000012928                _sysvar_table_begin
                0x000000000001292c                _syscall_table_end
                0x0000000000012930                _syscall_table_begin
 .sbss          0x0000000000012934        0x4 build\kernel\components\finsh\finsh_var.o
                0x0000000000012934                global_sysvar_list
 .sbss          0x0000000000012938        0x8 build\kernel\components\finsh\finsh_compiler.o
                0x0000000000012938                finsh_compile_pc
                0x000000000001293c                finsh_compile_sp
 .sbss          0x0000000000012940        0x8 build\kernel\components\finsh\finsh_heap.o
 .sbss          0x0000000000012948        0x1 build\kernel\components\finsh\finsh_error.o
                0x0000000000012948                global_errno
 *fill*         0x0000000000012949        0x3 
 .sbss          0x000000000001294c        0x4 build\kernel\components\libc\compilers\common\time.o
 .sbss          0x0000000000012950        0x4 build\kernel\components\libc\compilers\newlib\stdio.o
 .sbss          0x0000000000012954        0x8 libraries\hal_drivers\drv_wdt.o
 .sbss          0x000000000001295c        0x4 libraries\hal_drivers\drv_sdio.o
 .sbss          0x0000000000012960        0x8 libraries\hal_drivers\drv_irrx.o
 .sbss          0x0000000000012968        0x8 libcpu\cpu\interrupt.o
                0x0000000000012968                cpu_irq_comm_hook
                0x000000000001296c                irq_mask
 .sbss          0x0000000000012970       0x10 libcpu\cpu\cpuport.o
                0x0000000000012970                rt_cur_thread_sp
                0x0000000000012974                rt_thread_switch_interrupt_flag
                0x0000000000012978                rt_interrupt_to_thread
                0x000000000001297c                rt_interrupt_from_thread
 .sbss          0x0000000000012980        0x8 libraries\hal_libraries\ab32vg1_hal\source\ab32vg1_hal.o
 .sbss          0x0000000000012988        0x4 d:/program_files/programming/rt-threadstudio/repo/extract/toolchain_support_packages/risc-v/risc-v-gcc/10.1.0/bin/../lib/gcc/riscv64-unknown-elf/10.1.0/../../../../riscv64-unknown-elf/lib/rv32im/ilp32\libc.a(lib_a-setenv_r.o)
 .sbss          0x000000000001298c        0x4 d:/program_files/programming/rt-threadstudio/repo/extract/toolchain_support_packages/risc-v/risc-v-gcc/10.1.0/bin/../lib/gcc/riscv64-unknown-elf/10.1.0/../../../../riscv64-unknown-elf/lib/rv32im/ilp32\libc.a(lib_a-environ.o)
 *(.buf*)
                0x0000000000012990                __bss_end = .
                0x0000000000001990                __bss_size = (__bss_end - __bss_start)

.stack          0x0000000000013000     0x1000
                0x0000000000013000                __irq_stack_start = .
                0x0000000000001000                . = __stack_ram_size
 *fill*         0x0000000000013000     0x1000 
                0x0000000000014000                __irq_stack = .
                0x0000000000001000                __irq_stack_size = (__irq_stack - __irq_stack_start)

.heap           0x000000000001e800    0x11800
                0x000000000001e800                __heap_start = .
                0x0000000000011800                . = __heap_ram_size
 *fill*         0x000000000001e800    0x11800 
                0x0000000000030000                __heap_end = .

.flash          0x000000001000b888    0x2bd78
                0x000000001000b888                . = ALIGN (0x4)
                0x000000001000b888                __fsymtab_start = .
 *(FSymTab)
 FSymTab        0x000000001000b888        0xc build\kernel\src\memheap.o
                0x000000001000b888                __fsym___cmd_memheaptrace
 FSymTab        0x000000001000b894        0xc build\kernel\src\mem.o
                0x000000001000b894                __fsym_list_mem
 FSymTab        0x000000001000b8a0       0x18 build\kernel\components\dfs\src\dfs_posix.o
                0x000000001000b8a0                __fsym_cd
                0x000000001000b8ac                __fsym_mkdir
 FSymTab        0x000000001000b8b8       0x18 build\kernel\components\dfs\src\dfs_fs.o
                0x000000001000b8b8                __fsym_df
                0x000000001000b8c4                __fsym_mkfs
 FSymTab        0x000000001000b8d0        0xc build\kernel\components\dfs\src\dfs.o
                0x000000001000b8d0                __fsym___cmd_list_fd
 FSymTab        0x000000001000b8dc       0x30 build\kernel\components\dfs\src\dfs_file.o
                0x000000001000b8dc                __fsym_copy
                0x000000001000b8e8                __fsym_cat
                0x000000001000b8f4                __fsym_rm
                0x000000001000b900                __fsym_ls
 FSymTab        0x000000001000b90c        0xc build\kernel\components\drivers\misc\adc.o
                0x000000001000b90c                __fsym___cmd_adc
 FSymTab        0x000000001000b918       0x48 build\kernel\components\drivers\misc\rt_drv_pwm.o
                0x000000001000b918                __fsym___cmd_pwm_get
                0x000000001000b924                __fsym___cmd_pwm_set
                0x000000001000b930                __fsym___cmd_pwm_disable
                0x000000001000b93c                __fsym___cmd_pwm_enable
                0x000000001000b948                __fsym_pwm_set
                0x000000001000b954                __fsym_pwm_enable
 FSymTab        0x000000001000b960       0x30 build\kernel\components\drivers\misc\pin.o
                0x000000001000b960                __fsym_pinGet
                0x000000001000b96c                __fsym_pinRead
                0x000000001000b978                __fsym_pinWrite
                0x000000001000b984                __fsym_pinMode
 FSymTab        0x000000001000b990       0x3c build\kernel\components\drivers\rtc\rtc.o
                0x000000001000b990                __fsym___cmd_date
                0x000000001000b99c                __fsym___cmd_list_date
                0x000000001000b9a8                __fsym_set_time
                0x000000001000b9b4                __fsym_set_date
                0x000000001000b9c0                __fsym_list_date
 FSymTab        0x000000001000b9cc      0x138 build\kernel\components\finsh\cmd.o
                0x000000001000b9cc                __fsym_list
                0x000000001000b9d8                __fsym___cmd_list_device
                0x000000001000b9e4                __fsym_list_device
                0x000000001000b9f0                __fsym___cmd_list_timer
                0x000000001000b9fc                __fsym_list_timer
                0x000000001000ba08                __fsym___cmd_list_mempool
                0x000000001000ba14                __fsym_list_mempool
                0x000000001000ba20                __fsym___cmd_list_memheap
                0x000000001000ba2c                __fsym_list_memheap
                0x000000001000ba38                __fsym___cmd_list_msgqueue
                0x000000001000ba44                __fsym_list_msgqueue
                0x000000001000ba50                __fsym___cmd_list_mailbox
                0x000000001000ba5c                __fsym_list_mailbox
                0x000000001000ba68                __fsym___cmd_list_mutex
                0x000000001000ba74                __fsym_list_mutex
                0x000000001000ba80                __fsym___cmd_list_event
                0x000000001000ba8c                __fsym_list_event
                0x000000001000ba98                __fsym___cmd_list_sem
                0x000000001000baa4                __fsym_list_sem
                0x000000001000bab0                __fsym___cmd_list_thread
                0x000000001000babc                __fsym_list_thread
                0x000000001000bac8                __fsym___cmd_version
                0x000000001000bad4                __fsym_version
                0x000000001000bae0                __fsym___cmd_clear
                0x000000001000baec                __fsym_clear
                0x000000001000baf8                __fsym_hello
 FSymTab        0x000000001000bb04       0x9c build\kernel\components\finsh\msh_file.o
                0x000000001000bb04                __fsym___cmd_echo
                0x000000001000bb10                __fsym___cmd_df
                0x000000001000bb1c                __fsym___cmd_umount
                0x000000001000bb28                __fsym___cmd_mount
                0x000000001000bb34                __fsym___cmd_mkfs
                0x000000001000bb40                __fsym___cmd_mkdir
                0x000000001000bb4c                __fsym___cmd_pwd
                0x000000001000bb58                __fsym___cmd_cd
                0x000000001000bb64                __fsym___cmd_rm
                0x000000001000bb70                __fsym___cmd_cat
                0x000000001000bb7c                __fsym___cmd_mv
                0x000000001000bb88                __fsym___cmd_cp
                0x000000001000bb94                __fsym___cmd_ls
 FSymTab        0x000000001000bba0       0x3c build\kernel\components\finsh\msh.o
                0x000000001000bba0                __fsym___cmd_free
                0x000000001000bbac                __fsym___cmd_ps
                0x000000001000bbb8                __fsym___cmd_help
                0x000000001000bbc4                __fsym_msh
                0x000000001000bbd0                __fsym___cmd_exit
                0x000000001000bbdc                __fsymtab_end = .
                0x000000001000bbdc                . = ALIGN (0x4)
                0x000000001000bbdc                __vsymtab_start = .
 *(VSymTab)
 VSymTab        0x000000001000bbdc       0x10 build\kernel\components\finsh\cmd.o
                0x000000001000bbdc                __vsym_dummy
                0x000000001000bbec                __vsymtab_end = .
                0x000000001000bbec                . = ALIGN (0x4)
 *(.text*)
 .text.startup  0x000000001000bbec       0x6a build\applications\main.o
                0x000000001000bbec                main
 .text          0x000000001000bc56       0xfc build\applications\mnt.o
                0x000000001000bc56                sd_mount
                0x000000001000bce2                ab32_sdcard_mount
 .text          0x000000001000bd52      0x65e build\board\ports\audio\drv_sound.o
                0x000000001000bf4e                adpll_init
                0x000000001000c000                dac_start
                0x000000001000c0c2                audio_sem_pend
                0x000000001000c0d4                sound_transmit
                0x000000001000c136                saia_frequency_set
                0x000000001000c18a                saia_channels_set
                0x000000001000c1e6                saia_volume_set
                0x000000001000c2fe                saia_volume_get
 .text          0x000000001000c3b0      0x1d6 build\board\board.o
                0x000000001000c3b0                timer0_cfg
                0x000000001000c3c4                hal_printf
                0x000000001000c450                timer0_init
                0x000000001000c478                hal_mdelay
                0x000000001000c480                rt_hw_systick_init
                0x000000001000c528                rt_hw_board_init
                0x000000001000c57c                rt_hw_us_delay
                0x000000001000c57e                rt_hw_console_output
 .text          0x000000001000c586      0x820 build\kernel\src\memheap.o
                0x000000001000c586                rt_memheap_init
                0x000000001000c65a                rt_memheap_detach
                0x000000001000c6f6                rt_memheap_alloc
                0x000000001000c862                rt_memheap_free
                0x000000001000c9bc                rt_memheap_realloc
                0x000000001000cbee                rt_memheap_dump
                0x000000001000cd3e                memheaptrace
 .text          0x000000001000cda6      0x802 build\kernel\src\mem.o
                0x000000001000cda6                list_mem
                0x000000001000cee8                rt_malloc_sethook
                0x000000001000cef2                rt_free_sethook
                0x000000001000cefc                rt_system_heap_init
                0x000000001000cff8                rt_malloc
                0x000000001000d21a                rt_calloc
                0x000000001000d24a                rt_free
                0x000000001000d41e                rt_realloc
                0x000000001000d582                rt_memory_info
 .text          0x000000001000d5a8      0x3ec build\kernel\components\dfs\filesystems\devfs\devfs.o
                0x000000001000d5a8                dfs_device_fs_mount
                0x000000001000d5b0                dfs_device_fs_ioctl
                0x000000001000d612                dfs_device_fs_read
                0x000000001000d680                dfs_device_fs_write
                0x000000001000d6ee                dfs_device_fs_close
                0x000000001000d782                dfs_device_fs_stat
                0x000000001000d7f6                dfs_device_fs_open
                0x000000001000d8de                dfs_device_fs_getdents
                0x000000001000d972                devfs_init
 .text          0x000000001000d994      0xbae build\kernel\components\dfs\filesystems\elmfat\dfs_elm.o
                0x000000001000d9ce                dfs_elm_mount
                0x000000001000dad8                dfs_elm_unmount
                0x000000001000db62                dfs_elm_mkfs
                0x000000001000dc92                dfs_elm_statfs
                0x000000001000dd32                dfs_elm_open
                0x000000001000de56                dfs_elm_close
                0x000000001000ded2                dfs_elm_ioctl
                0x000000001000df34                dfs_elm_read
                0x000000001000df94                dfs_elm_write
                0x000000001000dff8                dfs_elm_flush
                0x000000001000e030                dfs_elm_lseek
                0x000000001000e0c2                dfs_elm_getdents
                0x000000001000e192                dfs_elm_unlink
                0x000000001000e1f4                dfs_elm_rename
                0x000000001000e25a                dfs_elm_stat
                0x000000001000e336                elm_init
                0x000000001000e358                disk_initialize
                0x000000001000e35c                disk_status
                0x000000001000e360                disk_read
                0x000000001000e398                disk_write
                0x000000001000e3d0                disk_ioctl
                0x000000001000e4ac                get_fattime
                0x000000001000e4b0                ff_cre_syncobj
                0x000000001000e4f2                ff_del_syncobj
                0x000000001000e512                ff_req_grant
                0x000000001000e532                ff_rel_grant
                0x000000001000e53a                ff_memalloc
                0x000000001000e53e                ff_memfree
 .text          0x000000001000e542      0x11e build\kernel\components\dfs\filesystems\elmfat\ffunicode.o
                0x000000001000e542                ff_uni2oem
                0x000000001000e58e                ff_oem2uni
                0x000000001000e5bc                ff_wtoupper
 .text          0x000000001000e660     0x2f96 build\kernel\components\dfs\filesystems\elmfat\ff.o
                0x000000001000fd58                f_mount
                0x000000001000fde4                f_open
                0x0000000010010000                f_read
                0x00000000100101be                f_write
                0x00000000100103c0                f_sync
                0x0000000010010488                f_close
                0x00000000100104be                f_lseek
                0x0000000010010744                f_opendir
                0x00000000100107f0                f_closedir
                0x000000001001081e                f_readdir
                0x00000000100108a6                f_seekdir
                0x00000000100108e8                f_stat
                0x000000001001095e                f_getfree
                0x0000000010010a60                f_truncate
                0x0000000010010b40                f_unlink
                0x0000000010010c12                f_mkdir
                0x0000000010010d54                f_rename
                0x0000000010010ea4                f_mkfs
                0x00000000100115d6                elm_get_vol
 .text          0x00000000100115f6      0x85a build\kernel\components\drivers\audio\audio.o
                0x0000000010011b72                rt_audio_register
                0x0000000010011be2                rt_audio_samplerate_to_speed
                0x0000000010011cb0                rt_audio_tx_complete
                0x0000000010011e22                rt_audio_rx_done
 .text          0x0000000010011e50      0x45c build\kernel\components\drivers\audio\audio_pipe.o
                0x00000000100121a0                rt_audio_pipe_init
                0x000000001001223a                rt_audio_pipe_detach
                0x0000000010012242                rt_audio_pipe_create
                0x0000000010012288                rt_audio_pipe_destroy
 .text          0x00000000100122ac      0x462 build\kernel\components\drivers\hwtimer\hwtimer.o
                0x0000000010012610                rt_device_hwtimer_isr
                0x0000000010012672                rt_device_hwtimer_register
 .text          0x000000001001270e      0x1de build\kernel\components\drivers\i2c\i2c_core.o
                0x000000001001270e                rt_i2c_core_init
                0x0000000010012712                rt_i2c_bus_device_register
                0x0000000010012782                rt_i2c_bus_device_find
                0x00000000100127de                rt_i2c_transfer
                0x000000001001285c                rt_i2c_master_send
                0x000000001001288e                rt_i2c_master_recv
 .text          0x00000000100128ec      0x1bc build\kernel\components\drivers\i2c\i2c_dev.o
                0x0000000010012a56                rt_i2c_bus_device_device_init
 .text          0x0000000010012aa8      0x4a8 build\kernel\components\drivers\i2c\i2c-bit-ops.o
                0x0000000010012f42                rt_i2c_bit_add_bus
 .text          0x0000000010012f50      0x3a6 build\kernel\components\drivers\misc\rt_drv_pwm.o
                0x0000000010012fe4                rt_pwm_enable
                0x0000000010013022                rt_pwm_set
                0x000000001001311a                rt_device_pwm_register
                0x0000000010013160                rt_pwm_disable
                0x00000000100131f6                rt_pwm_get
 .text          0x00000000100132f6      0x268 build\kernel\components\drivers\rtc\rtc.o
                0x00000000100132f6                set_date
                0x0000000010013374                set_time
                0x00000000100133ec                list_date
 .text          0x000000001001355e      0x892 build\kernel\components\drivers\sdio\mmc.o
                0x000000001001368c                mmc_send_op_cond
                0x0000000010013714                init_mmc
 .text          0x0000000010013df0      0xa18 build\kernel\components\drivers\sdio\sd.o
                0x0000000010013e92                mmcsd_send_app_cmd
                0x0000000010013f08                mmcsd_app_set_bus_width
                0x0000000010013f52                mmcsd_send_app_op_cond
                0x0000000010013fe2                mmcsd_send_if_cond
                0x000000001001403c                mmcsd_get_card_addr
                0x0000000010014082                mmcsd_get_scr
                0x0000000010014154                init_sd
 .text          0x0000000010014808      0x6fe build\kernel\components\drivers\sdio\block_dev.o
                0x0000000010014b1a                mmcsd_num_wr_blocks
                0x0000000010014c1e                rt_mmcsd_blk_probe
                0x0000000010014e90                rt_mmcsd_blk_remove
                0x0000000010014f02                rt_mmcsd_blk_init
 .text          0x0000000010014f06     0x1418 build\kernel\components\drivers\sdio\sdio.o
                0x0000000010014f8c                sdio_io_send_op_cond
                0x0000000010015028                sdio_io_rw_direct
                0x0000000010015140                sdio_io_rw_extended
                0x00000000100152e4                sdio_io_rw_extended_block
                0x000000001001540e                sdio_io_readb
                0x0000000010015722                sdio_io_writeb
                0x000000001001574c                sdio_io_readw
                0x000000001001577e                sdio_io_writew
                0x000000001001579e                sdio_io_readl
                0x00000000100157ce                sdio_io_writel
                0x00000000100157ee                sdio_io_read_multi_fifo_b
                0x00000000100157fa                sdio_io_write_multi_fifo_b
                0x0000000010015806                sdio_io_read_multi_incr_b
                0x0000000010015812                sdio_io_write_multi_incr_b
                0x000000001001581e                sdio_free_cis
                0x0000000010015854                init_sdio
                0x0000000010015e0a                sdio_attach_irq
                0x0000000010015f12                sdio_detach_irq
                0x0000000010016004                sdio_irq_wakeup
                0x0000000010016032                sdio_enable_func
                0x00000000100160fc                sdio_disable_func
                0x0000000010016182                sdio_set_drvdata
                0x0000000010016186                sdio_get_drvdata
                0x000000001001618a                sdio_set_block_size
                0x00000000100161f4                sdio_register_driver
                0x000000001001627c                sdio_unregister_driver
                0x000000001001631c                rt_sdio_init
 .text          0x000000001001631e      0xa22 build\kernel\components\drivers\sdio\mmcsd_core.o
                0x0000000010016342                rt_mmcsd_core_init
                0x0000000010016420                mmcsd_host_lock
                0x000000001001642e                mmcsd_host_unlock
                0x000000001001643a                mmcsd_req_complete
                0x0000000010016446                mmcsd_send_request
                0x00000000100164a6                mmcsd_send_cmd
                0x0000000010016536                mmcsd_go_idle
                0x00000000100165ac                mmcsd_detect
                0x000000001001674a                mmcsd_spi_read_ocr
                0x0000000010016794                mmcsd_all_get_cid
                0x00000000100167e4                mmcsd_get_cid
                0x0000000010016914                mmcsd_get_csd
                0x0000000010016a3e                mmcsd_select_card
                0x0000000010016a44                mmcsd_deselect_cards
                0x0000000010016a4a                mmcsd_spi_use_crc
                0x0000000010016a8c                mmcsd_set_chip_select
                0x0000000010016a92                mmcsd_set_clock
                0x0000000010016ae2                mmcsd_set_bus_mode
                0x0000000010016ae8                mmcsd_set_bus_width
                0x0000000010016aee                mmcsd_set_data_timeout
                0x0000000010016bb6                mmcsd_select_voltage
                0x0000000010016c28                mmcsd_wait_cd_changed
                0x0000000010016c5e                mmcsd_change
                0x0000000010016c70                mmcsd_alloc_host
                0x0000000010016d10                mmcsd_free_host
 .text          0x0000000010016d40      0x700 build\kernel\components\drivers\serial\serial.o
                0x000000001001728c                rt_hw_serial_register
                0x00000000100172ee                rt_hw_serial_isr
 .text          0x0000000010017440      0x130 build\kernel\components\drivers\watchdog\watchdog.o
                0x000000001001750e                rt_hw_watchdog_register
 .text          0x0000000010017570      0x1aa build\kernel\components\finsh\finsh_node.o
                0x0000000010017570                finsh_node_init
                0x0000000010017594                finsh_node_allocate
                0x00000000100175c6                finsh_node_new_id
                0x000000001001762e                finsh_node_new_char
                0x0000000010017656                finsh_node_new_int
                0x000000001001767c                finsh_node_new_long
                0x00000000100176a2                finsh_node_new_string
                0x00000000100176f4                finsh_node_new_ptr
 .text          0x000000001001771a      0x7ea build\kernel\components\finsh\finsh_parser.o
                0x0000000010017e5c                finsh_parser_run
                0x0000000010017ee8                finsh_parser_init
 .text          0x0000000010017f04      0xf5e build\kernel\components\finsh\cmd.o
                0x0000000010017f50                hello
                0x0000000010017fde                version
                0x0000000010017ff8                list
                0x00000000100181a0                list_timer
                0x00000000100182a8                list_thread
                0x0000000010018402                list_sem
                0x0000000010018518                list_event
                0x0000000010018624                list_mutex
                0x00000000100186fe                list_mailbox
                0x0000000010018822                list_msgqueue
                0x000000001001893e                list_memheap
                0x0000000010018a10                list_mempool
                0x0000000010018b28                list_device
                0x0000000010018c16                list_prefix
 .text          0x0000000010018e62       0xf6 build\kernel\components\finsh\finsh_vm.o
                0x0000000010018e62                finsh_vm_run
                0x0000000010018ebe                finsh_syscall_append
                0x0000000010018f00                finsh_syscall_lookup
 .text          0x0000000010018f58      0x948 build\kernel\components\finsh\msh_file.o
                0x0000000010018f58                cmd_ls
                0x0000000010018f84                cmd_pwd
                0x00000000100190f2                cmd_rm
                0x0000000010019226                cmd_mkfs
                0x0000000010019294                cmd_mount
                0x000000001001936c                cmd_umount
                0x00000000100193d4                cmd_cp
                0x000000001001941c                cmd_mv
                0x000000001001952e                cmd_cat
                0x0000000010019586                cmd_cd
                0x00000000100195d6                cmd_mkdir
                0x000000001001961e                cmd_df
                0x000000001001967e                cmd_echo
                0x000000001001970c                msh_exec_script
 .text          0x00000000100198a0      0xa56 build\kernel\components\finsh\shell.o
                0x00000000100198e4                finsh_set_prompt
                0x0000000010019928                finsh_get_prompt
                0x0000000010019a18                finsh_get_prompt_mode
                0x0000000010019a58                finsh_set_prompt_mode
                0x0000000010019aa4                finsh_system_init
                0x0000000010019b6e                finsh_set_device
                0x0000000010019c30                finsh_get_device
                0x0000000010019c6e                finsh_set_echo
                0x0000000010019cb8                finsh_get_echo
                0x0000000010019cf6                finsh_run_line
                0x0000000010019dcc                finsh_thread_entry
                0x000000001001a2d2                finsh_system_function_init
                0x000000001001a2e4                finsh_system_var_init
 .text          0x000000001001a2f6      0x1aa build\kernel\components\finsh\finsh_var.o
                0x000000001001a2f6                finsh_var_init
                0x000000001001a31a                finsh_var_insert
                0x000000001001a382                finsh_var_delete
                0x000000001001a3c8                finsh_var_lookup
                0x000000001001a400                finsh_sysvar_append
                0x000000001001a448                finsh_sysvar_lookup
 .text          0x000000001001a4a0      0xef0 build\kernel\components\finsh\finsh_compiler.o
                0x000000001001b312                finsh_compiler_run
 .text          0x000000001001b390      0x1fc build\kernel\components\finsh\finsh_heap.o
                0x000000001001b3b4                finsh_heap_init
                0x000000001001b3f6                finsh_heap_free
                0x000000001001b4ae                finsh_heap_allocate
 .text          0x000000001001b58c      0x842 build\kernel\components\finsh\finsh_ops.o
                0x000000001001b58c                OP_no_op
                0x000000001001b58e                OP_add_byte
                0x000000001001b5ae                OP_add_word
                0x000000001001b5ce                OP_add_dword
                0x000000001001b5ee                OP_sub_byte
                0x000000001001b60e                OP_sub_word
                0x000000001001b62e                OP_sub_dword
                0x000000001001b64e                OP_div_byte
                0x000000001001b670                OP_div_word
                0x000000001001b692                OP_div_dword
                0x000000001001b6b4                OP_mod_byte
                0x000000001001b6d6                OP_mod_word
                0x000000001001b6f8                OP_mod_dword
                0x000000001001b71a                OP_mul_byte
                0x000000001001b73c                OP_mul_word
                0x000000001001b75e                OP_mul_dword
                0x000000001001b780                OP_and_byte
                0x000000001001b7a0                OP_and_word
                0x000000001001b7c0                OP_and_dword
                0x000000001001b7e0                OP_or_byte
                0x000000001001b800                OP_or_word
                0x000000001001b820                OP_or_dword
                0x000000001001b840                OP_xor_byte
                0x000000001001b860                OP_xor_word
                0x000000001001b880                OP_xor_dword
                0x000000001001b8a0                OP_bw_byte
                0x000000001001b8b6                OP_bw_word
                0x000000001001b8cc                OP_bw_dword
                0x000000001001b8e2                OP_shl_byte
                0x000000001001b904                OP_shl_word
                0x000000001001b926                OP_shl_dword
                0x000000001001b948                OP_shr_byte
                0x000000001001b96a                OP_shr_word
                0x000000001001b98c                OP_shr_dword
                0x000000001001b9ae                OP_ld_byte
                0x000000001001b9d8                OP_ld_word
                0x000000001001ba0a                OP_ld_dword
                0x000000001001ba4a                OP_ld_value_byte
                0x000000001001ba90                OP_ld_value_byte_stack
                0x000000001001baa6                OP_ld_value_word
                0x000000001001baec                OP_ld_value_word_stack
                0x000000001001bb02                OP_ld_value_dword
                0x000000001001bb44                OP_ld_value_dword_stack
                0x000000001001bb58                OP_st_byte
                0x000000001001bb76                OP_st_word
                0x000000001001bb92                OP_st_dword
                0x000000001001bbac                OP_pop
                0x000000001001bbbc                OP_call
 .text          0x000000001001bdce       0x34 build\kernel\components\finsh\finsh_error.o
                0x000000001001bdce                finsh_error_init
                0x000000001001bdda                finsh_error_set
                0x000000001001bde6                finsh_errno
                0x000000001001bdf0                finsh_error_string
 .text          0x000000001001be02      0x54c build\kernel\components\finsh\msh.o
                0x000000001001be1c                msh_help
                0x000000001001be98                cmd_ps
                0x000000001001beae                cmd_free
                0x000000001001bec4                msh_is_used
                0x000000001001bece                msh_exec
                0x000000001001c0a0                msh_auto_complete_path
                0x000000001001c268                msh_auto_complete
 .text          0x000000001001c34e      0x5ca build\kernel\components\finsh\finsh_token.o
                0x000000001001c3b2                finsh_token_init
                0x000000001001c3d4                finsh_token_get_token
                0x000000001001c3e2                token_get_string
                0x000000001001c466                finsh_token_token
 .text          0x000000001001c918       0x70 build\kernel\components\finsh\finsh_init.o
                0x000000001001c918                finsh_init
                0x000000001001c93e                finsh_stack_bottom
                0x000000001001c948                finsh_flush
                0x000000001001c966                finsh_reset
 .text          0x000000001001c988      0x4b4 build\kernel\components\libc\compilers\common\time.o
                0x000000001001c9ca                gmtime_r
                0x000000001001ca84                gmtime
                0x000000001001ca8e                localtime_r
                0x000000001001caaa                localtime
                0x000000001001cab4                asctime_r
                0x000000001001cb5c                asctime
                0x000000001001cb66                ctime_r
                0x000000001001cb84                ctime
                0x000000001001cb98                time
                0x000000001001cc0e                clock
                0x000000001001cc16                stime
                0x000000001001cc72                timegm
                0x000000001001cde8                mktime
                0x000000001001cdea                gettimeofday
                0x000000001001ce1c                settimeofday
 .text          0x000000001001ce3c       0x48 build\kernel\components\libc\compilers\common\stdlib.o
                0x000000001001ce3c                __rt_libc_exit
                0x000000001001ce80                __rt_libc_system
 .text          0x000000001001ce84       0x38 build\kernel\components\libc\compilers\newlib\libc.o
                0x000000001001ce84                libc_system_init
 .text          0x000000001001cebc      0x148 build\kernel\components\libc\compilers\newlib\syscalls.o
                0x000000001001cebc                __errno
                0x000000001001cec4                _getpid_r
                0x000000001001cec8                _close_r
                0x000000001001ced2                _execve_r
                0x000000001001cedc                _fcntl_r
                0x000000001001cee6                _fork_r
                0x000000001001cef0                _fstat_r
                0x000000001001cefa                _isatty_r
                0x000000001001cf00                _kill_r
                0x000000001001cf0a                _link_r
                0x000000001001cf14                _lseek_r
                0x000000001001cf22                _mkdir_r
                0x000000001001cf2e                _open_r
                0x000000001001cf3c                _read_r
                0x000000001001cf4a                _rename_r
                0x000000001001cf56                _stat_r
                0x000000001001cf62                _unlink_r
                0x000000001001cf6c                _wait_r
                0x000000001001cf76                _write_r
                0x000000001001cf84                _malloc_r
                0x000000001001cfa2                _realloc_r
                0x000000001001cfc2                _calloc_r
                0x000000001001cfe2                _free_r
                0x000000001001cfe8                _exit
                0x000000001001cff6                _system
                0x000000001001cffa                __libc_init_array
                0x000000001001cffc                umask
                0x000000001001d000                flock
 .text          0x000000001001d004       0xc4 build\kernel\components\libc\compilers\newlib\stdio.o
                0x000000001001d004                libc_stdio_set_console
                0x000000001001d0b4                libc_stdio_get_console
 .text          0x000000001001d0c8      0x30a libraries\hal_drivers\drv_rtc.o
                0x000000001001d0c8                get_weekday
                0x000000001001d0f2                irtc_write
                0x000000001001d102                irtc_read
                0x000000001001d11a                irtc_time_write
                0x000000001001d186                irtc_time_read
                0x000000001001d250                irtc_sfr_write
                0x000000001001d298                irtc_sfr_read
                0x000000001001d2dc                hal_rtc_init
                0x000000001001d348                rt_hw_rtc_init
 .text          0x000000001001d3d2      0x20a libraries\hal_drivers\drv_soft_i2c.o
                0x000000001001d4f4                rt_hw_i2c_init
 .text          0x000000001001d5dc      0x302 libraries\hal_drivers\drv_wdt.o
                0x000000001001d5e0                rt_wdt_init
 .text          0x000000001001d8de      0x7aa libraries\hal_drivers\drv_sdio.o
                0x000000001001d900                rthw_sdio_irq_update
                0x000000001001de2a                sdio_host_create
                0x000000001001dfea                rt_hw_sdio_init
                0x000000001001e07c                ab32_mmcsd_change
 .text          0x000000001001e088      0x13e libraries\hal_drivers\drv_adc.o
 .text          0x000000001001e1c6       0xa8 libraries\hal_drivers\drv_irrx.o
                0x000000001001e264                ab32_clr_irkey
 .text          0x000000001001e26e      0x214 libraries\hal_drivers\drv_usart.o
                0x000000001001e3f0                rt_hw_usart_init
 .text          0x000000001001e482      0x362 libraries\hal_drivers\drv_pwm.o
 .text          0x000000001001e7e4      0x272 libraries\hal_drivers\drv_hwtimer.o
 .text          0x000000001001ea56       0x6c libcpu\cpu\cpuport.o
                0x000000001001ea56                rt_hw_stack_init
                0x000000001001ea74                rt_hw_cpu_shutdown
 .text          0x000000001001eac2      0x3b4 libraries\hal_libraries\bmsis\source\system_ab32vgx.o
                0x000000001001eac2                get_clksel_val
                0x000000001001ead2                get_cur_sysclk
                0x000000001001eadc                get_sysclk_nhz
                0x000000001001eb00                get_sd_rate
                0x000000001001eb04                set_sd_baud
                0x000000001001eb62                update_sd0baud
                0x000000001001eb9e                sysclk_update_baud
                0x000000001001ebda                update_uart0baud_in_sysclk
                0x000000001001ebf8                set_sys_uart0baud
                0x000000001001ec02                set_peripherals_clkdiv_safety
                0x000000001001ec30                set_peripherals_clkdiv
                0x000000001001eca2                set_sysclk
 *fill*         0x000000001001ee76        0x2 
 .text          0x000000001001ee78       0x18 d:/program_files/programming/rt-threadstudio/repo/extract/toolchain_support_packages/risc-v/risc-v-gcc/10.1.0/bin/../lib/gcc/riscv64-unknown-elf/10.1.0/../../../../riscv64-unknown-elf/lib/rv32im/ilp32\libc.a(lib_a-atoi.o)
                0x000000001001ee78                atoi
                0x000000001001ee84                _atoi_r
 .text          0x000000001001ee90      0x1a8 d:/program_files/programming/rt-threadstudio/repo/extract/toolchain_support_packages/risc-v/risc-v-gcc/10.1.0/bin/../lib/gcc/riscv64-unknown-elf/10.1.0/../../../../riscv64-unknown-elf/lib/rv32im/ilp32\libc.a(lib_a-fclose.o)
                0x000000001001ef50                _fclose_r
                0x000000001001efc0                fclose
 .text          0x000000001001f038      0x348 d:/program_files/programming/rt-threadstudio/repo/extract/toolchain_support_packages/risc-v/risc-v-gcc/10.1.0/bin/../lib/gcc/riscv64-unknown-elf/10.1.0/../../../../riscv64-unknown-elf/lib/rv32im/ilp32\libc.a(lib_a-fflush.o)
                0x000000001001f038                __sflush_r
                0x000000001001f29c                _fflush_r
                0x000000001001f2fc                fflush
 .text          0x000000001001f380       0x68 d:/program_files/programming/rt-threadstudio/repo/extract/toolchain_support_packages/risc-v/risc-v-gcc/10.1.0/bin/../lib/gcc/riscv64-unknown-elf/10.1.0/../../../../riscv64-unknown-elf/lib/rv32im/ilp32\libc.a(lib_a-fileno.o)
                0x000000001001f380                fileno
 .text          0x000000001001f3e8      0x3a0 d:/program_files/programming/rt-threadstudio/repo/extract/toolchain_support_packages/risc-v/risc-v-gcc/10.1.0/bin/../lib/gcc/riscv64-unknown-elf/10.1.0/../../../../riscv64-unknown-elf/lib/rv32im/ilp32\libc.a(lib_a-findfp.o)
                0x000000001001f3f0                _cleanup_r
                0x000000001001f588                __sfmoreglue
                0x000000001001f5f4                __sfp
                0x000000001001f72c                _cleanup
                0x000000001001f740                __sinit
                0x000000001001f750                __sfp_lock_acquire
                0x000000001001f754                __sfp_lock_release
                0x000000001001f758                __sinit_lock_acquire
                0x000000001001f75c                __sinit_lock_release
                0x000000001001f760                __fp_lock_all
                0x000000001001f774                __fp_unlock_all
 .text          0x000000001001f788      0x140 d:/program_files/programming/rt-threadstudio/repo/extract/toolchain_support_packages/risc-v/risc-v-gcc/10.1.0/bin/../lib/gcc/riscv64-unknown-elf/10.1.0/../../../../riscv64-unknown-elf/lib/rv32im/ilp32\libc.a(lib_a-fopen.o)
                0x000000001001f788                _fopen_r
                0x000000001001f8b0                fopen
 .text          0x000000001001f8c8       0x20 d:/program_files/programming/rt-threadstudio/repo/extract/toolchain_support_packages/risc-v/risc-v-gcc/10.1.0/bin/../lib/gcc/riscv64-unknown-elf/10.1.0/../../../../riscv64-unknown-elf/lib/rv32im/ilp32\libc.a(lib_a-fseek.o)
                0x000000001001f8c8                _fseek_r
                0x000000001001f8cc                fseek
 .text          0x000000001001f8e8      0x418 d:/program_files/programming/rt-threadstudio/repo/extract/toolchain_support_packages/risc-v/risc-v-gcc/10.1.0/bin/../lib/gcc/riscv64-unknown-elf/10.1.0/../../../../riscv64-unknown-elf/lib/rv32im/ilp32\libc.a(lib_a-fseeko.o)
                0x000000001001f8e8                _fseeko_r
                0x000000001001fce4                fseeko
 .text          0x000000001001fd00      0x130 d:/program_files/programming/rt-threadstudio/repo/extract/toolchain_support_packages/risc-v/risc-v-gcc/10.1.0/bin/../lib/gcc/riscv64-unknown-elf/10.1.0/../../../../riscv64-unknown-elf/lib/rv32im/ilp32\libc.a(lib_a-ftello.o)
                0x000000001001fd00                _ftello_r
                0x000000001001fe20                ftello
 .text          0x000000001001fe30      0x158 d:/program_files/programming/rt-threadstudio/repo/extract/toolchain_support_packages/risc-v/risc-v-gcc/10.1.0/bin/../lib/gcc/riscv64-unknown-elf/10.1.0/../../../../riscv64-unknown-elf/lib/rv32im/ilp32\libc.a(lib_a-fwalk.o)
                0x000000001001fe30                _fwalk
                0x000000001001fed4                _fwalk_reent
 .text          0x000000001001ff88      0x260 d:/program_files/programming/rt-threadstudio/repo/extract/toolchain_support_packages/risc-v/risc-v-gcc/10.1.0/bin/../lib/gcc/riscv64-unknown-elf/10.1.0/../../../../riscv64-unknown-elf/lib/rv32im/ilp32\libc.a(lib_a-makebuf.o)
                0x000000001001ff88                __smakebuf_r
                0x0000000010020118                __swhatbuf_r
 .text          0x00000000100201e8       0x78 d:/program_files/programming/rt-threadstudio/repo/extract/toolchain_support_packages/risc-v/risc-v-gcc/10.1.0/bin/../lib/gcc/riscv64-unknown-elf/10.1.0/../../../../riscv64-unknown-elf/lib/rv32im/ilp32\libc.a(lib_a-memcmp.o)
                0x00000000100201e8                memcmp
 .text          0x0000000010020260      0x11c d:/program_files/programming/rt-threadstudio/repo/extract/toolchain_support_packages/risc-v/risc-v-gcc/10.1.0/bin/../lib/gcc/riscv64-unknown-elf/10.1.0/../../../../riscv64-unknown-elf/lib/rv32im/ilp32\libc.a(lib_a-memcpy.o)
                0x0000000010020260                memcpy
 .text          0x000000001002037c       0xdc d:/program_files/programming/rt-threadstudio/repo/extract/toolchain_support_packages/risc-v/risc-v-gcc/10.1.0/bin/../lib/gcc/riscv64-unknown-elf/10.1.0/../../../../riscv64-unknown-elf/lib/rv32im/ilp32\libc.a(lib_a-memset.o)
                0x000000001002037c                memset
 .text          0x0000000010020458       0x10 d:/program_files/programming/rt-threadstudio/repo/extract/toolchain_support_packages/risc-v/risc-v-gcc/10.1.0/bin/../lib/gcc/riscv64-unknown-elf/10.1.0/../../../../riscv64-unknown-elf/lib/rv32im/ilp32\libc.a(lib_a-putenv.o)
                0x0000000010020458                putenv
 .text          0x0000000010020468       0x98 d:/program_files/programming/rt-threadstudio/repo/extract/toolchain_support_packages/risc-v/risc-v-gcc/10.1.0/bin/../lib/gcc/riscv64-unknown-elf/10.1.0/../../../../riscv64-unknown-elf/lib/rv32im/ilp32\libc.a(lib_a-putenv_r.o)
                0x0000000010020468                _putenv_r
 .text          0x0000000010020500      0x228 d:/program_files/programming/rt-threadstudio/repo/extract/toolchain_support_packages/risc-v/risc-v-gcc/10.1.0/bin/../lib/gcc/riscv64-unknown-elf/10.1.0/../../../../riscv64-unknown-elf/lib/rv32im/ilp32\libc.a(lib_a-refill.o)
                0x000000001002051c                __srefill_r
 .text          0x0000000010020728      0x35c d:/program_files/programming/rt-threadstudio/repo/extract/toolchain_support_packages/risc-v/risc-v-gcc/10.1.0/bin/../lib/gcc/riscv64-unknown-elf/10.1.0/../../../../riscv64-unknown-elf/lib/rv32im/ilp32\libc.a(lib_a-setenv_r.o)
                0x0000000010020728                _setenv_r
                0x00000000100209b4                _unsetenv_r
 .text          0x0000000010020a84      0x23c d:/program_files/programming/rt-threadstudio/repo/extract/toolchain_support_packages/risc-v/risc-v-gcc/10.1.0/bin/../lib/gcc/riscv64-unknown-elf/10.1.0/../../../../riscv64-unknown-elf/lib/rv32im/ilp32\libc.a(lib_a-setvbuf.o)
                0x0000000010020a84                setvbuf
 .text          0x0000000010020cc0      0x1c0 d:/program_files/programming/rt-threadstudio/repo/extract/toolchain_support_packages/risc-v/risc-v-gcc/10.1.0/bin/../lib/gcc/riscv64-unknown-elf/10.1.0/../../../../riscv64-unknown-elf/lib/rv32im/ilp32\libc.a(lib_a-snprintf.o)
                0x0000000010020cc0                _snprintf_r
                0x0000000010020d9c                snprintf
 .text          0x0000000010020e80      0x15c d:/program_files/programming/rt-threadstudio/repo/extract/toolchain_support_packages/risc-v/risc-v-gcc/10.1.0/bin/../lib/gcc/riscv64-unknown-elf/10.1.0/../../../../riscv64-unknown-elf/lib/rv32im/ilp32\libc.a(lib_a-stdio.o)
                0x0000000010020e80                __sread
                0x0000000010020edc                __seofread
                0x0000000010020ee4                __swrite
                0x0000000010020f6c                __sseek
                0x0000000010020fd4                __sclose
 .text          0x0000000010020fdc       0x88 d:/program_files/programming/rt-threadstudio/repo/extract/toolchain_support_packages/risc-v/risc-v-gcc/10.1.0/bin/../lib/gcc/riscv64-unknown-elf/10.1.0/../../../../riscv64-unknown-elf/lib/rv32im/ilp32\libc.a(lib_a-strcat.o)
                0x0000000010020fdc                strcat
 .text          0x0000000010021064      0x140 d:/program_files/programming/rt-threadstudio/repo/extract/toolchain_support_packages/risc-v/risc-v-gcc/10.1.0/bin/../lib/gcc/riscv64-unknown-elf/10.1.0/../../../../riscv64-unknown-elf/lib/rv32im/ilp32\libc.a(lib_a-strchr.o)
                0x0000000010021064                strchr
 .text          0x00000000100211a4      0x17c d:/program_files/programming/rt-threadstudio/repo/extract/toolchain_support_packages/risc-v/risc-v-gcc/10.1.0/bin/../lib/gcc/riscv64-unknown-elf/10.1.0/../../../../riscv64-unknown-elf/lib/rv32im/ilp32\libc.a(lib_a-strcmp.o)
                0x00000000100211a4                strcmp
 .text          0x0000000010021320       0xb0 d:/program_files/programming/rt-threadstudio/repo/extract/toolchain_support_packages/risc-v/risc-v-gcc/10.1.0/bin/../lib/gcc/riscv64-unknown-elf/10.1.0/../../../../riscv64-unknown-elf/lib/rv32im/ilp32\libc.a(lib_a-strcpy.o)
                0x0000000010021320                strcpy
 .text          0x00000000100213d0       0x64 d:/program_files/programming/rt-threadstudio/repo/extract/toolchain_support_packages/risc-v/risc-v-gcc/10.1.0/bin/../lib/gcc/riscv64-unknown-elf/10.1.0/../../../../riscv64-unknown-elf/lib/rv32im/ilp32\libc.a(lib_a-strdup_r.o)
                0x00000000100213d0                _strdup_r
 .text          0x0000000010021434       0x8c d:/program_files/programming/rt-threadstudio/repo/extract/toolchain_support_packages/risc-v/risc-v-gcc/10.1.0/bin/../lib/gcc/riscv64-unknown-elf/10.1.0/../../../../riscv64-unknown-elf/lib/rv32im/ilp32\libc.a(lib_a-strlen.o)
                0x0000000010021434                strlen
 .text          0x00000000100214c0       0xc8 d:/program_files/programming/rt-threadstudio/repo/extract/toolchain_support_packages/risc-v/risc-v-gcc/10.1.0/bin/../lib/gcc/riscv64-unknown-elf/10.1.0/../../../../riscv64-unknown-elf/lib/rv32im/ilp32\libc.a(lib_a-strncmp.o)
                0x00000000100214c0                strncmp
 .text          0x0000000010021588       0xa8 d:/program_files/programming/rt-threadstudio/repo/extract/toolchain_support_packages/risc-v/risc-v-gcc/10.1.0/bin/../lib/gcc/riscv64-unknown-elf/10.1.0/../../../../riscv64-unknown-elf/lib/rv32im/ilp32\libc.a(lib_a-strncpy.o)
                0x0000000010021588                strncpy
 .text          0x0000000010021630       0x58 d:/program_files/programming/rt-threadstudio/repo/extract/toolchain_support_packages/risc-v/risc-v-gcc/10.1.0/bin/../lib/gcc/riscv64-unknown-elf/10.1.0/../../../../riscv64-unknown-elf/lib/rv32im/ilp32\libc.a(lib_a-strrchr.o)
                0x0000000010021630                strrchr
 .text          0x0000000010021688      0x6b8 d:/program_files/programming/rt-threadstudio/repo/extract/toolchain_support_packages/risc-v/risc-v-gcc/10.1.0/bin/../lib/gcc/riscv64-unknown-elf/10.1.0/../../../../riscv64-unknown-elf/lib/rv32im/ilp32\libc.a(lib_a-strstr.o)
                0x0000000010021aa4                strstr
 .text          0x0000000010021d40      0x28c d:/program_files/programming/rt-threadstudio/repo/extract/toolchain_support_packages/risc-v/risc-v-gcc/10.1.0/bin/../lib/gcc/riscv64-unknown-elf/10.1.0/../../../../riscv64-unknown-elf/lib/rv32im/ilp32\libc.a(lib_a-strtol.o)
                0x0000000010021ef4                _strtol_r
                0x0000000010021f2c                strtol_l
                0x0000000010021f7c                strtol
 .text          0x0000000010021fcc     0x2944 d:/program_files/programming/rt-threadstudio/repo/extract/toolchain_support_packages/risc-v/risc-v-gcc/10.1.0/bin/../lib/gcc/riscv64-unknown-elf/10.1.0/../../../../riscv64-unknown-elf/lib/rv32im/ilp32\libc.a(lib_a-svfprintf.o)
                0x0000000010021fcc                _svfprintf_r
 .text          0x0000000010024910        0x8 d:/program_files/programming/rt-threadstudio/repo/extract/toolchain_support_packages/risc-v/risc-v-gcc/10.1.0/bin/../lib/gcc/riscv64-unknown-elf/10.1.0/../../../../riscv64-unknown-elf/lib/rv32im/ilp32\libc.a(lib_a-envlock.o)
                0x0000000010024910                __env_lock
                0x0000000010024914                __env_unlock
 .text          0x0000000010024918       0xac d:/program_files/programming/rt-threadstudio/repo/extract/toolchain_support_packages/risc-v/risc-v-gcc/10.1.0/bin/../lib/gcc/riscv64-unknown-elf/10.1.0/../../../../riscv64-unknown-elf/lib/rv32im/ilp32\libc.a(lib_a-flags.o)
                0x0000000010024918                __sflags
 .text          0x00000000100249c4      0x120 d:/program_files/programming/rt-threadstudio/repo/extract/toolchain_support_packages/risc-v/risc-v-gcc/10.1.0/bin/../lib/gcc/riscv64-unknown-elf/10.1.0/../../../../riscv64-unknown-elf/lib/rv32im/ilp32\libc.a(lib_a-getenv_r.o)
                0x00000000100249c4                _findenv_r
                0x0000000010024ac8                _getenv_r
 .text          0x0000000010024ae4     0x2c84 d:/program_files/programming/rt-threadstudio/repo/extract/toolchain_support_packages/risc-v/risc-v-gcc/10.1.0/bin/../lib/gcc/riscv64-unknown-elf/10.1.0/../../../../riscv64-unknown-elf/lib/rv32im/ilp32\libc.a(lib_a-ldtoa.o)
                0x00000000100263c8                _ldtoa_r
                0x00000000100276f0                _ldcheck
 .text          0x0000000010027768       0x20 d:/program_files/programming/rt-threadstudio/repo/extract/toolchain_support_packages/risc-v/risc-v-gcc/10.1.0/bin/../lib/gcc/riscv64-unknown-elf/10.1.0/../../../../riscv64-unknown-elf/lib/rv32im/ilp32\libc.a(lib_a-localeconv.o)
                0x0000000010027768                __localeconv_l
                0x0000000010027770                _localeconv_r
                0x000000001002777c                localeconv
 .text          0x0000000010027788      0x104 d:/program_files/programming/rt-threadstudio/repo/extract/toolchain_support_packages/risc-v/risc-v-gcc/10.1.0/bin/../lib/gcc/riscv64-unknown-elf/10.1.0/../../../../riscv64-unknown-elf/lib/rv32im/ilp32\libc.a(lib_a-locale.o)
                0x0000000010027788                _setlocale_r
                0x0000000010027804                __locale_mb_cur_max
                0x0000000010027810                setlocale
 .text          0x000000001002788c       0x20 d:/program_files/programming/rt-threadstudio/repo/extract/toolchain_support_packages/risc-v/risc-v-gcc/10.1.0/bin/../lib/gcc/riscv64-unknown-elf/10.1.0/../../../../riscv64-unknown-elf/lib/rv32im/ilp32\libc.a(lib_a-malloc.o)
                0x000000001002788c                malloc
                0x000000001002789c                free
 .text          0x00000000100278ac       0x74 d:/program_files/programming/rt-threadstudio/repo/extract/toolchain_support_packages/risc-v/risc-v-gcc/10.1.0/bin/../lib/gcc/riscv64-unknown-elf/10.1.0/../../../../riscv64-unknown-elf/lib/rv32im/ilp32\libc.a(lib_a-mbtowc_r.o)
                0x00000000100278ac                _mbtowc_r
                0x00000000100278b8                __ascii_mbtowc
 .text          0x0000000010027920       0xc8 d:/program_files/programming/rt-threadstudio/repo/extract/toolchain_support_packages/risc-v/risc-v-gcc/10.1.0/bin/../lib/gcc/riscv64-unknown-elf/10.1.0/../../../../riscv64-unknown-elf/lib/rv32im/ilp32\libc.a(lib_a-memchr.o)
                0x0000000010027920                memchr
 .text          0x00000000100279e8     0x1200 d:/program_files/programming/rt-threadstudio/repo/extract/toolchain_support_packages/risc-v/risc-v-gcc/10.1.0/bin/../lib/gcc/riscv64-unknown-elf/10.1.0/../../../../riscv64-unknown-elf/lib/rv32im/ilp32\libc.a(lib_a-mprec.o)
                0x00000000100279e8                _Balloc
                0x0000000010027a90                _Bfree
                0x0000000010027ab4                __multadd
                0x0000000010027c00                __s2b
                0x0000000010027d34                __hi0bits
                0x0000000010027dac                __lo0bits
                0x0000000010027e8c                __i2b
                0x0000000010027f3c                __multiply
                0x0000000010028170                __pow5mult
                0x00000000100282c8                __lshift
                0x0000000010028458                __mcmp
                0x00000000100284b0                __mdiff
                0x00000000100286f4                __ulp
                0x0000000010028754                __b2d
                0x000000001002886c                __d2b
                0x00000000100289d0                __ratio
                0x0000000010028a78                _mprec_log10
                0x0000000010028b1c                __copybits
                0x0000000010028b84                __any_on
 .text          0x0000000010028be8       0xac d:/program_files/programming/rt-threadstudio/repo/extract/toolchain_support_packages/risc-v/risc-v-gcc/10.1.0/bin/../lib/gcc/riscv64-unknown-elf/10.1.0/../../../../riscv64-unknown-elf/lib/rv32im/ilp32\libc.a(lib_a-s_frexp.o)
                0x0000000010028be8                frexp
 .text          0x0000000010028c94       0xe8 d:/program_files/programming/rt-threadstudio/repo/extract/toolchain_support_packages/risc-v/risc-v-gcc/10.1.0/bin/../lib/gcc/riscv64-unknown-elf/10.1.0/../../../../riscv64-unknown-elf/lib/rv32im/ilp32\libc.a(lib_a-sprintf.o)
                0x0000000010028c94                _sprintf_r
                0x0000000010028d00                sprintf
 .text          0x0000000010028d7c       0x38 d:/program_files/programming/rt-threadstudio/repo/extract/toolchain_support_packages/risc-v/risc-v-gcc/10.1.0/bin/../lib/gcc/riscv64-unknown-elf/10.1.0/../../../../riscv64-unknown-elf/lib/rv32im/ilp32\libc.a(lib_a-strnlen.o)
                0x0000000010028d7c                strnlen
 .text          0x0000000010028db4     0x1280 d:/program_files/programming/rt-threadstudio/repo/extract/toolchain_support_packages/risc-v/risc-v-gcc/10.1.0/bin/../lib/gcc/riscv64-unknown-elf/10.1.0/../../../../riscv64-unknown-elf/lib/rv32im/ilp32\libc.a(lib_a-svfiprintf.o)
                0x0000000010028db4                __ssprint_r
                0x0000000010028f70                _svfiprintf_r
 .text          0x000000001002a034       0x3c d:/program_files/programming/rt-threadstudio/repo/extract/toolchain_support_packages/risc-v/risc-v-gcc/10.1.0/bin/../lib/gcc/riscv64-unknown-elf/10.1.0/../../../../riscv64-unknown-elf/lib/rv32im/ilp32\libc.a(lib_a-wctomb_r.o)
                0x000000001002a034                _wctomb_r
                0x000000001002a040                __ascii_wctomb
 .text          0x000000001002a070       0x6c d:/program_files/programming/rt-threadstudio/repo/extract/toolchain_support_packages/risc-v/risc-v-gcc/10.1.0/bin/../lib/gcc/riscv64-unknown-elf/10.1.0/../../../../riscv64-unknown-elf/lib/rv32im/ilp32\libc.a(lib_a-assert.o)
                0x000000001002a070                __assert_func
                0x000000001002a0c8                __assert
 .text          0x000000001002a0dc       0x88 d:/program_files/programming/rt-threadstudio/repo/extract/toolchain_support_packages/risc-v/risc-v-gcc/10.1.0/bin/../lib/gcc/riscv64-unknown-elf/10.1.0/../../../../riscv64-unknown-elf/lib/rv32im/ilp32\libc.a(lib_a-fiprintf.o)
                0x000000001002a0dc                _fiprintf_r
                0x000000001002a114                fiprintf
 .text          0x000000001002a164      0x120 d:/program_files/programming/rt-threadstudio/repo/extract/toolchain_support_packages/risc-v/risc-v-gcc/10.1.0/bin/../lib/gcc/riscv64-unknown-elf/10.1.0/../../../../riscv64-unknown-elf/lib/rv32im/ilp32\libc.a(lib_a-memmove-stub.o)
                0x000000001002a164                memmove
 .text          0x000000001002a284     0x1448 d:/program_files/programming/rt-threadstudio/repo/extract/toolchain_support_packages/risc-v/risc-v-gcc/10.1.0/bin/../lib/gcc/riscv64-unknown-elf/10.1.0/../../../../riscv64-unknown-elf/lib/rv32im/ilp32\libc.a(lib_a-vfiprintf.o)
                0x000000001002a378                __sprint_r
                0x000000001002a390                _vfiprintf_r
                0x000000001002b5f0                vfiprintf
 .text          0x000000001002b6cc      0x16c d:/program_files/programming/rt-threadstudio/repo/extract/toolchain_support_packages/risc-v/risc-v-gcc/10.1.0/bin/../lib/gcc/riscv64-unknown-elf/10.1.0/../../../../riscv64-unknown-elf/lib/rv32im/ilp32\libc.a(lib_a-wsetup.o)
                0x000000001002b6cc                __swsetup_r
 .text          0x000000001002b838       0x18 d:/program_files/programming/rt-threadstudio/repo/extract/toolchain_support_packages/risc-v/risc-v-gcc/10.1.0/bin/../lib/gcc/riscv64-unknown-elf/10.1.0/../../../../riscv64-unknown-elf/lib/rv32im/ilp32\libc.a(lib_a-abort.o)
                0x000000001002b838                abort
 .text          0x000000001002b850      0x1d8 d:/program_files/programming/rt-threadstudio/repo/extract/toolchain_support_packages/risc-v/risc-v-gcc/10.1.0/bin/../lib/gcc/riscv64-unknown-elf/10.1.0/../../../../riscv64-unknown-elf/lib/rv32im/ilp32\libc.a(lib_a-fputwc.o)
                0x000000001002b850                __fputwc
                0x000000001002b97c                _fputwc_r
                0x000000001002b9a8                fputwc
 .text          0x000000001002ba28      0x498 d:/program_files/programming/rt-threadstudio/repo/extract/toolchain_support_packages/risc-v/risc-v-gcc/10.1.0/bin/../lib/gcc/riscv64-unknown-elf/10.1.0/../../../../riscv64-unknown-elf/lib/rv32im/ilp32\libc.a(lib_a-fvwrite.o)
                0x000000001002ba28                __sfvwrite_r
 .text          0x000000001002bec0      0x590 d:/program_files/programming/rt-threadstudio/repo/extract/toolchain_support_packages/risc-v/risc-v-gcc/10.1.0/bin/../lib/gcc/riscv64-unknown-elf/10.1.0/../../../../riscv64-unknown-elf/lib/rv32im/ilp32\libc.a(lib_a-signal.o)
                0x000000001002bec0                _init_signal_r
                0x000000001002bf1c                _signal_r
                0x000000001002bfc4                _raise_r
                0x000000001002c0a0                __sigtramp_r
                0x000000001002c180                raise
                0x000000001002c25c                signal
                0x000000001002c310                _init_signal
                0x000000001002c370                __sigtramp
 .text          0x000000001002c450      0x1a0 d:/program_files/programming/rt-threadstudio/repo/extract/toolchain_support_packages/risc-v/risc-v-gcc/10.1.0/bin/../lib/gcc/riscv64-unknown-elf/10.1.0/../../../../riscv64-unknown-elf/lib/rv32im/ilp32\libc.a(lib_a-wbuf.o)
                0x000000001002c450                __swbuf_r
                0x000000001002c5d8                __swbuf
 .text          0x000000001002c5f0      0x10c d:/program_files/programming/rt-threadstudio/repo/extract/toolchain_support_packages/risc-v/risc-v-gcc/10.1.0/bin/../lib/gcc/riscv64-unknown-elf/10.1.0/../../../../riscv64-unknown-elf/lib/rv32im/ilp32\libc.a(lib_a-wcrtomb.o)
                0x000000001002c5f0                _wcrtomb_r
                0x000000001002c668                wcrtomb
 .text          0x000000001002c6fc      0x434 d:/program_files/programming/rt-threadstudio/repo/extract/toolchain_support_packages/risc-v/risc-v-gcc/10.1.0/bin/../lib/gcc/riscv64-unknown-elf/10.1.0/rv32im/ilp32\libgcc.a(_udivdi3.o)
                0x000000001002c6fc                __udivdi3
 .text          0x000000001002cb30      0x404 d:/program_files/programming/rt-threadstudio/repo/extract/toolchain_support_packages/risc-v/risc-v-gcc/10.1.0/bin/../lib/gcc/riscv64-unknown-elf/10.1.0/rv32im/ilp32\libgcc.a(_umoddi3.o)
                0x000000001002cb30                __umoddi3
 .text          0x000000001002cf34      0x6e0 d:/program_files/programming/rt-threadstudio/repo/extract/toolchain_support_packages/risc-v/risc-v-gcc/10.1.0/bin/../lib/gcc/riscv64-unknown-elf/10.1.0/rv32im/ilp32\libgcc.a(divdf3.o)
                0x000000001002cf34                __divdf3
 .text          0x000000001002d614      0x5c8 d:/program_files/programming/rt-threadstudio/repo/extract/toolchain_support_packages/risc-v/risc-v-gcc/10.1.0/bin/../lib/gcc/riscv64-unknown-elf/10.1.0/rv32im/ilp32\libgcc.a(muldf3.o)
                0x000000001002d614                __muldf3
 .text          0x000000001002dbdc       0x80 d:/program_files/programming/rt-threadstudio/repo/extract/toolchain_support_packages/risc-v/risc-v-gcc/10.1.0/bin/../lib/gcc/riscv64-unknown-elf/10.1.0/rv32im/ilp32\libgcc.a(fixdfsi.o)
                0x000000001002dbdc                __fixdfsi
 .text          0x000000001002dc5c       0x80 d:/program_files/programming/rt-threadstudio/repo/extract/toolchain_support_packages/risc-v/risc-v-gcc/10.1.0/bin/../lib/gcc/riscv64-unknown-elf/10.1.0/rv32im/ilp32\libgcc.a(floatunsidf.o)
                0x000000001002dc5c                __floatunsidf
 .text          0x000000001002dcdc       0xcc d:/program_files/programming/rt-threadstudio/repo/extract/toolchain_support_packages/risc-v/risc-v-gcc/10.1.0/bin/../lib/gcc/riscv64-unknown-elf/10.1.0/rv32im/ilp32\libgcc.a(eqtf2.o)
                0x000000001002dcdc                __netf2
                0x000000001002dcdc                __eqtf2
 .text          0x000000001002dda8      0x144 d:/program_files/programming/rt-threadstudio/repo/extract/toolchain_support_packages/risc-v/risc-v-gcc/10.1.0/bin/../lib/gcc/riscv64-unknown-elf/10.1.0/rv32im/ilp32\libgcc.a(getf2.o)
                0x000000001002dda8                __gttf2
                0x000000001002dda8                __getf2
 .text          0x000000001002deec      0x144 d:/program_files/programming/rt-threadstudio/repo/extract/toolchain_support_packages/risc-v/risc-v-gcc/10.1.0/bin/../lib/gcc/riscv64-unknown-elf/10.1.0/rv32im/ilp32\libgcc.a(letf2.o)
                0x000000001002deec                __lttf2
                0x000000001002deec                __letf2
 .text          0x000000001002e030      0xff0 d:/program_files/programming/rt-threadstudio/repo/extract/toolchain_support_packages/risc-v/risc-v-gcc/10.1.0/bin/../lib/gcc/riscv64-unknown-elf/10.1.0/rv32im/ilp32\libgcc.a(multf3.o)
                0x000000001002e030                __multf3
 .text          0x000000001002f020     0x1528 d:/program_files/programming/rt-threadstudio/repo/extract/toolchain_support_packages/risc-v/risc-v-gcc/10.1.0/bin/../lib/gcc/riscv64-unknown-elf/10.1.0/rv32im/ilp32\libgcc.a(subtf3.o)
                0x000000001002f020                __subtf3
 .text          0x0000000010030548      0x114 d:/program_files/programming/rt-threadstudio/repo/extract/toolchain_support_packages/risc-v/risc-v-gcc/10.1.0/bin/../lib/gcc/riscv64-unknown-elf/10.1.0/rv32im/ilp32\libgcc.a(fixtfsi.o)
                0x0000000010030548                __fixtfsi
 .text          0x000000001003065c      0x154 d:/program_files/programming/rt-threadstudio/repo/extract/toolchain_support_packages/risc-v/risc-v-gcc/10.1.0/bin/../lib/gcc/riscv64-unknown-elf/10.1.0/rv32im/ilp32\libgcc.a(floatsitf.o)
                0x000000001003065c                __floatsitf
 .text          0x00000000100307b0      0x45c d:/program_files/programming/rt-threadstudio/repo/extract/toolchain_support_packages/risc-v/risc-v-gcc/10.1.0/bin/../lib/gcc/riscv64-unknown-elf/10.1.0/rv32im/ilp32\libgcc.a(addsf3.o)
                0x00000000100307b0                __addsf3
 .text          0x0000000010030c0c      0x334 d:/program_files/programming/rt-threadstudio/repo/extract/toolchain_support_packages/risc-v/risc-v-gcc/10.1.0/bin/../lib/gcc/riscv64-unknown-elf/10.1.0/rv32im/ilp32\libgcc.a(divsf3.o)
                0x0000000010030c0c                __divsf3
 .text          0x0000000010030f40       0x68 d:/program_files/programming/rt-threadstudio/repo/extract/toolchain_support_packages/risc-v/risc-v-gcc/10.1.0/bin/../lib/gcc/riscv64-unknown-elf/10.1.0/rv32im/ilp32\libgcc.a(eqsf2.o)
                0x0000000010030f40                __eqsf2
                0x0000000010030f40                __nesf2
 .text          0x0000000010030fa8       0xb4 d:/program_files/programming/rt-threadstudio/repo/extract/toolchain_support_packages/risc-v/risc-v-gcc/10.1.0/bin/../lib/gcc/riscv64-unknown-elf/10.1.0/rv32im/ilp32\libgcc.a(gesf2.o)
                0x0000000010030fa8                __gesf2
                0x0000000010030fa8                __gtsf2
 .text          0x000000001003105c       0xb4 d:/program_files/programming/rt-threadstudio/repo/extract/toolchain_support_packages/risc-v/risc-v-gcc/10.1.0/bin/../lib/gcc/riscv64-unknown-elf/10.1.0/rv32im/ilp32\libgcc.a(lesf2.o)
                0x000000001003105c                __ltsf2
                0x000000001003105c                __lesf2
 .text          0x0000000010031110      0x304 d:/program_files/programming/rt-threadstudio/repo/extract/toolchain_support_packages/risc-v/risc-v-gcc/10.1.0/bin/../lib/gcc/riscv64-unknown-elf/10.1.0/rv32im/ilp32\libgcc.a(mulsf3.o)
                0x0000000010031110                __mulsf3
 .text          0x0000000010031414      0x46c d:/program_files/programming/rt-threadstudio/repo/extract/toolchain_support_packages/risc-v/risc-v-gcc/10.1.0/bin/../lib/gcc/riscv64-unknown-elf/10.1.0/rv32im/ilp32\libgcc.a(subsf3.o)
                0x0000000010031414                __subsf3
 .text          0x0000000010031880       0x70 d:/program_files/programming/rt-threadstudio/repo/extract/toolchain_support_packages/risc-v/risc-v-gcc/10.1.0/bin/../lib/gcc/riscv64-unknown-elf/10.1.0/rv32im/ilp32\libgcc.a(fixsfsi.o)
                0x0000000010031880                __fixsfsi
 .text          0x00000000100318f0       0x68 d:/program_files/programming/rt-threadstudio/repo/extract/toolchain_support_packages/risc-v/risc-v-gcc/10.1.0/bin/../lib/gcc/riscv64-unknown-elf/10.1.0/rv32im/ilp32\libgcc.a(fixunssfsi.o)
                0x00000000100318f0                __fixunssfsi
 .text          0x0000000010031958      0x108 d:/program_files/programming/rt-threadstudio/repo/extract/toolchain_support_packages/risc-v/risc-v-gcc/10.1.0/bin/../lib/gcc/riscv64-unknown-elf/10.1.0/rv32im/ilp32\libgcc.a(floatsisf.o)
                0x0000000010031958                __floatsisf
 .text          0x0000000010031a60       0xdc d:/program_files/programming/rt-threadstudio/repo/extract/toolchain_support_packages/risc-v/risc-v-gcc/10.1.0/bin/../lib/gcc/riscv64-unknown-elf/10.1.0/rv32im/ilp32\libgcc.a(floatunsisf.o)
                0x0000000010031a60                __floatunsisf
 .text          0x0000000010031b3c      0x1f8 d:/program_files/programming/rt-threadstudio/repo/extract/toolchain_support_packages/risc-v/risc-v-gcc/10.1.0/bin/../lib/gcc/riscv64-unknown-elf/10.1.0/rv32im/ilp32\libgcc.a(extenddftf2.o)
                0x0000000010031b3c                __extenddftf2
 .text          0x0000000010031d34      0x360 d:/program_files/programming/rt-threadstudio/repo/extract/toolchain_support_packages/risc-v/risc-v-gcc/10.1.0/bin/../lib/gcc/riscv64-unknown-elf/10.1.0/rv32im/ilp32\libgcc.a(trunctfdf2.o)
                0x0000000010031d34                __trunctfdf2
 .text          0x0000000010032094       0x4c d:/program_files/programming/rt-threadstudio/repo/extract/toolchain_support_packages/risc-v/risc-v-gcc/10.1.0/bin/../lib/gcc/riscv64-unknown-elf/10.1.0/rv32im/ilp32\libgcc.a(_clzsi2.o)
                0x0000000010032094                __clzsi2
 *(.rodata*)
 .rodata.str1.4
                0x00000000100320e0       0x16 build\applications\main.o
 *fill*         0x00000000100320f6        0x2 
 .rodata.str1.4
                0x00000000100320f8       0x70 build\applications\mnt.o
                                         0x78 (size before relaxing)
 .rodata.str1.4
                0x0000000010032168       0x2f build\board\ports\audio\drv_sound.o
 *fill*         0x0000000010032197        0x1 
 .rodata        0x0000000010032198       0x66 build\board\ports\audio\drv_sound.o
 *fill*         0x00000000100321fe        0x2 
 .rodata.str1.4
                0x0000000010032200       0x30 build\board\board.o
 .rodata.str1.4
                0x0000000010032230      0x1b9 build\kernel\src\memheap.o
                                        0x1bd (size before relaxing)
 *fill*         0x00000000100323e9        0x3 
 .rodata        0x00000000100323ec       0x6c build\kernel\src\memheap.o
 .rodata.name   0x0000000010032458       0x33 build\kernel\src\memheap.o
                0x0000000010032458                __fsym___cmd_memheaptrace_desc
                0x0000000010032478                __fsym___cmd_memheaptrace_name
 *fill*         0x000000001003248b        0x1 
 .rodata.str1.4
                0x000000001003248c      0x2c5 build\kernel\src\mem.o
                                        0x2d1 (size before relaxing)
 *fill*         0x0000000010032751        0x3 
 .rodata        0x0000000010032754       0x37 build\kernel\src\mem.o
 *fill*         0x000000001003278b        0x1 
 .rodata.name   0x000000001003278c       0x29 build\kernel\src\mem.o
                0x000000001003278c                __fsym_list_mem_desc
                0x00000000100327ac                __fsym_list_mem_name
 *fill*         0x00000000100327b5        0x3 
 .rodata.str1.4
                0x00000000100327b8       0x5a build\kernel\components\dfs\filesystems\devfs\devfs.o
 *fill*         0x0000000010032812        0x2 
 .rodata        0x0000000010032814       0xc8 build\kernel\components\dfs\filesystems\devfs\devfs.o
 .rodata.str1.4
                0x00000000100328dc       0xee build\kernel\components\dfs\filesystems\elmfat\dfs_elm.o
                                         0xf8 (size before relaxing)
 *fill*         0x00000000100329ca        0x2 
 .rodata        0x00000000100329cc       0xf0 build\kernel\components\dfs\filesystems\elmfat\dfs_elm.o
 .rodata        0x0000000010032abc      0x3d4 build\kernel\components\dfs\filesystems\elmfat\ffunicode.o
 .rodata.str1.4
                0x0000000010032e90       0x54 build\kernel\components\dfs\filesystems\elmfat\ff.o
 .rodata        0x0000000010032ee4       0xbe build\kernel\components\dfs\filesystems\elmfat\ff.o
 *fill*         0x0000000010032fa2        0x2 
 .rodata.str1.4
                0x0000000010032fa4       0x87 build\kernel\components\drivers\audio\audio.o
                                         0x9d (size before relaxing)
 *fill*         0x000000001003302b        0x1 
 .rodata        0x000000001003302c       0xb1 build\kernel\components\drivers\audio\audio.o
 *fill*         0x00000000100330dd        0x3 
 .rodata.str1.4
                0x00000000100330e0       0x64 build\kernel\components\drivers\audio\audio_pipe.o
                                         0x90 (size before relaxing)
 .rodata        0x0000000010033144       0x7c build\kernel\components\drivers\audio\audio_pipe.o
 .rodata.str1.4
                0x00000000100331c0       0x43 build\kernel\components\drivers\hwtimer\hwtimer.o
 *fill*         0x0000000010033203        0x1 
 .rodata        0x0000000010033204       0x4c build\kernel\components\drivers\hwtimer\hwtimer.o
 .rodata.str1.4
                0x0000000010033250       0x87 build\kernel\components\drivers\i2c\i2c_core.o
                                         0x8b (size before relaxing)
 *fill*         0x00000000100332d7        0x1 
 .rodata        0x00000000100332d8       0x13 build\kernel\components\drivers\i2c\i2c_core.o
 *fill*         0x00000000100332eb        0x1 
 .rodata.str1.4
                0x00000000100332ec       0x12 build\kernel\components\drivers\i2c\i2c_dev.o
                                         0x22 (size before relaxing)
 *fill*         0x00000000100332fe        0x2 
 .rodata        0x0000000010033300       0x7c build\kernel\components\drivers\i2c\i2c_dev.o
 .rodata.str1.4
                0x000000001003337c       0xa1 build\kernel\components\drivers\i2c\i2c-bit-ops.o
                                         0xb1 (size before relaxing)
 *fill*         0x000000001003341d        0x3 
 .rodata        0x0000000010033420        0xc build\kernel\components\drivers\i2c\i2c-bit-ops.o
 .rodata.str1.4
                0x000000001003342c      0x1f9 build\kernel\components\drivers\misc\adc.o
 *fill*         0x0000000010033625        0x3 
 .rodata        0x0000000010033628       0x57 build\kernel\components\drivers\misc\adc.o
 *fill*         0x000000001003367f        0x1 
 .rodata.name   0x0000000010033680       0x1a build\kernel\components\drivers\misc\adc.o
                0x0000000010033680                __fsym___cmd_adc_desc
                0x0000000010033690                __fsym___cmd_adc_name
 *fill*         0x000000001003369a        0x2 
 .rodata.str1.4
                0x000000001003369c      0x1ab build\kernel\components\drivers\misc\rt_drv_pwm.o
 *fill*         0x0000000010033847        0x1 
 .rodata        0x0000000010033848       0x18 build\kernel\components\drivers\misc\rt_drv_pwm.o
 .rodata.name   0x0000000010033860      0x11f build\kernel\components\drivers\misc\rt_drv_pwm.o
                0x0000000010033860                __fsym___cmd_pwm_get_desc
                0x000000001003387c                __fsym___cmd_pwm_get_name
                0x000000001003388c                __fsym___cmd_pwm_set_desc
                0x00000000100338bc                __fsym___cmd_pwm_set_name
                0x00000000100338cc                __fsym___cmd_pwm_disable_desc
                0x00000000100338f8                __fsym___cmd_pwm_disable_name
                0x000000001003390c                __fsym___cmd_pwm_enable_desc
                0x0000000010033934                __fsym___cmd_pwm_enable_name
                0x0000000010033948                __fsym_pwm_set_desc
                0x0000000010033954                __fsym_pwm_set_name
                0x000000001003395c                __fsym_pwm_enable_desc
                0x0000000010033974                __fsym_pwm_enable_name
 *fill*         0x000000001003397f        0x1 
 .rodata.str1.4
                0x0000000010033980       0x37 build\kernel\components\drivers\misc\pin.o
 *fill*         0x00000000100339b7        0x1 
 .rodata        0x00000000100339b8       0xae build\kernel\components\drivers\misc\pin.o
 *fill*         0x0000000010033a66        0x2 
 .rodata.name   0x0000000010033a68       0x9c build\kernel\components\drivers\misc\pin.o
                0x0000000010033a68                __fsym_pinGet_desc
                0x0000000010033a8c                __fsym_pinGet_name
                0x0000000010033a94                __fsym_pinRead_desc
                0x0000000010033ab4                __fsym_pinRead_name
                0x0000000010033abc                __fsym_pinWrite_desc
                0x0000000010033ad8                __fsym_pinWrite_name
                0x0000000010033ae4                __fsym_pinMode_desc
                0x0000000010033afc                __fsym_pinMode_name
 .rodata.str1.4
                0x0000000010033b04      0x12f build\kernel\components\drivers\rtc\rtc.o
                                        0x137 (size before relaxing)
 *fill*         0x0000000010033c33        0x1 
 .rodata.name   0x0000000010033c34      0x136 build\kernel\components\drivers\rtc\rtc.o
                0x0000000010033c34                __fsym___cmd_date_desc
                0x0000000010033c7c                __fsym___cmd_date_name
                0x0000000010033c88                __fsym___cmd_list_date_desc
                0x0000000010033cac                __fsym___cmd_list_date_name
                0x0000000010033cbc                __fsym_set_time_desc
                0x0000000010033cf0                __fsym_set_time_name
                0x0000000010033cfc                __fsym_set_date_desc
                0x0000000010033d30                __fsym_set_date_name
                0x0000000010033d3c                __fsym_list_date_desc
                0x0000000010033d60                __fsym_list_date_name
 *fill*         0x0000000010033d6a        0x2 
 .rodata.str1.4
                0x0000000010033d6c      0x142 build\kernel\components\drivers\sdio\mmc.o
                                        0x146 (size before relaxing)
 *fill*         0x0000000010033eae        0x2 
 .rodata        0x0000000010033eb0       0x50 build\kernel\components\drivers\sdio\mmc.o
 .rodata.str1.4
                0x0000000010033f00       0xb5 build\kernel\components\drivers\sdio\sd.o
                                        0x10d (size before relaxing)
 *fill*         0x0000000010033fb5        0x3 
 .rodata        0x0000000010033fb8       0x50 build\kernel\components\drivers\sdio\sd.o
 .rodata.str1.4
                0x0000000010034008       0xf7 build\kernel\components\drivers\sdio\block_dev.o
                                        0x113 (size before relaxing)
 *fill*         0x00000000100340ff        0x1 
 .rodata        0x0000000010034100       0x18 build\kernel\components\drivers\sdio\block_dev.o
 .rodata.str1.4
                0x0000000010034118      0x278 build\kernel\components\drivers\sdio\sdio.o
                                        0x288 (size before relaxing)
 .rodata        0x0000000010034390      0x12e build\kernel\components\drivers\sdio\sdio.o
 *fill*         0x00000000100344be        0x2 
 .rodata.str1.4
                0x00000000100344c0       0xcf build\kernel\components\drivers\sdio\mmcsd_core.o
                                         0xeb (size before relaxing)
 *fill*         0x000000001003458f        0x1 
 .rodata        0x0000000010034590       0x13 build\kernel\components\drivers\sdio\mmcsd_core.o
 *fill*         0x00000000100345a3        0x1 
 .rodata.str1.4
                0x00000000100345a4       0xbb build\kernel\components\drivers\serial\serial.o
                                         0xce (size before relaxing)
 *fill*         0x000000001003465f        0x1 
 .rodata        0x0000000010034660       0xc5 build\kernel\components\drivers\serial\serial.o
 *fill*         0x0000000010034725        0x3 
 .rodata.str1.4
                0x0000000010034728       0x33 build\kernel\components\drivers\watchdog\watchdog.o
                                         0x43 (size before relaxing)
 *fill*         0x000000001003475b        0x1 
 .rodata        0x000000001003475c       0x6c build\kernel\components\drivers\watchdog\watchdog.o
 .rodata        0x00000000100347c8       0x53 build\kernel\components\finsh\finsh_parser.o
 *fill*         0x000000001003481b        0x1 
 .rodata.str1.4
                0x000000001003481c      0x6ff build\kernel\components\finsh\cmd.o
                                        0x70b (size before relaxing)
 *fill*         0x0000000010034f1b        0x1 
 .rodata        0x0000000010034f1c       0x5c build\kernel\components\finsh\cmd.o
 .rodata.name   0x0000000010034f78      0x446 build\kernel\components\finsh\cmd.o
                0x0000000010034f78                __vsym_dummy_desc
                0x0000000010034f94                __vsym_dummy_name
                0x0000000010034f9c                __fsym_list_desc
                0x0000000010034fb8                __fsym_list_name
                0x0000000010034fc0                __fsym___cmd_list_device_desc
                0x0000000010034fd8                __fsym___cmd_list_device_name
                0x0000000010034fec                __fsym_list_device_desc
                0x0000000010035004                __fsym_list_device_name
                0x0000000010035010                __fsym___cmd_list_timer_desc
                0x0000000010035028                __fsym___cmd_list_timer_name
                0x000000001003503c                __fsym_list_timer_desc
                0x0000000010035054                __fsym_list_timer_name
                0x0000000010035060                __fsym___cmd_list_mempool_desc
                0x000000001003507c                __fsym___cmd_list_mempool_name
                0x0000000010035090                __fsym_list_mempool_desc
                0x00000000100350ac                __fsym_list_mempool_name
                0x00000000100350bc                __fsym___cmd_list_memheap_desc
                0x00000000100350d8                __fsym___cmd_list_memheap_name
                0x00000000100350ec                __fsym_list_memheap_desc
                0x0000000010035108                __fsym_list_memheap_name
                0x0000000010035118                __fsym___cmd_list_msgqueue_desc
                0x0000000010035138                __fsym___cmd_list_msgqueue_name
                0x000000001003514c                __fsym_list_msgqueue_desc
                0x000000001003516c                __fsym_list_msgqueue_name
                0x000000001003517c                __fsym___cmd_list_mailbox_desc
                0x0000000010035194                __fsym___cmd_list_mailbox_name
                0x00000000100351a8                __fsym_list_mailbox_desc
                0x00000000100351c0                __fsym_list_mailbox_name
                0x00000000100351d0                __fsym___cmd_list_mutex_desc
                0x00000000100351e8                __fsym___cmd_list_mutex_name
                0x00000000100351fc                __fsym_list_mutex_desc
                0x0000000010035214                __fsym_list_mutex_name
                0x0000000010035220                __fsym___cmd_list_event_desc
                0x0000000010035238                __fsym___cmd_list_event_name
                0x000000001003524c                __fsym_list_event_desc
                0x0000000010035264                __fsym_list_event_name
                0x0000000010035270                __fsym___cmd_list_sem_desc
                0x000000001003528c                __fsym___cmd_list_sem_name
                0x000000001003529c                __fsym_list_sem_desc
                0x00000000100352b8                __fsym_list_sem_name
                0x00000000100352c4                __fsym___cmd_list_thread_desc
                0x00000000100352d0                __fsym___cmd_list_thread_name
                0x00000000100352e4                __fsym_list_thread_desc
                0x00000000100352f0                __fsym_list_thread_name
                0x00000000100352fc                __fsym___cmd_version_desc
                0x0000000010035320                __fsym___cmd_version_name
                0x0000000010035330                __fsym_version_desc
                0x0000000010035354                __fsym_version_name
                0x000000001003535c                __fsym___cmd_clear_desc
                0x0000000010035378                __fsym___cmd_clear_name
                0x0000000010035384                __fsym_clear_desc
                0x00000000100353a0                __fsym_clear_name
                0x00000000100353a8                __fsym_hello_desc
                0x00000000100353b8                __fsym_hello_name
 *fill*         0x00000000100353be        0x2 
 .rodata.str1.4
                0x00000000100353c0      0x3c6 build\kernel\components\finsh\msh_file.o
                                        0x3d6 (size before relaxing)
 *fill*         0x0000000010035786        0x2 
 .rodata.name   0x0000000010035788      0x219 build\kernel\components\finsh\msh_file.o
                0x0000000010035788                __fsym___cmd_echo_desc
                0x000000001003579c                __fsym___cmd_echo_name
                0x00000000100357a8                __fsym___cmd_df_desc
                0x00000000100357b4                __fsym___cmd_df_name
                0x00000000100357c0                __fsym___cmd_umount_desc
                0x00000000100357e0                __fsym___cmd_umount_name
                0x00000000100357f0                __fsym___cmd_mount_desc
                0x0000000010035818                __fsym___cmd_mount_name
                0x0000000010035824                __fsym___cmd_mkfs_desc
                0x0000000010035844                __fsym___cmd_mkfs_name
                0x0000000010035850                __fsym___cmd_mkdir_desc
                0x0000000010035868                __fsym___cmd_mkdir_name
                0x0000000010035874                __fsym___cmd_pwd_desc
                0x00000000100358a8                __fsym___cmd_pwd_name
                0x00000000100358b4                __fsym___cmd_cd_desc
                0x00000000100358d8                __fsym___cmd_cd_name
                0x00000000100358e4                __fsym___cmd_rm_desc
                0x0000000010035900                __fsym___cmd_rm_name
                0x000000001003590c                __fsym___cmd_cat_desc
                0x0000000010035920                __fsym___cmd_cat_name
                0x000000001003592c                __fsym___cmd_mv_desc
                0x0000000010035944                __fsym___cmd_mv_name
                0x0000000010035950                __fsym___cmd_cp_desc
                0x0000000010035968                __fsym___cmd_cp_name
                0x0000000010035974                __fsym___cmd_ls_desc
                0x0000000010035998                __fsym___cmd_ls_name
 *fill*         0x00000000100359a1        0x3 
 .rodata.str1.4
                0x00000000100359a4       0xb8 build\kernel\components\finsh\shell.o
                                         0xc3 (size before relaxing)
 .rodata        0x0000000010035a5c       0x96 build\kernel\components\finsh\shell.o
 *fill*         0x0000000010035af2        0x2 
 .rodata        0x0000000010035af4       0xa4 build\kernel\components\finsh\finsh_compiler.o
 .rodata        0x0000000010035b98      0x108 build\kernel\components\finsh\finsh_ops.o
                0x0000000010035bdc                op_table
 .rodata.str1.4
                0x0000000010035ca0       0xf2 build\kernel\components\finsh\finsh_error.o
 *fill*         0x0000000010035d92        0x2 
 .rodata        0x0000000010035d94       0x3c build\kernel\components\finsh\finsh_error.o
 .rodata.str1.4
                0x0000000010035dd0       0x6c build\kernel\components\finsh\msh.o
                                         0x78 (size before relaxing)
 .rodata.name   0x0000000010035e3c       0xc3 build\kernel\components\finsh\msh.o
                0x0000000010035e3c                __fsym___cmd_free_desc
                0x0000000010035e64                __fsym___cmd_free_name
                0x0000000010035e70                __fsym___cmd_ps_desc
                0x0000000010035e8c                __fsym___cmd_ps_name
                0x0000000010035e98                __fsym___cmd_help_desc
                0x0000000010035eb0                __fsym___cmd_help_name
                0x0000000010035ebc                __fsym_msh_desc
                0x0000000010035ed0                __fsym_msh_name
                0x0000000010035ed4                __fsym___cmd_exit_desc
                0x0000000010035ef4                __fsym___cmd_exit_name
 *fill*         0x0000000010035eff        0x1 
 .rodata        0x0000000010035f00      0x114 build\kernel\components\finsh\finsh_token.o
 .rodata.str1.4
                0x0000000010036014       0x35 build\kernel\components\finsh\finsh_token.o
                                         0x3d (size before relaxing)
 .rodata.str1.4
                0x0000000010036049        0x4 build\kernel\components\libc\compilers\common\time.o
 *fill*         0x0000000010036049        0x3 
 .rodata        0x000000001003604c       0x6d build\kernel\components\libc\compilers\common\time.o
 *fill*         0x00000000100360b9        0x3 
 .rodata.str1.4
                0x00000000100360bc       0x14 build\kernel\components\libc\compilers\common\stdlib.o
 .rodata.str1.4
                0x00000000100360d0       0x17 build\kernel\components\libc\compilers\newlib\libc.o
 *fill*         0x00000000100360e7        0x1 
 .rodata.str1.4
                0x00000000100360e8       0x14 build\kernel\components\libc\compilers\newlib\stdio.o
 .rodata.str1.4
                0x00000000100360fc       0x2a libraries\hal_drivers\drv_rtc.o
                                         0x42 (size before relaxing)
 *fill*         0x0000000010036126        0x2 
 .rodata        0x0000000010036128       0x2c libraries\hal_drivers\drv_rtc.o
 .rodata.str1.4
                0x0000000010036154       0x19 libraries\hal_drivers\drv_soft_i2c.o
 *fill*         0x000000001003616d        0x3 
 .rodata        0x0000000010036170       0x2f libraries\hal_drivers\drv_soft_i2c.o
 *fill*         0x000000001003619f        0x1 
 .rodata.str1.4
                0x00000000100361a0      0x20f libraries\hal_drivers\drv_wdt.o
                                        0x213 (size before relaxing)
 *fill*         0x00000000100363af        0x1 
 .rodata        0x00000000100363b0       0x20 libraries\hal_drivers\drv_wdt.o
 .rodata.str1.4
                0x00000000100363d0      0x183 libraries\hal_drivers\drv_sdio.o
                                        0x18b (size before relaxing)
 *fill*         0x0000000010036553        0x1 
 .rodata        0x0000000010036554       0x24 libraries\hal_drivers\drv_sdio.o
 .rodata.str1.4
                0x0000000010036578       0x51 libraries\hal_drivers\drv_adc.o
                                         0x55 (size before relaxing)
 *fill*         0x00000000100365c9        0x3 
 .rodata        0x00000000100365cc       0x45 libraries\hal_drivers\drv_adc.o
 *fill*         0x0000000010036611        0x3 
 .rodata.str1.4
                0x0000000010036614        0x9 libraries\hal_drivers\drv_irrx.o
 *fill*         0x000000001003661d        0x3 
 .rodata.str1.4
                0x0000000010036620       0x52 libraries\hal_drivers\drv_pwm.o
                                         0x6a (size before relaxing)
 *fill*         0x0000000010036672        0x2 
 .rodata        0x0000000010036674       0x18 libraries\hal_drivers\drv_pwm.o
 .rodata.str1.4
                0x000000001003668c       0x83 libraries\hal_drivers\drv_hwtimer.o
                                         0xaf (size before relaxing)
 *fill*         0x000000001003670f        0x1 
 .rodata        0x0000000010036710       0x68 libraries\hal_drivers\drv_hwtimer.o
 .rodata        0x0000000010036778       0x46 libraries\hal_libraries\bmsis\source\system_ab32vgx.o
                0x0000000010036778                sysclk_sel_tbl
                0x0000000010036784                sysclk_index
 *fill*         0x00000000100367be        0x2 
 .rodata.str1.4
                0x00000000100367c0       0x3f d:/program_files/programming/rt-threadstudio/repo/extract/toolchain_support_packages/risc-v/risc-v-gcc/10.1.0/bin/../lib/gcc/riscv64-unknown-elf/10.1.0/../../../../riscv64-unknown-elf/lib/rv32im/ilp32\libc.a(lib_a-svfprintf.o)
                                         0x42 (size before relaxing)
 *fill*         0x00000000100367ff        0x1 
 .rodata        0x0000000010036800      0x18c d:/program_files/programming/rt-threadstudio/repo/extract/toolchain_support_packages/risc-v/risc-v-gcc/10.1.0/bin/../lib/gcc/riscv64-unknown-elf/10.1.0/../../../../riscv64-unknown-elf/lib/rv32im/ilp32\libc.a(lib_a-svfprintf.o)
 .rodata        0x000000001003698c      0x101 d:/program_files/programming/rt-threadstudio/repo/extract/toolchain_support_packages/risc-v/risc-v-gcc/10.1.0/bin/../lib/gcc/riscv64-unknown-elf/10.1.0/../../../../riscv64-unknown-elf/lib/rv32im/ilp32\libc.a(lib_a-ctype_.o)
                0x000000001003698c                _ctype_
 *fill*         0x0000000010036a8d        0x3 
 .rodata.str1.4
                0x0000000010036a90       0x26 d:/program_files/programming/rt-threadstudio/repo/extract/toolchain_support_packages/risc-v/risc-v-gcc/10.1.0/bin/../lib/gcc/riscv64-unknown-elf/10.1.0/../../../../riscv64-unknown-elf/lib/rv32im/ilp32\libc.a(lib_a-ldtoa.o)
 *fill*         0x0000000010036ab6        0x2 
 .rodata        0x0000000010036ab8      0x252 d:/program_files/programming/rt-threadstudio/repo/extract/toolchain_support_packages/risc-v/risc-v-gcc/10.1.0/bin/../lib/gcc/riscv64-unknown-elf/10.1.0/../../../../riscv64-unknown-elf/lib/rv32im/ilp32\libc.a(lib_a-ldtoa.o)
 *fill*         0x0000000010036d0a        0x2 
 .rodata.str1.4
                0x0000000010036d0c        0xa d:/program_files/programming/rt-threadstudio/repo/extract/toolchain_support_packages/risc-v/risc-v-gcc/10.1.0/bin/../lib/gcc/riscv64-unknown-elf/10.1.0/../../../../riscv64-unknown-elf/lib/rv32im/ilp32\libc.a(lib_a-locale.o)
                                         0x12 (size before relaxing)
 *fill*         0x0000000010036d16        0x2 
 .rodata.str1.4
                0x0000000010036d18       0x79 d:/program_files/programming/rt-threadstudio/repo/extract/toolchain_support_packages/risc-v/risc-v-gcc/10.1.0/bin/../lib/gcc/riscv64-unknown-elf/10.1.0/../../../../riscv64-unknown-elf/lib/rv32im/ilp32\libc.a(lib_a-mprec.o)
 *fill*         0x0000000010036d91        0x7 
 .rodata        0x0000000010036d98      0x128 d:/program_files/programming/rt-threadstudio/repo/extract/toolchain_support_packages/risc-v/risc-v-gcc/10.1.0/bin/../lib/gcc/riscv64-unknown-elf/10.1.0/../../../../riscv64-unknown-elf/lib/rv32im/ilp32\libc.a(lib_a-mprec.o)
                0x0000000010036da8                __mprec_tens
                0x0000000010036e70                __mprec_tinytens
                0x0000000010036e98                __mprec_bigtens
 .rodata.str1.4
                0x0000000010036ec0       0x2f d:/program_files/programming/rt-threadstudio/repo/extract/toolchain_support_packages/risc-v/risc-v-gcc/10.1.0/bin/../lib/gcc/riscv64-unknown-elf/10.1.0/../../../../riscv64-unknown-elf/lib/rv32im/ilp32\libc.a(lib_a-svfiprintf.o)
 .rodata        0x0000000010036ec0      0x18c d:/program_files/programming/rt-threadstudio/repo/extract/toolchain_support_packages/risc-v/risc-v-gcc/10.1.0/bin/../lib/gcc/riscv64-unknown-elf/10.1.0/../../../../riscv64-unknown-elf/lib/rv32im/ilp32\libc.a(lib_a-svfiprintf.o)
 .rodata.str1.4
                0x000000001003704c       0x3f d:/program_files/programming/rt-threadstudio/repo/extract/toolchain_support_packages/risc-v/risc-v-gcc/10.1.0/bin/../lib/gcc/riscv64-unknown-elf/10.1.0/../../../../riscv64-unknown-elf/lib/rv32im/ilp32\libc.a(lib_a-assert.o)
                                         0x43 (size before relaxing)
 .rodata.str1.4
                0x000000001003708b       0x2f d:/program_files/programming/rt-threadstudio/repo/extract/toolchain_support_packages/risc-v/risc-v-gcc/10.1.0/bin/../lib/gcc/riscv64-unknown-elf/10.1.0/../../../../riscv64-unknown-elf/lib/rv32im/ilp32\libc.a(lib_a-vfiprintf.o)
 *fill*         0x000000001003708b        0x1 
 .rodata        0x000000001003708c      0x18c d:/program_files/programming/rt-threadstudio/repo/extract/toolchain_support_packages/risc-v/risc-v-gcc/10.1.0/bin/../lib/gcc/riscv64-unknown-elf/10.1.0/../../../../riscv64-unknown-elf/lib/rv32im/ilp32\libc.a(lib_a-vfiprintf.o)
 .rodata        0x0000000010037218       0x3c d:/program_files/programming/rt-threadstudio/repo/extract/toolchain_support_packages/risc-v/risc-v-gcc/10.1.0/bin/../lib/gcc/riscv64-unknown-elf/10.1.0/rv32im/ilp32\libgcc.a(divdf3.o)
 .rodata        0x0000000010037254       0x3c d:/program_files/programming/rt-threadstudio/repo/extract/toolchain_support_packages/risc-v/risc-v-gcc/10.1.0/bin/../lib/gcc/riscv64-unknown-elf/10.1.0/rv32im/ilp32\libgcc.a(muldf3.o)
 .rodata        0x0000000010037290       0x3c d:/program_files/programming/rt-threadstudio/repo/extract/toolchain_support_packages/risc-v/risc-v-gcc/10.1.0/bin/../lib/gcc/riscv64-unknown-elf/10.1.0/rv32im/ilp32\libgcc.a(multf3.o)
 .rodata        0x00000000100372cc       0x3c d:/program_files/programming/rt-threadstudio/repo/extract/toolchain_support_packages/risc-v/risc-v-gcc/10.1.0/bin/../lib/gcc/riscv64-unknown-elf/10.1.0/rv32im/ilp32\libgcc.a(divsf3.o)
 .rodata        0x0000000010037308       0x3c d:/program_files/programming/rt-threadstudio/repo/extract/toolchain_support_packages/risc-v/risc-v-gcc/10.1.0/bin/../lib/gcc/riscv64-unknown-elf/10.1.0/rv32im/ilp32\libgcc.a(mulsf3.o)
 .rodata        0x0000000010037344      0x100 d:/program_files/programming/rt-threadstudio/repo/extract/toolchain_support_packages/risc-v/risc-v-gcc/10.1.0/bin/../lib/gcc/riscv64-unknown-elf/10.1.0/rv32im/ilp32\libgcc.a(_clz.o)
                0x0000000010037344                __clz_tab
 *(.srodata*)
 .srodata       0x0000000010037444        0x4 d:/program_files/programming/rt-threadstudio/repo/extract/toolchain_support_packages/risc-v/risc-v-gcc/10.1.0/bin/../lib/gcc/riscv64-unknown-elf/10.1.0/../../../../riscv64-unknown-elf/lib/rv32im/ilp32\libc.a(lib_a-impure.o)
                0x0000000010037444                _global_impure_ptr
 .srodata.cst8  0x0000000010037448       0x10 d:/program_files/programming/rt-threadstudio/repo/extract/toolchain_support_packages/risc-v/risc-v-gcc/10.1.0/bin/../lib/gcc/riscv64-unknown-elf/10.1.0/../../../../riscv64-unknown-elf/lib/rv32im/ilp32\libc.a(lib_a-mprec.o)
 .srodata.cst8  0x0000000010037458        0x8 d:/program_files/programming/rt-threadstudio/repo/extract/toolchain_support_packages/risc-v/risc-v-gcc/10.1.0/bin/../lib/gcc/riscv64-unknown-elf/10.1.0/../../../../riscv64-unknown-elf/lib/rv32im/ilp32\libc.a(lib_a-s_frexp.o)
                0x0000000010037600                . = ALIGN (0x200)
 *fill*         0x0000000010037460      0x1a0 
                0x000000000002bd78                __bank_size = SIZEOF (.flash)
                0x0000000010006a54                __comm_lma = LOADADDR (.comm)
                0x0000000000004e2e                __comm_size = SIZEOF (.comm)
                0x0000000010000200                __ram1_lma = LOADADDR (.ram1)
                0x0000000000006854                __ram1_size = SIZEOF (.ram1)
OUTPUT(rtthread.elf elf32-littleriscv)

.comment        0x0000000000000000       0x23
 .comment       0x0000000000000000       0x12 build\applications\main.o
                                         0x13 (size before relaxing)
 .comment       0x0000000000000012       0x13 build\applications\mnt.o
 .comment       0x0000000000000012       0x13 build\board\ports\audio\drv_sound.o
 .comment       0x0000000000000012       0x13 build\board\board.o
 .comment       0x0000000000000012       0x13 build\board\ab32vg1_hal_msp.o
 .comment       0x0000000000000012       0x13 build\kernel\src\memheap.o
 .comment       0x0000000000000012       0x13 build\kernel\src\clock.o
 .comment       0x0000000000000012       0x13 build\kernel\src\ipc.o
 .comment       0x0000000000000012       0x13 build\kernel\src\kservice.o
 .comment       0x0000000000000012       0x13 build\kernel\src\thread.o
 .comment       0x0000000000000012       0x13 build\kernel\src\irq.o
 .comment       0x0000000000000012       0x13 build\kernel\src\idle.o
 .comment       0x0000000000000012       0x13 build\kernel\src\timer.o
 .comment       0x0000000000000012       0x13 build\kernel\src\mempool.o
 .comment       0x0000000000000012       0x13 build\kernel\src\device.o
 .comment       0x0000000000000012       0x13 build\kernel\src\mem.o
 .comment       0x0000000000000012       0x13 build\kernel\src\object.o
 .comment       0x0000000000000012       0x13 build\kernel\src\scheduler.o
 .comment       0x0000000000000012       0x13 build\kernel\src\components.o
 .comment       0x0000000000000012       0x13 build\kernel\components\dfs\src\dfs_posix.o
 .comment       0x0000000000000012       0x13 build\kernel\components\dfs\src\dfs_fs.o
 .comment       0x0000000000000012       0x13 build\kernel\components\dfs\src\dfs.o
 .comment       0x0000000000000012       0x13 build\kernel\components\dfs\src\dfs_file.o
 .comment       0x0000000000000012       0x13 build\kernel\components\dfs\filesystems\devfs\devfs.o
 .comment       0x0000000000000012       0x13 build\kernel\components\dfs\filesystems\elmfat\dfs_elm.o
 .comment       0x0000000000000012       0x13 build\kernel\components\dfs\filesystems\elmfat\ffunicode.o
 .comment       0x0000000000000012       0x13 build\kernel\components\dfs\filesystems\elmfat\ff.o
 .comment       0x0000000000000012       0x13 build\kernel\components\drivers\audio\audio.o
 .comment       0x0000000000000012       0x13 build\kernel\components\drivers\audio\audio_pipe.o
 .comment       0x0000000000000012       0x13 build\kernel\components\drivers\hwtimer\hwtimer.o
 .comment       0x0000000000000012       0x13 build\kernel\components\drivers\i2c\i2c_core.o
 .comment       0x0000000000000012       0x13 build\kernel\components\drivers\i2c\i2c_dev.o
 .comment       0x0000000000000012       0x13 build\kernel\components\drivers\i2c\i2c-bit-ops.o
 .comment       0x0000000000000012       0x13 build\kernel\components\drivers\misc\adc.o
 .comment       0x0000000000000012       0x13 build\kernel\components\drivers\misc\rt_drv_pwm.o
 .comment       0x0000000000000012       0x13 build\kernel\components\drivers\misc\pin.o
 .comment       0x0000000000000012       0x13 build\kernel\components\drivers\rtc\rtc.o
 .comment       0x0000000000000012       0x13 build\kernel\components\drivers\sdio\mmc.o
 .comment       0x0000000000000012       0x13 build\kernel\components\drivers\sdio\sd.o
 .comment       0x0000000000000012       0x13 build\kernel\components\drivers\sdio\block_dev.o
 .comment       0x0000000000000012       0x13 build\kernel\components\drivers\sdio\sdio.o
 .comment       0x0000000000000012       0x13 build\kernel\components\drivers\sdio\mmcsd_core.o
 .comment       0x0000000000000012       0x13 build\kernel\components\drivers\serial\serial.o
 .comment       0x0000000000000012       0x13 build\kernel\components\drivers\src\dataqueue.o
 .comment       0x0000000000000012       0x13 build\kernel\components\drivers\src\completion.o
 .comment       0x0000000000000012       0x13 build\kernel\components\drivers\src\ringbuffer.o
 .comment       0x0000000000000012       0x13 build\kernel\components\drivers\watchdog\watchdog.o
 .comment       0x0000000000000012       0x13 build\kernel\components\finsh\finsh_node.o
 .comment       0x0000000000000012       0x13 build\kernel\components\finsh\finsh_parser.o
 .comment       0x0000000000000012       0x13 build\kernel\components\finsh\cmd.o
 .comment       0x0000000000000012       0x13 build\kernel\components\finsh\finsh_vm.o
 .comment       0x0000000000000012       0x13 build\kernel\components\finsh\msh_file.o
 .comment       0x0000000000000012       0x13 build\kernel\components\finsh\shell.o
 .comment       0x0000000000000012       0x13 build\kernel\components\finsh\finsh_var.o
 .comment       0x0000000000000012       0x13 build\kernel\components\finsh\finsh_compiler.o
 .comment       0x0000000000000012       0x13 build\kernel\components\finsh\finsh_heap.o
 .comment       0x0000000000000012       0x13 build\kernel\components\finsh\finsh_ops.o
 .comment       0x0000000000000012       0x13 build\kernel\components\finsh\finsh_error.o
 .comment       0x0000000000000012       0x13 build\kernel\components\finsh\msh.o
 .comment       0x0000000000000012       0x13 build\kernel\components\finsh\finsh_token.o
 .comment       0x0000000000000012       0x13 build\kernel\components\finsh\finsh_init.o
 .comment       0x0000000000000012       0x13 build\kernel\components\libc\compilers\common\time.o
 .comment       0x0000000000000012       0x13 build\kernel\components\libc\compilers\common\stdlib.o
 .comment       0x0000000000000012       0x13 build\kernel\components\libc\compilers\newlib\libc.o
 .comment       0x0000000000000012       0x13 build\kernel\components\libc\compilers\newlib\syscalls.o
 .comment       0x0000000000000012       0x13 build\kernel\components\libc\compilers\newlib\stdio.o
 .comment       0x0000000000000012       0x13 libraries\hal_drivers\drv_gpio.o
 .comment       0x0000000000000012       0x13 libraries\hal_drivers\drv_rtc.o
 .comment       0x0000000000000012       0x13 libraries\hal_drivers\drv_soft_i2c.o
 .comment       0x0000000000000012       0x13 libraries\hal_drivers\drv_wdt.o
 .comment       0x0000000000000012       0x13 libraries\hal_drivers\drv_sdio.o
 .comment       0x0000000000000012       0x13 libraries\hal_drivers\drv_adc.o
 .comment       0x0000000000000012       0x13 libraries\hal_drivers\drv_irrx.o
 .comment       0x0000000000000012       0x13 libraries\hal_drivers\drv_usart.o
 .comment       0x0000000000000012       0x13 libraries\hal_drivers\drv_pwm.o
 .comment       0x0000000000000012       0x13 libraries\hal_drivers\drv_hwtimer.o
 .comment       0x0000000000000012       0x13 libcpu\cpu\interrupt.o
 .comment       0x0000000000000012       0x13 libcpu\cpu\cpuport.o
 .comment       0x0000000000000012       0x13 libraries\hal_libraries\ab32vg1_hal\source\ab32vg1_hal_gpio.o
 .comment       0x0000000000000012       0x13 libraries\hal_libraries\ab32vg1_hal\source\ab32vg1_hal.o
 .comment       0x0000000000000012       0x13 libraries\hal_libraries\ab32vg1_hal\source\ab32vg1_hal_uart.o
 .comment       0x0000000000000012       0x13 libraries\hal_libraries\ab32vg1_hal\source\ab32vg1_hal_rcu.o
 .comment       0x0000000000000012       0x13 libraries\hal_libraries\bmsis\source\system_ab32vgx.o
 .comment       0x0000000000000012       0x13 d:/program_files/programming/rt-threadstudio/repo/extract/toolchain_support_packages/risc-v/risc-v-gcc/10.1.0/bin/../lib/gcc/riscv64-unknown-elf/10.1.0/../../../../riscv64-unknown-elf/lib/rv32im/ilp32\libc.a(lib_a-atoi.o)
 .comment       0x0000000000000012       0x13 d:/program_files/programming/rt-threadstudio/repo/extract/toolchain_support_packages/risc-v/risc-v-gcc/10.1.0/bin/../lib/gcc/riscv64-unknown-elf/10.1.0/../../../../riscv64-unknown-elf/lib/rv32im/ilp32\libc.a(lib_a-fclose.o)
 .comment       0x0000000000000012       0x13 d:/program_files/programming/rt-threadstudio/repo/extract/toolchain_support_packages/risc-v/risc-v-gcc/10.1.0/bin/../lib/gcc/riscv64-unknown-elf/10.1.0/../../../../riscv64-unknown-elf/lib/rv32im/ilp32\libc.a(lib_a-fflush.o)
 .comment       0x0000000000000012       0x13 d:/program_files/programming/rt-threadstudio/repo/extract/toolchain_support_packages/risc-v/risc-v-gcc/10.1.0/bin/../lib/gcc/riscv64-unknown-elf/10.1.0/../../../../riscv64-unknown-elf/lib/rv32im/ilp32\libc.a(lib_a-fileno.o)
 .comment       0x0000000000000012       0x13 d:/program_files/programming/rt-threadstudio/repo/extract/toolchain_support_packages/risc-v/risc-v-gcc/10.1.0/bin/../lib/gcc/riscv64-unknown-elf/10.1.0/../../../../riscv64-unknown-elf/lib/rv32im/ilp32\libc.a(lib_a-findfp.o)
 .comment       0x0000000000000012       0x13 d:/program_files/programming/rt-threadstudio/repo/extract/toolchain_support_packages/risc-v/risc-v-gcc/10.1.0/bin/../lib/gcc/riscv64-unknown-elf/10.1.0/../../../../riscv64-unknown-elf/lib/rv32im/ilp32\libc.a(lib_a-fopen.o)
 .comment       0x0000000000000012       0x13 d:/program_files/programming/rt-threadstudio/repo/extract/toolchain_support_packages/risc-v/risc-v-gcc/10.1.0/bin/../lib/gcc/riscv64-unknown-elf/10.1.0/../../../../riscv64-unknown-elf/lib/rv32im/ilp32\libc.a(lib_a-fseek.o)
 .comment       0x0000000000000012       0x13 d:/program_files/programming/rt-threadstudio/repo/extract/toolchain_support_packages/risc-v/risc-v-gcc/10.1.0/bin/../lib/gcc/riscv64-unknown-elf/10.1.0/../../../../riscv64-unknown-elf/lib/rv32im/ilp32\libc.a(lib_a-fseeko.o)
 .comment       0x0000000000000012       0x13 d:/program_files/programming/rt-threadstudio/repo/extract/toolchain_support_packages/risc-v/risc-v-gcc/10.1.0/bin/../lib/gcc/riscv64-unknown-elf/10.1.0/../../../../riscv64-unknown-elf/lib/rv32im/ilp32\libc.a(lib_a-ftello.o)
 .comment       0x0000000000000012       0x13 d:/program_files/programming/rt-threadstudio/repo/extract/toolchain_support_packages/risc-v/risc-v-gcc/10.1.0/bin/../lib/gcc/riscv64-unknown-elf/10.1.0/../../../../riscv64-unknown-elf/lib/rv32im/ilp32\libc.a(lib_a-fwalk.o)
 .comment       0x0000000000000012       0x13 d:/program_files/programming/rt-threadstudio/repo/extract/toolchain_support_packages/risc-v/risc-v-gcc/10.1.0/bin/../lib/gcc/riscv64-unknown-elf/10.1.0/../../../../riscv64-unknown-elf/lib/rv32im/ilp32\libc.a(lib_a-impure.o)
 .comment       0x0000000000000012       0x13 d:/program_files/programming/rt-threadstudio/repo/extract/toolchain_support_packages/risc-v/risc-v-gcc/10.1.0/bin/../lib/gcc/riscv64-unknown-elf/10.1.0/../../../../riscv64-unknown-elf/lib/rv32im/ilp32\libc.a(lib_a-makebuf.o)
 .comment       0x0000000000000012       0x13 d:/program_files/programming/rt-threadstudio/repo/extract/toolchain_support_packages/risc-v/risc-v-gcc/10.1.0/bin/../lib/gcc/riscv64-unknown-elf/10.1.0/../../../../riscv64-unknown-elf/lib/rv32im/ilp32\libc.a(lib_a-memcmp.o)
 .comment       0x0000000000000012       0x13 d:/program_files/programming/rt-threadstudio/repo/extract/toolchain_support_packages/risc-v/risc-v-gcc/10.1.0/bin/../lib/gcc/riscv64-unknown-elf/10.1.0/../../../../riscv64-unknown-elf/lib/rv32im/ilp32\libc.a(lib_a-memcpy.o)
 .comment       0x0000000000000012       0x13 d:/program_files/programming/rt-threadstudio/repo/extract/toolchain_support_packages/risc-v/risc-v-gcc/10.1.0/bin/../lib/gcc/riscv64-unknown-elf/10.1.0/../../../../riscv64-unknown-elf/lib/rv32im/ilp32\libc.a(lib_a-putenv.o)
 .comment       0x0000000000000012       0x13 d:/program_files/programming/rt-threadstudio/repo/extract/toolchain_support_packages/risc-v/risc-v-gcc/10.1.0/bin/../lib/gcc/riscv64-unknown-elf/10.1.0/../../../../riscv64-unknown-elf/lib/rv32im/ilp32\libc.a(lib_a-putenv_r.o)
 .comment       0x0000000000000012       0x13 d:/program_files/programming/rt-threadstudio/repo/extract/toolchain_support_packages/risc-v/risc-v-gcc/10.1.0/bin/../lib/gcc/riscv64-unknown-elf/10.1.0/../../../../riscv64-unknown-elf/lib/rv32im/ilp32\libc.a(lib_a-refill.o)
 .comment       0x0000000000000012       0x13 d:/program_files/programming/rt-threadstudio/repo/extract/toolchain_support_packages/risc-v/risc-v-gcc/10.1.0/bin/../lib/gcc/riscv64-unknown-elf/10.1.0/../../../../riscv64-unknown-elf/lib/rv32im/ilp32\libc.a(lib_a-setenv_r.o)
 .comment       0x0000000000000012       0x13 d:/program_files/programming/rt-threadstudio/repo/extract/toolchain_support_packages/risc-v/risc-v-gcc/10.1.0/bin/../lib/gcc/riscv64-unknown-elf/10.1.0/../../../../riscv64-unknown-elf/lib/rv32im/ilp32\libc.a(lib_a-setvbuf.o)
 .comment       0x0000000000000012       0x13 d:/program_files/programming/rt-threadstudio/repo/extract/toolchain_support_packages/risc-v/risc-v-gcc/10.1.0/bin/../lib/gcc/riscv64-unknown-elf/10.1.0/../../../../riscv64-unknown-elf/lib/rv32im/ilp32\libc.a(lib_a-snprintf.o)
 .comment       0x0000000000000012       0x13 d:/program_files/programming/rt-threadstudio/repo/extract/toolchain_support_packages/risc-v/risc-v-gcc/10.1.0/bin/../lib/gcc/riscv64-unknown-elf/10.1.0/../../../../riscv64-unknown-elf/lib/rv32im/ilp32\libc.a(lib_a-stdio.o)
 .comment       0x0000000000000012       0x13 d:/program_files/programming/rt-threadstudio/repo/extract/toolchain_support_packages/risc-v/risc-v-gcc/10.1.0/bin/../lib/gcc/riscv64-unknown-elf/10.1.0/../../../../riscv64-unknown-elf/lib/rv32im/ilp32\libc.a(lib_a-strcat.o)
 .comment       0x0000000000000012       0x13 d:/program_files/programming/rt-threadstudio/repo/extract/toolchain_support_packages/risc-v/risc-v-gcc/10.1.0/bin/../lib/gcc/riscv64-unknown-elf/10.1.0/../../../../riscv64-unknown-elf/lib/rv32im/ilp32\libc.a(lib_a-strchr.o)
 .comment       0x0000000000000012       0x13 d:/program_files/programming/rt-threadstudio/repo/extract/toolchain_support_packages/risc-v/risc-v-gcc/10.1.0/bin/../lib/gcc/riscv64-unknown-elf/10.1.0/../../../../riscv64-unknown-elf/lib/rv32im/ilp32\libc.a(lib_a-strcpy.o)
 .comment       0x0000000000000012       0x13 d:/program_files/programming/rt-threadstudio/repo/extract/toolchain_support_packages/risc-v/risc-v-gcc/10.1.0/bin/../lib/gcc/riscv64-unknown-elf/10.1.0/../../../../riscv64-unknown-elf/lib/rv32im/ilp32\libc.a(lib_a-strdup_r.o)
 .comment       0x0000000000000012       0x13 d:/program_files/programming/rt-threadstudio/repo/extract/toolchain_support_packages/risc-v/risc-v-gcc/10.1.0/bin/../lib/gcc/riscv64-unknown-elf/10.1.0/../../../../riscv64-unknown-elf/lib/rv32im/ilp32\libc.a(lib_a-strlen.o)
 .comment       0x0000000000000012       0x13 d:/program_files/programming/rt-threadstudio/repo/extract/toolchain_support_packages/risc-v/risc-v-gcc/10.1.0/bin/../lib/gcc/riscv64-unknown-elf/10.1.0/../../../../riscv64-unknown-elf/lib/rv32im/ilp32\libc.a(lib_a-strncmp.o)
 .comment       0x0000000000000012       0x13 d:/program_files/programming/rt-threadstudio/repo/extract/toolchain_support_packages/risc-v/risc-v-gcc/10.1.0/bin/../lib/gcc/riscv64-unknown-elf/10.1.0/../../../../riscv64-unknown-elf/lib/rv32im/ilp32\libc.a(lib_a-strncpy.o)
 .comment       0x0000000000000012       0x13 d:/program_files/programming/rt-threadstudio/repo/extract/toolchain_support_packages/risc-v/risc-v-gcc/10.1.0/bin/../lib/gcc/riscv64-unknown-elf/10.1.0/../../../../riscv64-unknown-elf/lib/rv32im/ilp32\libc.a(lib_a-strrchr.o)
 .comment       0x0000000000000012       0x13 d:/program_files/programming/rt-threadstudio/repo/extract/toolchain_support_packages/risc-v/risc-v-gcc/10.1.0/bin/../lib/gcc/riscv64-unknown-elf/10.1.0/../../../../riscv64-unknown-elf/lib/rv32im/ilp32\libc.a(lib_a-strstr.o)
 .comment       0x0000000000000012       0x13 d:/program_files/programming/rt-threadstudio/repo/extract/toolchain_support_packages/risc-v/risc-v-gcc/10.1.0/bin/../lib/gcc/riscv64-unknown-elf/10.1.0/../../../../riscv64-unknown-elf/lib/rv32im/ilp32\libc.a(lib_a-strtol.o)
 .comment       0x0000000000000012       0x13 d:/program_files/programming/rt-threadstudio/repo/extract/toolchain_support_packages/risc-v/risc-v-gcc/10.1.0/bin/../lib/gcc/riscv64-unknown-elf/10.1.0/../../../../riscv64-unknown-elf/lib/rv32im/ilp32\libc.a(lib_a-svfprintf.o)
 .comment       0x0000000000000012       0x13 d:/program_files/programming/rt-threadstudio/repo/extract/toolchain_support_packages/risc-v/risc-v-gcc/10.1.0/bin/../lib/gcc/riscv64-unknown-elf/10.1.0/../../../../riscv64-unknown-elf/lib/rv32im/ilp32\libc.a(lib_a-ctype_.o)
 .comment       0x0000000000000012       0x13 d:/program_files/programming/rt-threadstudio/repo/extract/toolchain_support_packages/risc-v/risc-v-gcc/10.1.0/bin/../lib/gcc/riscv64-unknown-elf/10.1.0/../../../../riscv64-unknown-elf/lib/rv32im/ilp32\libc.a(lib_a-environ.o)
 .comment       0x0000000000000012       0x13 d:/program_files/programming/rt-threadstudio/repo/extract/toolchain_support_packages/risc-v/risc-v-gcc/10.1.0/bin/../lib/gcc/riscv64-unknown-elf/10.1.0/../../../../riscv64-unknown-elf/lib/rv32im/ilp32\libc.a(lib_a-envlock.o)
 .comment       0x0000000000000012       0x13 d:/program_files/programming/rt-threadstudio/repo/extract/toolchain_support_packages/risc-v/risc-v-gcc/10.1.0/bin/../lib/gcc/riscv64-unknown-elf/10.1.0/../../../../riscv64-unknown-elf/lib/rv32im/ilp32\libc.a(lib_a-flags.o)
 .comment       0x0000000000000012       0x13 d:/program_files/programming/rt-threadstudio/repo/extract/toolchain_support_packages/risc-v/risc-v-gcc/10.1.0/bin/../lib/gcc/riscv64-unknown-elf/10.1.0/../../../../riscv64-unknown-elf/lib/rv32im/ilp32\libc.a(lib_a-getenv_r.o)
 .comment       0x0000000000000012       0x13 d:/program_files/programming/rt-threadstudio/repo/extract/toolchain_support_packages/risc-v/risc-v-gcc/10.1.0/bin/../lib/gcc/riscv64-unknown-elf/10.1.0/../../../../riscv64-unknown-elf/lib/rv32im/ilp32\libc.a(lib_a-ldtoa.o)
 .comment       0x0000000000000012       0x13 d:/program_files/programming/rt-threadstudio/repo/extract/toolchain_support_packages/risc-v/risc-v-gcc/10.1.0/bin/../lib/gcc/riscv64-unknown-elf/10.1.0/../../../../riscv64-unknown-elf/lib/rv32im/ilp32\libc.a(lib_a-localeconv.o)
 .comment       0x0000000000000012       0x13 d:/program_files/programming/rt-threadstudio/repo/extract/toolchain_support_packages/risc-v/risc-v-gcc/10.1.0/bin/../lib/gcc/riscv64-unknown-elf/10.1.0/../../../../riscv64-unknown-elf/lib/rv32im/ilp32\libc.a(lib_a-locale.o)
 .comment       0x0000000000000012       0x13 d:/program_files/programming/rt-threadstudio/repo/extract/toolchain_support_packages/risc-v/risc-v-gcc/10.1.0/bin/../lib/gcc/riscv64-unknown-elf/10.1.0/../../../../riscv64-unknown-elf/lib/rv32im/ilp32\libc.a(lib_a-malloc.o)
 .comment       0x0000000000000012       0x13 d:/program_files/programming/rt-threadstudio/repo/extract/toolchain_support_packages/risc-v/risc-v-gcc/10.1.0/bin/../lib/gcc/riscv64-unknown-elf/10.1.0/../../../../riscv64-unknown-elf/lib/rv32im/ilp32\libc.a(lib_a-mbtowc_r.o)
 .comment       0x0000000000000012       0x13 d:/program_files/programming/rt-threadstudio/repo/extract/toolchain_support_packages/risc-v/risc-v-gcc/10.1.0/bin/../lib/gcc/riscv64-unknown-elf/10.1.0/../../../../riscv64-unknown-elf/lib/rv32im/ilp32\libc.a(lib_a-memchr.o)
 .comment       0x0000000000000012       0x13 d:/program_files/programming/rt-threadstudio/repo/extract/toolchain_support_packages/risc-v/risc-v-gcc/10.1.0/bin/../lib/gcc/riscv64-unknown-elf/10.1.0/../../../../riscv64-unknown-elf/lib/rv32im/ilp32\libc.a(lib_a-mprec.o)
 .comment       0x0000000000000012       0x13 d:/program_files/programming/rt-threadstudio/repo/extract/toolchain_support_packages/risc-v/risc-v-gcc/10.1.0/bin/../lib/gcc/riscv64-unknown-elf/10.1.0/../../../../riscv64-unknown-elf/lib/rv32im/ilp32\libc.a(lib_a-s_frexp.o)
 .comment       0x0000000000000012       0x13 d:/program_files/programming/rt-threadstudio/repo/extract/toolchain_support_packages/risc-v/risc-v-gcc/10.1.0/bin/../lib/gcc/riscv64-unknown-elf/10.1.0/../../../../riscv64-unknown-elf/lib/rv32im/ilp32\libc.a(lib_a-sprintf.o)
 .comment       0x0000000000000012       0x13 d:/program_files/programming/rt-threadstudio/repo/extract/toolchain_support_packages/risc-v/risc-v-gcc/10.1.0/bin/../lib/gcc/riscv64-unknown-elf/10.1.0/../../../../riscv64-unknown-elf/lib/rv32im/ilp32\libc.a(lib_a-strnlen.o)
 .comment       0x0000000000000012       0x13 d:/program_files/programming/rt-threadstudio/repo/extract/toolchain_support_packages/risc-v/risc-v-gcc/10.1.0/bin/../lib/gcc/riscv64-unknown-elf/10.1.0/../../../../riscv64-unknown-elf/lib/rv32im/ilp32\libc.a(lib_a-svfiprintf.o)
 .comment       0x0000000000000012       0x13 d:/program_files/programming/rt-threadstudio/repo/extract/toolchain_support_packages/risc-v/risc-v-gcc/10.1.0/bin/../lib/gcc/riscv64-unknown-elf/10.1.0/../../../../riscv64-unknown-elf/lib/rv32im/ilp32\libc.a(lib_a-wctomb_r.o)
 .comment       0x0000000000000012       0x13 d:/program_files/programming/rt-threadstudio/repo/extract/toolchain_support_packages/risc-v/risc-v-gcc/10.1.0/bin/../lib/gcc/riscv64-unknown-elf/10.1.0/../../../../riscv64-unknown-elf/lib/rv32im/ilp32\libc.a(lib_a-assert.o)
 .comment       0x0000000000000012       0x13 d:/program_files/programming/rt-threadstudio/repo/extract/toolchain_support_packages/risc-v/risc-v-gcc/10.1.0/bin/../lib/gcc/riscv64-unknown-elf/10.1.0/../../../../riscv64-unknown-elf/lib/rv32im/ilp32\libc.a(lib_a-fiprintf.o)
 .comment       0x0000000000000012       0x13 d:/program_files/programming/rt-threadstudio/repo/extract/toolchain_support_packages/risc-v/risc-v-gcc/10.1.0/bin/../lib/gcc/riscv64-unknown-elf/10.1.0/../../../../riscv64-unknown-elf/lib/rv32im/ilp32\libc.a(lib_a-memmove-stub.o)
 .comment       0x0000000000000012       0x13 d:/program_files/programming/rt-threadstudio/repo/extract/toolchain_support_packages/risc-v/risc-v-gcc/10.1.0/bin/../lib/gcc/riscv64-unknown-elf/10.1.0/../../../../riscv64-unknown-elf/lib/rv32im/ilp32\libc.a(lib_a-vfiprintf.o)
 .comment       0x0000000000000012       0x13 d:/program_files/programming/rt-threadstudio/repo/extract/toolchain_support_packages/risc-v/risc-v-gcc/10.1.0/bin/../lib/gcc/riscv64-unknown-elf/10.1.0/../../../../riscv64-unknown-elf/lib/rv32im/ilp32\libc.a(lib_a-wsetup.o)
 .comment       0x0000000000000012       0x13 d:/program_files/programming/rt-threadstudio/repo/extract/toolchain_support_packages/risc-v/risc-v-gcc/10.1.0/bin/../lib/gcc/riscv64-unknown-elf/10.1.0/../../../../riscv64-unknown-elf/lib/rv32im/ilp32\libc.a(lib_a-abort.o)
 .comment       0x0000000000000012       0x13 d:/program_files/programming/rt-threadstudio/repo/extract/toolchain_support_packages/risc-v/risc-v-gcc/10.1.0/bin/../lib/gcc/riscv64-unknown-elf/10.1.0/../../../../riscv64-unknown-elf/lib/rv32im/ilp32\libc.a(lib_a-fputwc.o)
 .comment       0x0000000000000012       0x13 d:/program_files/programming/rt-threadstudio/repo/extract/toolchain_support_packages/risc-v/risc-v-gcc/10.1.0/bin/../lib/gcc/riscv64-unknown-elf/10.1.0/../../../../riscv64-unknown-elf/lib/rv32im/ilp32\libc.a(lib_a-fvwrite.o)
 .comment       0x0000000000000012       0x13 d:/program_files/programming/rt-threadstudio/repo/extract/toolchain_support_packages/risc-v/risc-v-gcc/10.1.0/bin/../lib/gcc/riscv64-unknown-elf/10.1.0/../../../../riscv64-unknown-elf/lib/rv32im/ilp32\libc.a(lib_a-signal.o)
 .comment       0x0000000000000012       0x13 d:/program_files/programming/rt-threadstudio/repo/extract/toolchain_support_packages/risc-v/risc-v-gcc/10.1.0/bin/../lib/gcc/riscv64-unknown-elf/10.1.0/../../../../riscv64-unknown-elf/lib/rv32im/ilp32\libc.a(lib_a-wbuf.o)
 .comment       0x0000000000000012       0x13 d:/program_files/programming/rt-threadstudio/repo/extract/toolchain_support_packages/risc-v/risc-v-gcc/10.1.0/bin/../lib/gcc/riscv64-unknown-elf/10.1.0/../../../../riscv64-unknown-elf/lib/rv32im/ilp32\libc.a(lib_a-wcrtomb.o)
 .comment       0x0000000000000012       0x11 libraries\hal_libraries\ab32vg1_hal\libhal.a(cache.o)
                                         0x12 (size before relaxing)
 .comment       0x0000000000000023       0x12 libraries\hal_libraries\ab32vg1_hal\libhal.a(spiflash.o)
 .comment       0x0000000000000023       0x12 libraries\hal_libraries\ab32vg1_hal\libhal.a(ab32vg1_hal_adc.o)
 .comment       0x0000000000000023       0x12 libraries\hal_libraries\ab32vg1_hal\libhal.a(debug.o)
 .comment       0x0000000000000023       0x13 d:/program_files/programming/rt-threadstudio/repo/extract/toolchain_support_packages/risc-v/risc-v-gcc/10.1.0/bin/../lib/gcc/riscv64-unknown-elf/10.1.0/rv32im/ilp32\libgcc.a(_udivdi3.o)
 .comment       0x0000000000000023       0x13 d:/program_files/programming/rt-threadstudio/repo/extract/toolchain_support_packages/risc-v/risc-v-gcc/10.1.0/bin/../lib/gcc/riscv64-unknown-elf/10.1.0/rv32im/ilp32\libgcc.a(_umoddi3.o)
 .comment       0x0000000000000023       0x13 d:/program_files/programming/rt-threadstudio/repo/extract/toolchain_support_packages/risc-v/risc-v-gcc/10.1.0/bin/../lib/gcc/riscv64-unknown-elf/10.1.0/rv32im/ilp32\libgcc.a(divdf3.o)
 .comment       0x0000000000000023       0x13 d:/program_files/programming/rt-threadstudio/repo/extract/toolchain_support_packages/risc-v/risc-v-gcc/10.1.0/bin/../lib/gcc/riscv64-unknown-elf/10.1.0/rv32im/ilp32\libgcc.a(muldf3.o)
 .comment       0x0000000000000023       0x13 d:/program_files/programming/rt-threadstudio/repo/extract/toolchain_support_packages/risc-v/risc-v-gcc/10.1.0/bin/../lib/gcc/riscv64-unknown-elf/10.1.0/rv32im/ilp32\libgcc.a(fixdfsi.o)
 .comment       0x0000000000000023       0x13 d:/program_files/programming/rt-threadstudio/repo/extract/toolchain_support_packages/risc-v/risc-v-gcc/10.1.0/bin/../lib/gcc/riscv64-unknown-elf/10.1.0/rv32im/ilp32\libgcc.a(floatunsidf.o)
 .comment       0x0000000000000023       0x13 d:/program_files/programming/rt-threadstudio/repo/extract/toolchain_support_packages/risc-v/risc-v-gcc/10.1.0/bin/../lib/gcc/riscv64-unknown-elf/10.1.0/rv32im/ilp32\libgcc.a(eqtf2.o)
 .comment       0x0000000000000023       0x13 d:/program_files/programming/rt-threadstudio/repo/extract/toolchain_support_packages/risc-v/risc-v-gcc/10.1.0/bin/../lib/gcc/riscv64-unknown-elf/10.1.0/rv32im/ilp32\libgcc.a(getf2.o)
 .comment       0x0000000000000023       0x13 d:/program_files/programming/rt-threadstudio/repo/extract/toolchain_support_packages/risc-v/risc-v-gcc/10.1.0/bin/../lib/gcc/riscv64-unknown-elf/10.1.0/rv32im/ilp32\libgcc.a(letf2.o)
 .comment       0x0000000000000023       0x13 d:/program_files/programming/rt-threadstudio/repo/extract/toolchain_support_packages/risc-v/risc-v-gcc/10.1.0/bin/../lib/gcc/riscv64-unknown-elf/10.1.0/rv32im/ilp32\libgcc.a(multf3.o)
 .comment       0x0000000000000023       0x13 d:/program_files/programming/rt-threadstudio/repo/extract/toolchain_support_packages/risc-v/risc-v-gcc/10.1.0/bin/../lib/gcc/riscv64-unknown-elf/10.1.0/rv32im/ilp32\libgcc.a(subtf3.o)
 .comment       0x0000000000000023       0x13 d:/program_files/programming/rt-threadstudio/repo/extract/toolchain_support_packages/risc-v/risc-v-gcc/10.1.0/bin/../lib/gcc/riscv64-unknown-elf/10.1.0/rv32im/ilp32\libgcc.a(fixtfsi.o)
 .comment       0x0000000000000023       0x13 d:/program_files/programming/rt-threadstudio/repo/extract/toolchain_support_packages/risc-v/risc-v-gcc/10.1.0/bin/../lib/gcc/riscv64-unknown-elf/10.1.0/rv32im/ilp32\libgcc.a(floatsitf.o)
 .comment       0x0000000000000023       0x13 d:/program_files/programming/rt-threadstudio/repo/extract/toolchain_support_packages/risc-v/risc-v-gcc/10.1.0/bin/../lib/gcc/riscv64-unknown-elf/10.1.0/rv32im/ilp32\libgcc.a(addsf3.o)
 .comment       0x0000000000000023       0x13 d:/program_files/programming/rt-threadstudio/repo/extract/toolchain_support_packages/risc-v/risc-v-gcc/10.1.0/bin/../lib/gcc/riscv64-unknown-elf/10.1.0/rv32im/ilp32\libgcc.a(divsf3.o)
 .comment       0x0000000000000023       0x13 d:/program_files/programming/rt-threadstudio/repo/extract/toolchain_support_packages/risc-v/risc-v-gcc/10.1.0/bin/../lib/gcc/riscv64-unknown-elf/10.1.0/rv32im/ilp32\libgcc.a(eqsf2.o)
 .comment       0x0000000000000023       0x13 d:/program_files/programming/rt-threadstudio/repo/extract/toolchain_support_packages/risc-v/risc-v-gcc/10.1.0/bin/../lib/gcc/riscv64-unknown-elf/10.1.0/rv32im/ilp32\libgcc.a(gesf2.o)
 .comment       0x0000000000000023       0x13 d:/program_files/programming/rt-threadstudio/repo/extract/toolchain_support_packages/risc-v/risc-v-gcc/10.1.0/bin/../lib/gcc/riscv64-unknown-elf/10.1.0/rv32im/ilp32\libgcc.a(lesf2.o)
 .comment       0x0000000000000023       0x13 d:/program_files/programming/rt-threadstudio/repo/extract/toolchain_support_packages/risc-v/risc-v-gcc/10.1.0/bin/../lib/gcc/riscv64-unknown-elf/10.1.0/rv32im/ilp32\libgcc.a(mulsf3.o)
 .comment       0x0000000000000023       0x13 d:/program_files/programming/rt-threadstudio/repo/extract/toolchain_support_packages/risc-v/risc-v-gcc/10.1.0/bin/../lib/gcc/riscv64-unknown-elf/10.1.0/rv32im/ilp32\libgcc.a(subsf3.o)
 .comment       0x0000000000000023       0x13 d:/program_files/programming/rt-threadstudio/repo/extract/toolchain_support_packages/risc-v/risc-v-gcc/10.1.0/bin/../lib/gcc/riscv64-unknown-elf/10.1.0/rv32im/ilp32\libgcc.a(fixsfsi.o)
 .comment       0x0000000000000023       0x13 d:/program_files/programming/rt-threadstudio/repo/extract/toolchain_support_packages/risc-v/risc-v-gcc/10.1.0/bin/../lib/gcc/riscv64-unknown-elf/10.1.0/rv32im/ilp32\libgcc.a(fixunssfsi.o)
 .comment       0x0000000000000023       0x13 d:/program_files/programming/rt-threadstudio/repo/extract/toolchain_support_packages/risc-v/risc-v-gcc/10.1.0/bin/../lib/gcc/riscv64-unknown-elf/10.1.0/rv32im/ilp32\libgcc.a(floatsisf.o)
 .comment       0x0000000000000023       0x13 d:/program_files/programming/rt-threadstudio/repo/extract/toolchain_support_packages/risc-v/risc-v-gcc/10.1.0/bin/../lib/gcc/riscv64-unknown-elf/10.1.0/rv32im/ilp32\libgcc.a(floatunsisf.o)
 .comment       0x0000000000000023       0x13 d:/program_files/programming/rt-threadstudio/repo/extract/toolchain_support_packages/risc-v/risc-v-gcc/10.1.0/bin/../lib/gcc/riscv64-unknown-elf/10.1.0/rv32im/ilp32\libgcc.a(extenddftf2.o)
 .comment       0x0000000000000023       0x13 d:/program_files/programming/rt-threadstudio/repo/extract/toolchain_support_packages/risc-v/risc-v-gcc/10.1.0/bin/../lib/gcc/riscv64-unknown-elf/10.1.0/rv32im/ilp32\libgcc.a(trunctfdf2.o)
 .comment       0x0000000000000023       0x13 d:/program_files/programming/rt-threadstudio/repo/extract/toolchain_support_packages/risc-v/risc-v-gcc/10.1.0/bin/../lib/gcc/riscv64-unknown-elf/10.1.0/rv32im/ilp32\libgcc.a(_clz.o)
 .comment       0x0000000000000023       0x13 d:/program_files/programming/rt-threadstudio/repo/extract/toolchain_support_packages/risc-v/risc-v-gcc/10.1.0/bin/../lib/gcc/riscv64-unknown-elf/10.1.0/rv32im/ilp32\libgcc.a(_clzsi2.o)

.riscv.attributes
                0x0000000000000000       0x26
 .riscv.attributes
                0x0000000000000000       0x26 build\applications\main.o
 .riscv.attributes
                0x0000000000000026       0x26 build\applications\mnt.o
 .riscv.attributes
                0x000000000000004c       0x26 build\board\ports\audio\drv_sound.o
 .riscv.attributes
                0x0000000000000072       0x26 build\board\board.o
 .riscv.attributes
                0x0000000000000098       0x26 build\board\ab32vg1_hal_msp.o
 .riscv.attributes
                0x00000000000000be       0x26 build\kernel\src\memheap.o
 .riscv.attributes
                0x00000000000000e4       0x26 build\kernel\src\clock.o
 .riscv.attributes
                0x000000000000010a       0x26 build\kernel\src\ipc.o
 .riscv.attributes
                0x0000000000000130       0x26 build\kernel\src\kservice.o
 .riscv.attributes
                0x0000000000000156       0x26 build\kernel\src\thread.o
 .riscv.attributes
                0x000000000000017c       0x26 build\kernel\src\irq.o
 .riscv.attributes
                0x00000000000001a2       0x26 build\kernel\src\idle.o
 .riscv.attributes
                0x00000000000001c8       0x26 build\kernel\src\timer.o
 .riscv.attributes
                0x00000000000001ee       0x26 build\kernel\src\mempool.o
 .riscv.attributes
                0x0000000000000214       0x26 build\kernel\src\device.o
 .riscv.attributes
                0x000000000000023a       0x26 build\kernel\src\mem.o
 .riscv.attributes
                0x0000000000000260       0x26 build\kernel\src\object.o
 .riscv.attributes
                0x0000000000000286       0x26 build\kernel\src\scheduler.o
 .riscv.attributes
                0x00000000000002ac       0x26 build\kernel\src\components.o
 .riscv.attributes
                0x00000000000002d2       0x26 build\kernel\components\dfs\src\dfs_posix.o
 .riscv.attributes
                0x00000000000002f8       0x26 build\kernel\components\dfs\src\dfs_fs.o
 .riscv.attributes
                0x000000000000031e       0x26 build\kernel\components\dfs\src\dfs.o
 .riscv.attributes
                0x0000000000000344       0x26 build\kernel\components\dfs\src\dfs_file.o
 .riscv.attributes
                0x000000000000036a       0x26 build\kernel\components\dfs\filesystems\devfs\devfs.o
 .riscv.attributes
                0x0000000000000390       0x26 build\kernel\components\dfs\filesystems\elmfat\dfs_elm.o
 .riscv.attributes
                0x00000000000003b6       0x26 build\kernel\components\dfs\filesystems\elmfat\ffunicode.o
 .riscv.attributes
                0x00000000000003dc       0x26 build\kernel\components\dfs\filesystems\elmfat\ff.o
 .riscv.attributes
                0x0000000000000402       0x26 build\kernel\components\drivers\audio\audio.o
 .riscv.attributes
                0x0000000000000428       0x26 build\kernel\components\drivers\audio\audio_pipe.o
 .riscv.attributes
                0x000000000000044e       0x26 build\kernel\components\drivers\hwtimer\hwtimer.o
 .riscv.attributes
                0x0000000000000474       0x26 build\kernel\components\drivers\i2c\i2c_core.o
 .riscv.attributes
                0x000000000000049a       0x26 build\kernel\components\drivers\i2c\i2c_dev.o
 .riscv.attributes
                0x00000000000004c0       0x26 build\kernel\components\drivers\i2c\i2c-bit-ops.o
 .riscv.attributes
                0x00000000000004e6       0x26 build\kernel\components\drivers\misc\adc.o
 .riscv.attributes
                0x000000000000050c       0x26 build\kernel\components\drivers\misc\rt_drv_pwm.o
 .riscv.attributes
                0x0000000000000532       0x26 build\kernel\components\drivers\misc\pin.o
 .riscv.attributes
                0x0000000000000558       0x26 build\kernel\components\drivers\rtc\rtc.o
 .riscv.attributes
                0x000000000000057e       0x26 build\kernel\components\drivers\sdio\mmc.o
 .riscv.attributes
                0x00000000000005a4       0x26 build\kernel\components\drivers\sdio\sd.o
 .riscv.attributes
                0x00000000000005ca       0x26 build\kernel\components\drivers\sdio\block_dev.o
 .riscv.attributes
                0x00000000000005f0       0x26 build\kernel\components\drivers\sdio\sdio.o
 .riscv.attributes
                0x0000000000000616       0x26 build\kernel\components\drivers\sdio\mmcsd_core.o
 .riscv.attributes
                0x000000000000063c       0x26 build\kernel\components\drivers\serial\serial.o
 .riscv.attributes
                0x0000000000000662       0x26 build\kernel\components\drivers\src\dataqueue.o
 .riscv.attributes
                0x0000000000000688       0x26 build\kernel\components\drivers\src\completion.o
 .riscv.attributes
                0x00000000000006ae       0x26 build\kernel\components\drivers\src\ringbuffer.o
 .riscv.attributes
                0x00000000000006d4       0x26 build\kernel\components\drivers\watchdog\watchdog.o
 .riscv.attributes
                0x00000000000006fa       0x26 build\kernel\components\finsh\finsh_node.o
 .riscv.attributes
                0x0000000000000720       0x26 build\kernel\components\finsh\finsh_parser.o
 .riscv.attributes
                0x0000000000000746       0x26 build\kernel\components\finsh\cmd.o
 .riscv.attributes
                0x000000000000076c       0x26 build\kernel\components\finsh\finsh_vm.o
 .riscv.attributes
                0x0000000000000792       0x26 build\kernel\components\finsh\msh_file.o
 .riscv.attributes
                0x00000000000007b8       0x26 build\kernel\components\finsh\shell.o
 .riscv.attributes
                0x00000000000007de       0x26 build\kernel\components\finsh\finsh_var.o
 .riscv.attributes
                0x0000000000000804       0x26 build\kernel\components\finsh\finsh_compiler.o
 .riscv.attributes
                0x000000000000082a       0x26 build\kernel\components\finsh\finsh_heap.o
 .riscv.attributes
                0x0000000000000850       0x26 build\kernel\components\finsh\finsh_ops.o
 .riscv.attributes
                0x0000000000000876       0x26 build\kernel\components\finsh\finsh_error.o
 .riscv.attributes
                0x000000000000089c       0x26 build\kernel\components\finsh\msh.o
 .riscv.attributes
                0x00000000000008c2       0x26 build\kernel\components\finsh\finsh_token.o
 .riscv.attributes
                0x00000000000008e8       0x26 build\kernel\components\finsh\finsh_init.o
 .riscv.attributes
                0x000000000000090e       0x26 build\kernel\components\libc\compilers\common\time.o
 .riscv.attributes
                0x0000000000000934       0x26 build\kernel\components\libc\compilers\common\stdlib.o
 .riscv.attributes
                0x000000000000095a       0x26 build\kernel\components\libc\compilers\newlib\libc.o
 .riscv.attributes
                0x0000000000000980       0x26 build\kernel\components\libc\compilers\newlib\syscalls.o
 .riscv.attributes
                0x00000000000009a6       0x26 build\kernel\components\libc\compilers\newlib\stdio.o
 .riscv.attributes
                0x00000000000009cc       0x26 libraries\hal_drivers\drv_gpio.o
 .riscv.attributes
                0x00000000000009f2       0x26 libraries\hal_drivers\drv_rtc.o
 .riscv.attributes
                0x0000000000000a18       0x26 libraries\hal_drivers\drv_soft_i2c.o
 .riscv.attributes
                0x0000000000000a3e       0x26 libraries\hal_drivers\drv_wdt.o
 .riscv.attributes
                0x0000000000000a64       0x26 libraries\hal_drivers\drv_sdio.o
 .riscv.attributes
                0x0000000000000a8a       0x26 libraries\hal_drivers\drv_adc.o
 .riscv.attributes
                0x0000000000000ab0       0x26 libraries\hal_drivers\drv_irrx.o
 .riscv.attributes
                0x0000000000000ad6       0x26 libraries\hal_drivers\drv_usart.o
 .riscv.attributes
                0x0000000000000afc       0x26 libraries\hal_drivers\drv_pwm.o
 .riscv.attributes
                0x0000000000000b22       0x26 libraries\hal_drivers\drv_hwtimer.o
 .riscv.attributes
                0x0000000000000b48       0x26 libcpu\cpu\interrupt.o
 .riscv.attributes
                0x0000000000000b6e       0x26 libcpu\cpu\cpuport.o
 .riscv.attributes
                0x0000000000000b94       0x24 libcpu\cpu\context_gcc.o
 .riscv.attributes
                0x0000000000000bb8       0x26 libraries\hal_libraries\ab32vg1_hal\source\ab32vg1_hal_gpio.o
 .riscv.attributes
                0x0000000000000bde       0x26 libraries\hal_libraries\ab32vg1_hal\source\ab32vg1_hal.o
 .riscv.attributes
                0x0000000000000c04       0x26 libraries\hal_libraries\ab32vg1_hal\source\ab32vg1_hal_uart.o
 .riscv.attributes
                0x0000000000000c2a       0x26 libraries\hal_libraries\ab32vg1_hal\source\ab32vg1_hal_rcu.o
 .riscv.attributes
                0x0000000000000c50       0x24 libraries\hal_libraries\bmsis\source\startup.o
 .riscv.attributes
                0x0000000000000c74       0x26 libraries\hal_libraries\bmsis\source\system_ab32vgx.o
 .riscv.attributes
                0x0000000000000c9a       0x21 d:/program_files/programming/rt-threadstudio/repo/extract/toolchain_support_packages/risc-v/risc-v-gcc/10.1.0/bin/../lib/gcc/riscv64-unknown-elf/10.1.0/../../../../riscv64-unknown-elf/lib/rv32im/ilp32\libc.a(lib_a-atoi.o)
 .riscv.attributes
                0x0000000000000cbb       0x21 d:/program_files/programming/rt-threadstudio/repo/extract/toolchain_support_packages/risc-v/risc-v-gcc/10.1.0/bin/../lib/gcc/riscv64-unknown-elf/10.1.0/../../../../riscv64-unknown-elf/lib/rv32im/ilp32\libc.a(lib_a-fclose.o)
 .riscv.attributes
                0x0000000000000cdc       0x21 d:/program_files/programming/rt-threadstudio/repo/extract/toolchain_support_packages/risc-v/risc-v-gcc/10.1.0/bin/../lib/gcc/riscv64-unknown-elf/10.1.0/../../../../riscv64-unknown-elf/lib/rv32im/ilp32\libc.a(lib_a-fflush.o)
 .riscv.attributes
                0x0000000000000cfd       0x21 d:/program_files/programming/rt-threadstudio/repo/extract/toolchain_support_packages/risc-v/risc-v-gcc/10.1.0/bin/../lib/gcc/riscv64-unknown-elf/10.1.0/../../../../riscv64-unknown-elf/lib/rv32im/ilp32\libc.a(lib_a-fileno.o)
 .riscv.attributes
                0x0000000000000d1e       0x21 d:/program_files/programming/rt-threadstudio/repo/extract/toolchain_support_packages/risc-v/risc-v-gcc/10.1.0/bin/../lib/gcc/riscv64-unknown-elf/10.1.0/../../../../riscv64-unknown-elf/lib/rv32im/ilp32\libc.a(lib_a-findfp.o)
 .riscv.attributes
                0x0000000000000d3f       0x21 d:/program_files/programming/rt-threadstudio/repo/extract/toolchain_support_packages/risc-v/risc-v-gcc/10.1.0/bin/../lib/gcc/riscv64-unknown-elf/10.1.0/../../../../riscv64-unknown-elf/lib/rv32im/ilp32\libc.a(lib_a-fopen.o)
 .riscv.attributes
                0x0000000000000d60       0x21 d:/program_files/programming/rt-threadstudio/repo/extract/toolchain_support_packages/risc-v/risc-v-gcc/10.1.0/bin/../lib/gcc/riscv64-unknown-elf/10.1.0/../../../../riscv64-unknown-elf/lib/rv32im/ilp32\libc.a(lib_a-fseek.o)
 .riscv.attributes
                0x0000000000000d81       0x21 d:/program_files/programming/rt-threadstudio/repo/extract/toolchain_support_packages/risc-v/risc-v-gcc/10.1.0/bin/../lib/gcc/riscv64-unknown-elf/10.1.0/../../../../riscv64-unknown-elf/lib/rv32im/ilp32\libc.a(lib_a-fseeko.o)
 .riscv.attributes
                0x0000000000000da2       0x21 d:/program_files/programming/rt-threadstudio/repo/extract/toolchain_support_packages/risc-v/risc-v-gcc/10.1.0/bin/../lib/gcc/riscv64-unknown-elf/10.1.0/../../../../riscv64-unknown-elf/lib/rv32im/ilp32\libc.a(lib_a-ftello.o)
 .riscv.attributes
                0x0000000000000dc3       0x21 d:/program_files/programming/rt-threadstudio/repo/extract/toolchain_support_packages/risc-v/risc-v-gcc/10.1.0/bin/../lib/gcc/riscv64-unknown-elf/10.1.0/../../../../riscv64-unknown-elf/lib/rv32im/ilp32\libc.a(lib_a-fwalk.o)
 .riscv.attributes
                0x0000000000000de4       0x21 d:/program_files/programming/rt-threadstudio/repo/extract/toolchain_support_packages/risc-v/risc-v-gcc/10.1.0/bin/../lib/gcc/riscv64-unknown-elf/10.1.0/../../../../riscv64-unknown-elf/lib/rv32im/ilp32\libc.a(lib_a-impure.o)
 .riscv.attributes
                0x0000000000000e05       0x21 d:/program_files/programming/rt-threadstudio/repo/extract/toolchain_support_packages/risc-v/risc-v-gcc/10.1.0/bin/../lib/gcc/riscv64-unknown-elf/10.1.0/../../../../riscv64-unknown-elf/lib/rv32im/ilp32\libc.a(lib_a-makebuf.o)
 .riscv.attributes
                0x0000000000000e26       0x21 d:/program_files/programming/rt-threadstudio/repo/extract/toolchain_support_packages/risc-v/risc-v-gcc/10.1.0/bin/../lib/gcc/riscv64-unknown-elf/10.1.0/../../../../riscv64-unknown-elf/lib/rv32im/ilp32\libc.a(lib_a-memcmp.o)
 .riscv.attributes
                0x0000000000000e47       0x21 d:/program_files/programming/rt-threadstudio/repo/extract/toolchain_support_packages/risc-v/risc-v-gcc/10.1.0/bin/../lib/gcc/riscv64-unknown-elf/10.1.0/../../../../riscv64-unknown-elf/lib/rv32im/ilp32\libc.a(lib_a-memcpy.o)
 .riscv.attributes
                0x0000000000000e68       0x1f d:/program_files/programming/rt-threadstudio/repo/extract/toolchain_support_packages/risc-v/risc-v-gcc/10.1.0/bin/../lib/gcc/riscv64-unknown-elf/10.1.0/../../../../riscv64-unknown-elf/lib/rv32im/ilp32\libc.a(lib_a-memset.o)
 .riscv.attributes
                0x0000000000000e87       0x21 d:/program_files/programming/rt-threadstudio/repo/extract/toolchain_support_packages/risc-v/risc-v-gcc/10.1.0/bin/../lib/gcc/riscv64-unknown-elf/10.1.0/../../../../riscv64-unknown-elf/lib/rv32im/ilp32\libc.a(lib_a-putenv.o)
 .riscv.attributes
                0x0000000000000ea8       0x21 d:/program_files/programming/rt-threadstudio/repo/extract/toolchain_support_packages/risc-v/risc-v-gcc/10.1.0/bin/../lib/gcc/riscv64-unknown-elf/10.1.0/../../../../riscv64-unknown-elf/lib/rv32im/ilp32\libc.a(lib_a-putenv_r.o)
 .riscv.attributes
                0x0000000000000ec9       0x21 d:/program_files/programming/rt-threadstudio/repo/extract/toolchain_support_packages/risc-v/risc-v-gcc/10.1.0/bin/../lib/gcc/riscv64-unknown-elf/10.1.0/../../../../riscv64-unknown-elf/lib/rv32im/ilp32\libc.a(lib_a-refill.o)
 .riscv.attributes
                0x0000000000000eea       0x21 d:/program_files/programming/rt-threadstudio/repo/extract/toolchain_support_packages/risc-v/risc-v-gcc/10.1.0/bin/../lib/gcc/riscv64-unknown-elf/10.1.0/../../../../riscv64-unknown-elf/lib/rv32im/ilp32\libc.a(lib_a-setenv_r.o)
 .riscv.attributes
                0x0000000000000f0b       0x21 d:/program_files/programming/rt-threadstudio/repo/extract/toolchain_support_packages/risc-v/risc-v-gcc/10.1.0/bin/../lib/gcc/riscv64-unknown-elf/10.1.0/../../../../riscv64-unknown-elf/lib/rv32im/ilp32\libc.a(lib_a-setvbuf.o)
 .riscv.attributes
                0x0000000000000f2c       0x21 d:/program_files/programming/rt-threadstudio/repo/extract/toolchain_support_packages/risc-v/risc-v-gcc/10.1.0/bin/../lib/gcc/riscv64-unknown-elf/10.1.0/../../../../riscv64-unknown-elf/lib/rv32im/ilp32\libc.a(lib_a-snprintf.o)
 .riscv.attributes
                0x0000000000000f4d       0x21 d:/program_files/programming/rt-threadstudio/repo/extract/toolchain_support_packages/risc-v/risc-v-gcc/10.1.0/bin/../lib/gcc/riscv64-unknown-elf/10.1.0/../../../../riscv64-unknown-elf/lib/rv32im/ilp32\libc.a(lib_a-stdio.o)
 .riscv.attributes
                0x0000000000000f6e       0x21 d:/program_files/programming/rt-threadstudio/repo/extract/toolchain_support_packages/risc-v/risc-v-gcc/10.1.0/bin/../lib/gcc/riscv64-unknown-elf/10.1.0/../../../../riscv64-unknown-elf/lib/rv32im/ilp32\libc.a(lib_a-strcat.o)
 .riscv.attributes
                0x0000000000000f8f       0x21 d:/program_files/programming/rt-threadstudio/repo/extract/toolchain_support_packages/risc-v/risc-v-gcc/10.1.0/bin/../lib/gcc/riscv64-unknown-elf/10.1.0/../../../../riscv64-unknown-elf/lib/rv32im/ilp32\libc.a(lib_a-strchr.o)
 .riscv.attributes
                0x0000000000000fb0       0x1f d:/program_files/programming/rt-threadstudio/repo/extract/toolchain_support_packages/risc-v/risc-v-gcc/10.1.0/bin/../lib/gcc/riscv64-unknown-elf/10.1.0/../../../../riscv64-unknown-elf/lib/rv32im/ilp32\libc.a(lib_a-strcmp.o)
 .riscv.attributes
                0x0000000000000fcf       0x21 d:/program_files/programming/rt-threadstudio/repo/extract/toolchain_support_packages/risc-v/risc-v-gcc/10.1.0/bin/../lib/gcc/riscv64-unknown-elf/10.1.0/../../../../riscv64-unknown-elf/lib/rv32im/ilp32\libc.a(lib_a-strcpy.o)
 .riscv.attributes
                0x0000000000000ff0       0x21 d:/program_files/programming/rt-threadstudio/repo/extract/toolchain_support_packages/risc-v/risc-v-gcc/10.1.0/bin/../lib/gcc/riscv64-unknown-elf/10.1.0/../../../../riscv64-unknown-elf/lib/rv32im/ilp32\libc.a(lib_a-strdup_r.o)
 .riscv.attributes
                0x0000000000001011       0x21 d:/program_files/programming/rt-threadstudio/repo/extract/toolchain_support_packages/risc-v/risc-v-gcc/10.1.0/bin/../lib/gcc/riscv64-unknown-elf/10.1.0/../../../../riscv64-unknown-elf/lib/rv32im/ilp32\libc.a(lib_a-strlen.o)
 .riscv.attributes
                0x0000000000001032       0x21 d:/program_files/programming/rt-threadstudio/repo/extract/toolchain_support_packages/risc-v/risc-v-gcc/10.1.0/bin/../lib/gcc/riscv64-unknown-elf/10.1.0/../../../../riscv64-unknown-elf/lib/rv32im/ilp32\libc.a(lib_a-strncmp.o)
 .riscv.attributes
                0x0000000000001053       0x21 d:/program_files/programming/rt-threadstudio/repo/extract/toolchain_support_packages/risc-v/risc-v-gcc/10.1.0/bin/../lib/gcc/riscv64-unknown-elf/10.1.0/../../../../riscv64-unknown-elf/lib/rv32im/ilp32\libc.a(lib_a-strncpy.o)
 .riscv.attributes
                0x0000000000001074       0x21 d:/program_files/programming/rt-threadstudio/repo/extract/toolchain_support_packages/risc-v/risc-v-gcc/10.1.0/bin/../lib/gcc/riscv64-unknown-elf/10.1.0/../../../../riscv64-unknown-elf/lib/rv32im/ilp32\libc.a(lib_a-strrchr.o)
 .riscv.attributes
                0x0000000000001095       0x21 d:/program_files/programming/rt-threadstudio/repo/extract/toolchain_support_packages/risc-v/risc-v-gcc/10.1.0/bin/../lib/gcc/riscv64-unknown-elf/10.1.0/../../../../riscv64-unknown-elf/lib/rv32im/ilp32\libc.a(lib_a-strstr.o)
 .riscv.attributes
                0x00000000000010b6       0x21 d:/program_files/programming/rt-threadstudio/repo/extract/toolchain_support_packages/risc-v/risc-v-gcc/10.1.0/bin/../lib/gcc/riscv64-unknown-elf/10.1.0/../../../../riscv64-unknown-elf/lib/rv32im/ilp32\libc.a(lib_a-strtol.o)
 .riscv.attributes
                0x00000000000010d7       0x21 d:/program_files/programming/rt-threadstudio/repo/extract/toolchain_support_packages/risc-v/risc-v-gcc/10.1.0/bin/../lib/gcc/riscv64-unknown-elf/10.1.0/../../../../riscv64-unknown-elf/lib/rv32im/ilp32\libc.a(lib_a-svfprintf.o)
 .riscv.attributes
                0x00000000000010f8       0x21 d:/program_files/programming/rt-threadstudio/repo/extract/toolchain_support_packages/risc-v/risc-v-gcc/10.1.0/bin/../lib/gcc/riscv64-unknown-elf/10.1.0/../../../../riscv64-unknown-elf/lib/rv32im/ilp32\libc.a(lib_a-ctype_.o)
 .riscv.attributes
                0x0000000000001119       0x21 d:/program_files/programming/rt-threadstudio/repo/extract/toolchain_support_packages/risc-v/risc-v-gcc/10.1.0/bin/../lib/gcc/riscv64-unknown-elf/10.1.0/../../../../riscv64-unknown-elf/lib/rv32im/ilp32\libc.a(lib_a-environ.o)
 .riscv.attributes
                0x000000000000113a       0x21 d:/program_files/programming/rt-threadstudio/repo/extract/toolchain_support_packages/risc-v/risc-v-gcc/10.1.0/bin/../lib/gcc/riscv64-unknown-elf/10.1.0/../../../../riscv64-unknown-elf/lib/rv32im/ilp32\libc.a(lib_a-envlock.o)
 .riscv.attributes
                0x000000000000115b       0x21 d:/program_files/programming/rt-threadstudio/repo/extract/toolchain_support_packages/risc-v/risc-v-gcc/10.1.0/bin/../lib/gcc/riscv64-unknown-elf/10.1.0/../../../../riscv64-unknown-elf/lib/rv32im/ilp32\libc.a(lib_a-flags.o)
 .riscv.attributes
                0x000000000000117c       0x21 d:/program_files/programming/rt-threadstudio/repo/extract/toolchain_support_packages/risc-v/risc-v-gcc/10.1.0/bin/../lib/gcc/riscv64-unknown-elf/10.1.0/../../../../riscv64-unknown-elf/lib/rv32im/ilp32\libc.a(lib_a-getenv_r.o)
 .riscv.attributes
                0x000000000000119d       0x21 d:/program_files/programming/rt-threadstudio/repo/extract/toolchain_support_packages/risc-v/risc-v-gcc/10.1.0/bin/../lib/gcc/riscv64-unknown-elf/10.1.0/../../../../riscv64-unknown-elf/lib/rv32im/ilp32\libc.a(lib_a-ldtoa.o)
 .riscv.attributes
                0x00000000000011be       0x21 d:/program_files/programming/rt-threadstudio/repo/extract/toolchain_support_packages/risc-v/risc-v-gcc/10.1.0/bin/../lib/gcc/riscv64-unknown-elf/10.1.0/../../../../riscv64-unknown-elf/lib/rv32im/ilp32\libc.a(lib_a-localeconv.o)
 .riscv.attributes
                0x00000000000011df       0x21 d:/program_files/programming/rt-threadstudio/repo/extract/toolchain_support_packages/risc-v/risc-v-gcc/10.1.0/bin/../lib/gcc/riscv64-unknown-elf/10.1.0/../../../../riscv64-unknown-elf/lib/rv32im/ilp32\libc.a(lib_a-locale.o)
 .riscv.attributes
                0x0000000000001200       0x21 d:/program_files/programming/rt-threadstudio/repo/extract/toolchain_support_packages/risc-v/risc-v-gcc/10.1.0/bin/../lib/gcc/riscv64-unknown-elf/10.1.0/../../../../riscv64-unknown-elf/lib/rv32im/ilp32\libc.a(lib_a-malloc.o)
 .riscv.attributes
                0x0000000000001221       0x21 d:/program_files/programming/rt-threadstudio/repo/extract/toolchain_support_packages/risc-v/risc-v-gcc/10.1.0/bin/../lib/gcc/riscv64-unknown-elf/10.1.0/../../../../riscv64-unknown-elf/lib/rv32im/ilp32\libc.a(lib_a-mbtowc_r.o)
 .riscv.attributes
                0x0000000000001242       0x21 d:/program_files/programming/rt-threadstudio/repo/extract/toolchain_support_packages/risc-v/risc-v-gcc/10.1.0/bin/../lib/gcc/riscv64-unknown-elf/10.1.0/../../../../riscv64-unknown-elf/lib/rv32im/ilp32\libc.a(lib_a-memchr.o)
 .riscv.attributes
                0x0000000000001263       0x21 d:/program_files/programming/rt-threadstudio/repo/extract/toolchain_support_packages/risc-v/risc-v-gcc/10.1.0/bin/../lib/gcc/riscv64-unknown-elf/10.1.0/../../../../riscv64-unknown-elf/lib/rv32im/ilp32\libc.a(lib_a-mprec.o)
 .riscv.attributes
                0x0000000000001284       0x21 d:/program_files/programming/rt-threadstudio/repo/extract/toolchain_support_packages/risc-v/risc-v-gcc/10.1.0/bin/../lib/gcc/riscv64-unknown-elf/10.1.0/../../../../riscv64-unknown-elf/lib/rv32im/ilp32\libc.a(lib_a-s_frexp.o)
 .riscv.attributes
                0x00000000000012a5       0x21 d:/program_files/programming/rt-threadstudio/repo/extract/toolchain_support_packages/risc-v/risc-v-gcc/10.1.0/bin/../lib/gcc/riscv64-unknown-elf/10.1.0/../../../../riscv64-unknown-elf/lib/rv32im/ilp32\libc.a(lib_a-sprintf.o)
 .riscv.attributes
                0x00000000000012c6       0x21 d:/program_files/programming/rt-threadstudio/repo/extract/toolchain_support_packages/risc-v/risc-v-gcc/10.1.0/bin/../lib/gcc/riscv64-unknown-elf/10.1.0/../../../../riscv64-unknown-elf/lib/rv32im/ilp32\libc.a(lib_a-strnlen.o)
 .riscv.attributes
                0x00000000000012e7       0x21 d:/program_files/programming/rt-threadstudio/repo/extract/toolchain_support_packages/risc-v/risc-v-gcc/10.1.0/bin/../lib/gcc/riscv64-unknown-elf/10.1.0/../../../../riscv64-unknown-elf/lib/rv32im/ilp32\libc.a(lib_a-svfiprintf.o)
 .riscv.attributes
                0x0000000000001308       0x21 d:/program_files/programming/rt-threadstudio/repo/extract/toolchain_support_packages/risc-v/risc-v-gcc/10.1.0/bin/../lib/gcc/riscv64-unknown-elf/10.1.0/../../../../riscv64-unknown-elf/lib/rv32im/ilp32\libc.a(lib_a-wctomb_r.o)
 .riscv.attributes
                0x0000000000001329       0x21 d:/program_files/programming/rt-threadstudio/repo/extract/toolchain_support_packages/risc-v/risc-v-gcc/10.1.0/bin/../lib/gcc/riscv64-unknown-elf/10.1.0/../../../../riscv64-unknown-elf/lib/rv32im/ilp32\libc.a(lib_a-assert.o)
 .riscv.attributes
                0x000000000000134a       0x21 d:/program_files/programming/rt-threadstudio/repo/extract/toolchain_support_packages/risc-v/risc-v-gcc/10.1.0/bin/../lib/gcc/riscv64-unknown-elf/10.1.0/../../../../riscv64-unknown-elf/lib/rv32im/ilp32\libc.a(lib_a-fiprintf.o)
 .riscv.attributes
                0x000000000000136b       0x21 d:/program_files/programming/rt-threadstudio/repo/extract/toolchain_support_packages/risc-v/risc-v-gcc/10.1.0/bin/../lib/gcc/riscv64-unknown-elf/10.1.0/../../../../riscv64-unknown-elf/lib/rv32im/ilp32\libc.a(lib_a-memmove-stub.o)
 .riscv.attributes
                0x000000000000138c       0x21 d:/program_files/programming/rt-threadstudio/repo/extract/toolchain_support_packages/risc-v/risc-v-gcc/10.1.0/bin/../lib/gcc/riscv64-unknown-elf/10.1.0/../../../../riscv64-unknown-elf/lib/rv32im/ilp32\libc.a(lib_a-vfiprintf.o)
 .riscv.attributes
                0x00000000000013ad       0x21 d:/program_files/programming/rt-threadstudio/repo/extract/toolchain_support_packages/risc-v/risc-v-gcc/10.1.0/bin/../lib/gcc/riscv64-unknown-elf/10.1.0/../../../../riscv64-unknown-elf/lib/rv32im/ilp32\libc.a(lib_a-wsetup.o)
 .riscv.attributes
                0x00000000000013ce       0x21 d:/program_files/programming/rt-threadstudio/repo/extract/toolchain_support_packages/risc-v/risc-v-gcc/10.1.0/bin/../lib/gcc/riscv64-unknown-elf/10.1.0/../../../../riscv64-unknown-elf/lib/rv32im/ilp32\libc.a(lib_a-abort.o)
 .riscv.attributes
                0x00000000000013ef       0x21 d:/program_files/programming/rt-threadstudio/repo/extract/toolchain_support_packages/risc-v/risc-v-gcc/10.1.0/bin/../lib/gcc/riscv64-unknown-elf/10.1.0/../../../../riscv64-unknown-elf/lib/rv32im/ilp32\libc.a(lib_a-fputwc.o)
 .riscv.attributes
                0x0000000000001410       0x21 d:/program_files/programming/rt-threadstudio/repo/extract/toolchain_support_packages/risc-v/risc-v-gcc/10.1.0/bin/../lib/gcc/riscv64-unknown-elf/10.1.0/../../../../riscv64-unknown-elf/lib/rv32im/ilp32\libc.a(lib_a-fvwrite.o)
 .riscv.attributes
                0x0000000000001431       0x21 d:/program_files/programming/rt-threadstudio/repo/extract/toolchain_support_packages/risc-v/risc-v-gcc/10.1.0/bin/../lib/gcc/riscv64-unknown-elf/10.1.0/../../../../riscv64-unknown-elf/lib/rv32im/ilp32\libc.a(lib_a-signal.o)
 .riscv.attributes
                0x0000000000001452       0x21 d:/program_files/programming/rt-threadstudio/repo/extract/toolchain_support_packages/risc-v/risc-v-gcc/10.1.0/bin/../lib/gcc/riscv64-unknown-elf/10.1.0/../../../../riscv64-unknown-elf/lib/rv32im/ilp32\libc.a(lib_a-wbuf.o)
 .riscv.attributes
                0x0000000000001473       0x21 d:/program_files/programming/rt-threadstudio/repo/extract/toolchain_support_packages/risc-v/risc-v-gcc/10.1.0/bin/../lib/gcc/riscv64-unknown-elf/10.1.0/../../../../riscv64-unknown-elf/lib/rv32im/ilp32\libc.a(lib_a-wcrtomb.o)
 .riscv.attributes
                0x0000000000001494       0x21 d:/program_files/programming/rt-threadstudio/repo/extract/toolchain_support_packages/risc-v/risc-v-gcc/10.1.0/bin/../lib/gcc/riscv64-unknown-elf/10.1.0/rv32im/ilp32\libgcc.a(_udivdi3.o)
 .riscv.attributes
                0x00000000000014b5       0x21 d:/program_files/programming/rt-threadstudio/repo/extract/toolchain_support_packages/risc-v/risc-v-gcc/10.1.0/bin/../lib/gcc/riscv64-unknown-elf/10.1.0/rv32im/ilp32\libgcc.a(_umoddi3.o)
 .riscv.attributes
                0x00000000000014d6       0x21 d:/program_files/programming/rt-threadstudio/repo/extract/toolchain_support_packages/risc-v/risc-v-gcc/10.1.0/bin/../lib/gcc/riscv64-unknown-elf/10.1.0/rv32im/ilp32\libgcc.a(divdf3.o)
 .riscv.attributes
                0x00000000000014f7       0x21 d:/program_files/programming/rt-threadstudio/repo/extract/toolchain_support_packages/risc-v/risc-v-gcc/10.1.0/bin/../lib/gcc/riscv64-unknown-elf/10.1.0/rv32im/ilp32\libgcc.a(muldf3.o)
 .riscv.attributes
                0x0000000000001518       0x21 d:/program_files/programming/rt-threadstudio/repo/extract/toolchain_support_packages/risc-v/risc-v-gcc/10.1.0/bin/../lib/gcc/riscv64-unknown-elf/10.1.0/rv32im/ilp32\libgcc.a(fixdfsi.o)
 .riscv.attributes
                0x0000000000001539       0x21 d:/program_files/programming/rt-threadstudio/repo/extract/toolchain_support_packages/risc-v/risc-v-gcc/10.1.0/bin/../lib/gcc/riscv64-unknown-elf/10.1.0/rv32im/ilp32\libgcc.a(floatunsidf.o)
 .riscv.attributes
                0x000000000000155a       0x21 d:/program_files/programming/rt-threadstudio/repo/extract/toolchain_support_packages/risc-v/risc-v-gcc/10.1.0/bin/../lib/gcc/riscv64-unknown-elf/10.1.0/rv32im/ilp32\libgcc.a(eqtf2.o)
 .riscv.attributes
                0x000000000000157b       0x21 d:/program_files/programming/rt-threadstudio/repo/extract/toolchain_support_packages/risc-v/risc-v-gcc/10.1.0/bin/../lib/gcc/riscv64-unknown-elf/10.1.0/rv32im/ilp32\libgcc.a(getf2.o)
 .riscv.attributes
                0x000000000000159c       0x21 d:/program_files/programming/rt-threadstudio/repo/extract/toolchain_support_packages/risc-v/risc-v-gcc/10.1.0/bin/../lib/gcc/riscv64-unknown-elf/10.1.0/rv32im/ilp32\libgcc.a(letf2.o)
 .riscv.attributes
                0x00000000000015bd       0x21 d:/program_files/programming/rt-threadstudio/repo/extract/toolchain_support_packages/risc-v/risc-v-gcc/10.1.0/bin/../lib/gcc/riscv64-unknown-elf/10.1.0/rv32im/ilp32\libgcc.a(multf3.o)
 .riscv.attributes
                0x00000000000015de       0x21 d:/program_files/programming/rt-threadstudio/repo/extract/toolchain_support_packages/risc-v/risc-v-gcc/10.1.0/bin/../lib/gcc/riscv64-unknown-elf/10.1.0/rv32im/ilp32\libgcc.a(subtf3.o)
 .riscv.attributes
                0x00000000000015ff       0x21 d:/program_files/programming/rt-threadstudio/repo/extract/toolchain_support_packages/risc-v/risc-v-gcc/10.1.0/bin/../lib/gcc/riscv64-unknown-elf/10.1.0/rv32im/ilp32\libgcc.a(fixtfsi.o)
 .riscv.attributes
                0x0000000000001620       0x21 d:/program_files/programming/rt-threadstudio/repo/extract/toolchain_support_packages/risc-v/risc-v-gcc/10.1.0/bin/../lib/gcc/riscv64-unknown-elf/10.1.0/rv32im/ilp32\libgcc.a(floatsitf.o)
 .riscv.attributes
                0x0000000000001641       0x21 d:/program_files/programming/rt-threadstudio/repo/extract/toolchain_support_packages/risc-v/risc-v-gcc/10.1.0/bin/../lib/gcc/riscv64-unknown-elf/10.1.0/rv32im/ilp32\libgcc.a(addsf3.o)
 .riscv.attributes
                0x0000000000001662       0x21 d:/program_files/programming/rt-threadstudio/repo/extract/toolchain_support_packages/risc-v/risc-v-gcc/10.1.0/bin/../lib/gcc/riscv64-unknown-elf/10.1.0/rv32im/ilp32\libgcc.a(divsf3.o)
 .riscv.attributes
                0x0000000000001683       0x21 d:/program_files/programming/rt-threadstudio/repo/extract/toolchain_support_packages/risc-v/risc-v-gcc/10.1.0/bin/../lib/gcc/riscv64-unknown-elf/10.1.0/rv32im/ilp32\libgcc.a(eqsf2.o)
 .riscv.attributes
                0x00000000000016a4       0x21 d:/program_files/programming/rt-threadstudio/repo/extract/toolchain_support_packages/risc-v/risc-v-gcc/10.1.0/bin/../lib/gcc/riscv64-unknown-elf/10.1.0/rv32im/ilp32\libgcc.a(gesf2.o)
 .riscv.attributes
                0x00000000000016c5       0x21 d:/program_files/programming/rt-threadstudio/repo/extract/toolchain_support_packages/risc-v/risc-v-gcc/10.1.0/bin/../lib/gcc/riscv64-unknown-elf/10.1.0/rv32im/ilp32\libgcc.a(lesf2.o)
 .riscv.attributes
                0x00000000000016e6       0x21 d:/program_files/programming/rt-threadstudio/repo/extract/toolchain_support_packages/risc-v/risc-v-gcc/10.1.0/bin/../lib/gcc/riscv64-unknown-elf/10.1.0/rv32im/ilp32\libgcc.a(mulsf3.o)
 .riscv.attributes
                0x0000000000001707       0x21 d:/program_files/programming/rt-threadstudio/repo/extract/toolchain_support_packages/risc-v/risc-v-gcc/10.1.0/bin/../lib/gcc/riscv64-unknown-elf/10.1.0/rv32im/ilp32\libgcc.a(subsf3.o)
 .riscv.attributes
                0x0000000000001728       0x21 d:/program_files/programming/rt-threadstudio/repo/extract/toolchain_support_packages/risc-v/risc-v-gcc/10.1.0/bin/../lib/gcc/riscv64-unknown-elf/10.1.0/rv32im/ilp32\libgcc.a(fixsfsi.o)
 .riscv.attributes
                0x0000000000001749       0x21 d:/program_files/programming/rt-threadstudio/repo/extract/toolchain_support_packages/risc-v/risc-v-gcc/10.1.0/bin/../lib/gcc/riscv64-unknown-elf/10.1.0/rv32im/ilp32\libgcc.a(fixunssfsi.o)
 .riscv.attributes
                0x000000000000176a       0x21 d:/program_files/programming/rt-threadstudio/repo/extract/toolchain_support_packages/risc-v/risc-v-gcc/10.1.0/bin/../lib/gcc/riscv64-unknown-elf/10.1.0/rv32im/ilp32\libgcc.a(floatsisf.o)
 .riscv.attributes
                0x000000000000178b       0x21 d:/program_files/programming/rt-threadstudio/repo/extract/toolchain_support_packages/risc-v/risc-v-gcc/10.1.0/bin/../lib/gcc/riscv64-unknown-elf/10.1.0/rv32im/ilp32\libgcc.a(floatunsisf.o)
 .riscv.attributes
                0x00000000000017ac       0x21 d:/program_files/programming/rt-threadstudio/repo/extract/toolchain_support_packages/risc-v/risc-v-gcc/10.1.0/bin/../lib/gcc/riscv64-unknown-elf/10.1.0/rv32im/ilp32\libgcc.a(extenddftf2.o)
 .riscv.attributes
                0x00000000000017cd       0x21 d:/program_files/programming/rt-threadstudio/repo/extract/toolchain_support_packages/risc-v/risc-v-gcc/10.1.0/bin/../lib/gcc/riscv64-unknown-elf/10.1.0/rv32im/ilp32\libgcc.a(trunctfdf2.o)
 .riscv.attributes
                0x00000000000017ee       0x21 d:/program_files/programming/rt-threadstudio/repo/extract/toolchain_support_packages/risc-v/risc-v-gcc/10.1.0/bin/../lib/gcc/riscv64-unknown-elf/10.1.0/rv32im/ilp32\libgcc.a(_clz.o)
 .riscv.attributes
                0x000000000000180f       0x21 d:/program_files/programming/rt-threadstudio/repo/extract/toolchain_support_packages/risc-v/risc-v-gcc/10.1.0/bin/../lib/gcc/riscv64-unknown-elf/10.1.0/rv32im/ilp32\libgcc.a(_clzsi2.o)

.debug_info     0x0000000000000000     0x788f
 .debug_info    0x0000000000000000      0x7b2 d:/program_files/programming/rt-threadstudio/repo/extract/toolchain_support_packages/risc-v/risc-v-gcc/10.1.0/bin/../lib/gcc/riscv64-unknown-elf/10.1.0/rv32im/ilp32\libgcc.a(_udivdi3.o)
 .debug_info    0x00000000000007b2      0x80c d:/program_files/programming/rt-threadstudio/repo/extract/toolchain_support_packages/risc-v/risc-v-gcc/10.1.0/bin/../lib/gcc/riscv64-unknown-elf/10.1.0/rv32im/ilp32\libgcc.a(_umoddi3.o)
 .debug_info    0x0000000000000fbe      0x72a d:/program_files/programming/rt-threadstudio/repo/extract/toolchain_support_packages/risc-v/risc-v-gcc/10.1.0/bin/../lib/gcc/riscv64-unknown-elf/10.1.0/rv32im/ilp32\libgcc.a(divdf3.o)
 .debug_info    0x00000000000016e8      0x766 d:/program_files/programming/rt-threadstudio/repo/extract/toolchain_support_packages/risc-v/risc-v-gcc/10.1.0/bin/../lib/gcc/riscv64-unknown-elf/10.1.0/rv32im/ilp32\libgcc.a(muldf3.o)
 .debug_info    0x0000000000001e4e      0x1e7 d:/program_files/programming/rt-threadstudio/repo/extract/toolchain_support_packages/risc-v/risc-v-gcc/10.1.0/bin/../lib/gcc/riscv64-unknown-elf/10.1.0/rv32im/ilp32\libgcc.a(fixdfsi.o)
 .debug_info    0x0000000000002035      0x28e d:/program_files/programming/rt-threadstudio/repo/extract/toolchain_support_packages/risc-v/risc-v-gcc/10.1.0/bin/../lib/gcc/riscv64-unknown-elf/10.1.0/rv32im/ilp32\libgcc.a(floatunsidf.o)
 .debug_info    0x00000000000022c3      0x265 d:/program_files/programming/rt-threadstudio/repo/extract/toolchain_support_packages/risc-v/risc-v-gcc/10.1.0/bin/../lib/gcc/riscv64-unknown-elf/10.1.0/rv32im/ilp32\libgcc.a(eqtf2.o)
 .debug_info    0x0000000000002528      0x263 d:/program_files/programming/rt-threadstudio/repo/extract/toolchain_support_packages/risc-v/risc-v-gcc/10.1.0/bin/../lib/gcc/riscv64-unknown-elf/10.1.0/rv32im/ilp32\libgcc.a(getf2.o)
 .debug_info    0x000000000000278b      0x263 d:/program_files/programming/rt-threadstudio/repo/extract/toolchain_support_packages/risc-v/risc-v-gcc/10.1.0/bin/../lib/gcc/riscv64-unknown-elf/10.1.0/rv32im/ilp32\libgcc.a(letf2.o)
 .debug_info    0x00000000000029ee     0x12b8 d:/program_files/programming/rt-threadstudio/repo/extract/toolchain_support_packages/risc-v/risc-v-gcc/10.1.0/bin/../lib/gcc/riscv64-unknown-elf/10.1.0/rv32im/ilp32\libgcc.a(multf3.o)
 .debug_info    0x0000000000003ca6      0xe65 d:/program_files/programming/rt-threadstudio/repo/extract/toolchain_support_packages/risc-v/risc-v-gcc/10.1.0/bin/../lib/gcc/riscv64-unknown-elf/10.1.0/rv32im/ilp32\libgcc.a(subtf3.o)
 .debug_info    0x0000000000004b0b      0x28a d:/program_files/programming/rt-threadstudio/repo/extract/toolchain_support_packages/risc-v/risc-v-gcc/10.1.0/bin/../lib/gcc/riscv64-unknown-elf/10.1.0/rv32im/ilp32\libgcc.a(fixtfsi.o)
 .debug_info    0x0000000000004d95      0x3b9 d:/program_files/programming/rt-threadstudio/repo/extract/toolchain_support_packages/risc-v/risc-v-gcc/10.1.0/bin/../lib/gcc/riscv64-unknown-elf/10.1.0/rv32im/ilp32\libgcc.a(floatsitf.o)
 .debug_info    0x000000000000514e      0x33c d:/program_files/programming/rt-threadstudio/repo/extract/toolchain_support_packages/risc-v/risc-v-gcc/10.1.0/bin/../lib/gcc/riscv64-unknown-elf/10.1.0/rv32im/ilp32\libgcc.a(addsf3.o)
 .debug_info    0x000000000000548a      0x3a3 d:/program_files/programming/rt-threadstudio/repo/extract/toolchain_support_packages/risc-v/risc-v-gcc/10.1.0/bin/../lib/gcc/riscv64-unknown-elf/10.1.0/rv32im/ilp32\libgcc.a(divsf3.o)
 .debug_info    0x000000000000582d      0x227 d:/program_files/programming/rt-threadstudio/repo/extract/toolchain_support_packages/risc-v/risc-v-gcc/10.1.0/bin/../lib/gcc/riscv64-unknown-elf/10.1.0/rv32im/ilp32\libgcc.a(eqsf2.o)
 .debug_info    0x0000000000005a54      0x22a d:/program_files/programming/rt-threadstudio/repo/extract/toolchain_support_packages/risc-v/risc-v-gcc/10.1.0/bin/../lib/gcc/riscv64-unknown-elf/10.1.0/rv32im/ilp32\libgcc.a(gesf2.o)
 .debug_info    0x0000000000005c7e      0x22a d:/program_files/programming/rt-threadstudio/repo/extract/toolchain_support_packages/risc-v/risc-v-gcc/10.1.0/bin/../lib/gcc/riscv64-unknown-elf/10.1.0/rv32im/ilp32\libgcc.a(lesf2.o)
 .debug_info    0x0000000000005ea8      0x394 d:/program_files/programming/rt-threadstudio/repo/extract/toolchain_support_packages/risc-v/risc-v-gcc/10.1.0/bin/../lib/gcc/riscv64-unknown-elf/10.1.0/rv32im/ilp32\libgcc.a(mulsf3.o)
 .debug_info    0x000000000000623c      0x33c d:/program_files/programming/rt-threadstudio/repo/extract/toolchain_support_packages/risc-v/risc-v-gcc/10.1.0/bin/../lib/gcc/riscv64-unknown-elf/10.1.0/rv32im/ilp32\libgcc.a(subsf3.o)
 .debug_info    0x0000000000006578      0x1c7 d:/program_files/programming/rt-threadstudio/repo/extract/toolchain_support_packages/risc-v/risc-v-gcc/10.1.0/bin/../lib/gcc/riscv64-unknown-elf/10.1.0/rv32im/ilp32\libgcc.a(fixsfsi.o)
 .debug_info    0x000000000000673f      0x1b4 d:/program_files/programming/rt-threadstudio/repo/extract/toolchain_support_packages/risc-v/risc-v-gcc/10.1.0/bin/../lib/gcc/riscv64-unknown-elf/10.1.0/rv32im/ilp32\libgcc.a(fixunssfsi.o)
 .debug_info    0x00000000000068f3      0x23c d:/program_files/programming/rt-threadstudio/repo/extract/toolchain_support_packages/risc-v/risc-v-gcc/10.1.0/bin/../lib/gcc/riscv64-unknown-elf/10.1.0/rv32im/ilp32\libgcc.a(floatsisf.o)
 .debug_info    0x0000000000006b2f      0x229 d:/program_files/programming/rt-threadstudio/repo/extract/toolchain_support_packages/risc-v/risc-v-gcc/10.1.0/bin/../lib/gcc/riscv64-unknown-elf/10.1.0/rv32im/ilp32\libgcc.a(floatunsisf.o)
 .debug_info    0x0000000000006d58      0x406 d:/program_files/programming/rt-threadstudio/repo/extract/toolchain_support_packages/risc-v/risc-v-gcc/10.1.0/bin/../lib/gcc/riscv64-unknown-elf/10.1.0/rv32im/ilp32\libgcc.a(extenddftf2.o)
 .debug_info    0x000000000000715e      0x516 d:/program_files/programming/rt-threadstudio/repo/extract/toolchain_support_packages/risc-v/risc-v-gcc/10.1.0/bin/../lib/gcc/riscv64-unknown-elf/10.1.0/rv32im/ilp32\libgcc.a(trunctfdf2.o)
 .debug_info    0x0000000000007674       0xd7 d:/program_files/programming/rt-threadstudio/repo/extract/toolchain_support_packages/risc-v/risc-v-gcc/10.1.0/bin/../lib/gcc/riscv64-unknown-elf/10.1.0/rv32im/ilp32\libgcc.a(_clz.o)
 .debug_info    0x000000000000774b      0x144 d:/program_files/programming/rt-threadstudio/repo/extract/toolchain_support_packages/risc-v/risc-v-gcc/10.1.0/bin/../lib/gcc/riscv64-unknown-elf/10.1.0/rv32im/ilp32\libgcc.a(_clzsi2.o)

.debug_abbrev   0x0000000000000000     0x27ab
 .debug_abbrev  0x0000000000000000      0x19d d:/program_files/programming/rt-threadstudio/repo/extract/toolchain_support_packages/risc-v/risc-v-gcc/10.1.0/bin/../lib/gcc/riscv64-unknown-elf/10.1.0/rv32im/ilp32\libgcc.a(_udivdi3.o)
 .debug_abbrev  0x000000000000019d      0x1b9 d:/program_files/programming/rt-threadstudio/repo/extract/toolchain_support_packages/risc-v/risc-v-gcc/10.1.0/bin/../lib/gcc/riscv64-unknown-elf/10.1.0/rv32im/ilp32\libgcc.a(_umoddi3.o)
 .debug_abbrev  0x0000000000000356      0x173 d:/program_files/programming/rt-threadstudio/repo/extract/toolchain_support_packages/risc-v/risc-v-gcc/10.1.0/bin/../lib/gcc/riscv64-unknown-elf/10.1.0/rv32im/ilp32\libgcc.a(divdf3.o)
 .debug_abbrev  0x00000000000004c9      0x185 d:/program_files/programming/rt-threadstudio/repo/extract/toolchain_support_packages/risc-v/risc-v-gcc/10.1.0/bin/../lib/gcc/riscv64-unknown-elf/10.1.0/rv32im/ilp32\libgcc.a(muldf3.o)
 .debug_abbrev  0x000000000000064e      0x15e d:/program_files/programming/rt-threadstudio/repo/extract/toolchain_support_packages/risc-v/risc-v-gcc/10.1.0/bin/../lib/gcc/riscv64-unknown-elf/10.1.0/rv32im/ilp32\libgcc.a(fixdfsi.o)
 .debug_abbrev  0x00000000000007ac      0x164 d:/program_files/programming/rt-threadstudio/repo/extract/toolchain_support_packages/risc-v/risc-v-gcc/10.1.0/bin/../lib/gcc/riscv64-unknown-elf/10.1.0/rv32im/ilp32\libgcc.a(floatunsidf.o)
 .debug_abbrev  0x0000000000000910      0x159 d:/program_files/programming/rt-threadstudio/repo/extract/toolchain_support_packages/risc-v/risc-v-gcc/10.1.0/bin/../lib/gcc/riscv64-unknown-elf/10.1.0/rv32im/ilp32\libgcc.a(eqtf2.o)
 .debug_abbrev  0x0000000000000a69      0x16c d:/program_files/programming/rt-threadstudio/repo/extract/toolchain_support_packages/risc-v/risc-v-gcc/10.1.0/bin/../lib/gcc/riscv64-unknown-elf/10.1.0/rv32im/ilp32\libgcc.a(getf2.o)
 .debug_abbrev  0x0000000000000bd5      0x16c d:/program_files/programming/rt-threadstudio/repo/extract/toolchain_support_packages/risc-v/risc-v-gcc/10.1.0/bin/../lib/gcc/riscv64-unknown-elf/10.1.0/rv32im/ilp32\libgcc.a(letf2.o)
 .debug_abbrev  0x0000000000000d41      0x1c7 d:/program_files/programming/rt-threadstudio/repo/extract/toolchain_support_packages/risc-v/risc-v-gcc/10.1.0/bin/../lib/gcc/riscv64-unknown-elf/10.1.0/rv32im/ilp32\libgcc.a(multf3.o)
 .debug_abbrev  0x0000000000000f08      0x1cd d:/program_files/programming/rt-threadstudio/repo/extract/toolchain_support_packages/risc-v/risc-v-gcc/10.1.0/bin/../lib/gcc/riscv64-unknown-elf/10.1.0/rv32im/ilp32\libgcc.a(subtf3.o)
 .debug_abbrev  0x00000000000010d5      0x180 d:/program_files/programming/rt-threadstudio/repo/extract/toolchain_support_packages/risc-v/risc-v-gcc/10.1.0/bin/../lib/gcc/riscv64-unknown-elf/10.1.0/rv32im/ilp32\libgcc.a(fixtfsi.o)
 .debug_abbrev  0x0000000000001255      0x1c0 d:/program_files/programming/rt-threadstudio/repo/extract/toolchain_support_packages/risc-v/risc-v-gcc/10.1.0/bin/../lib/gcc/riscv64-unknown-elf/10.1.0/rv32im/ilp32\libgcc.a(floatsitf.o)
 .debug_abbrev  0x0000000000001415      0x161 d:/program_files/programming/rt-threadstudio/repo/extract/toolchain_support_packages/risc-v/risc-v-gcc/10.1.0/bin/../lib/gcc/riscv64-unknown-elf/10.1.0/rv32im/ilp32\libgcc.a(addsf3.o)
 .debug_abbrev  0x0000000000001576      0x14c d:/program_files/programming/rt-threadstudio/repo/extract/toolchain_support_packages/risc-v/risc-v-gcc/10.1.0/bin/../lib/gcc/riscv64-unknown-elf/10.1.0/rv32im/ilp32\libgcc.a(divsf3.o)
 .debug_abbrev  0x00000000000016c2      0x129 d:/program_files/programming/rt-threadstudio/repo/extract/toolchain_support_packages/risc-v/risc-v-gcc/10.1.0/bin/../lib/gcc/riscv64-unknown-elf/10.1.0/rv32im/ilp32\libgcc.a(eqsf2.o)
 .debug_abbrev  0x00000000000017eb      0x14d d:/program_files/programming/rt-threadstudio/repo/extract/toolchain_support_packages/risc-v/risc-v-gcc/10.1.0/bin/../lib/gcc/riscv64-unknown-elf/10.1.0/rv32im/ilp32\libgcc.a(gesf2.o)
 .debug_abbrev  0x0000000000001938      0x14d d:/program_files/programming/rt-threadstudio/repo/extract/toolchain_support_packages/risc-v/risc-v-gcc/10.1.0/bin/../lib/gcc/riscv64-unknown-elf/10.1.0/rv32im/ilp32\libgcc.a(lesf2.o)
 .debug_abbrev  0x0000000000001a85      0x166 d:/program_files/programming/rt-threadstudio/repo/extract/toolchain_support_packages/risc-v/risc-v-gcc/10.1.0/bin/../lib/gcc/riscv64-unknown-elf/10.1.0/rv32im/ilp32\libgcc.a(mulsf3.o)
 .debug_abbrev  0x0000000000001beb      0x161 d:/program_files/programming/rt-threadstudio/repo/extract/toolchain_support_packages/risc-v/risc-v-gcc/10.1.0/bin/../lib/gcc/riscv64-unknown-elf/10.1.0/rv32im/ilp32\libgcc.a(subsf3.o)
 .debug_abbrev  0x0000000000001d4c      0x15e d:/program_files/programming/rt-threadstudio/repo/extract/toolchain_support_packages/risc-v/risc-v-gcc/10.1.0/bin/../lib/gcc/riscv64-unknown-elf/10.1.0/rv32im/ilp32\libgcc.a(fixsfsi.o)
 .debug_abbrev  0x0000000000001eaa      0x14d d:/program_files/programming/rt-threadstudio/repo/extract/toolchain_support_packages/risc-v/risc-v-gcc/10.1.0/bin/../lib/gcc/riscv64-unknown-elf/10.1.0/rv32im/ilp32\libgcc.a(fixunssfsi.o)
 .debug_abbrev  0x0000000000001ff7      0x184 d:/program_files/programming/rt-threadstudio/repo/extract/toolchain_support_packages/risc-v/risc-v-gcc/10.1.0/bin/../lib/gcc/riscv64-unknown-elf/10.1.0/rv32im/ilp32\libgcc.a(floatsisf.o)
 .debug_abbrev  0x000000000000217b      0x195 d:/program_files/programming/rt-threadstudio/repo/extract/toolchain_support_packages/risc-v/risc-v-gcc/10.1.0/bin/../lib/gcc/riscv64-unknown-elf/10.1.0/rv32im/ilp32\libgcc.a(floatunsisf.o)
 .debug_abbrev  0x0000000000002310      0x1bb d:/program_files/programming/rt-threadstudio/repo/extract/toolchain_support_packages/risc-v/risc-v-gcc/10.1.0/bin/../lib/gcc/riscv64-unknown-elf/10.1.0/rv32im/ilp32\libgcc.a(extenddftf2.o)
 .debug_abbrev  0x00000000000024cb      0x1a6 d:/program_files/programming/rt-threadstudio/repo/extract/toolchain_support_packages/risc-v/risc-v-gcc/10.1.0/bin/../lib/gcc/riscv64-unknown-elf/10.1.0/rv32im/ilp32\libgcc.a(trunctfdf2.o)
 .debug_abbrev  0x0000000000002671       0x70 d:/program_files/programming/rt-threadstudio/repo/extract/toolchain_support_packages/risc-v/risc-v-gcc/10.1.0/bin/../lib/gcc/riscv64-unknown-elf/10.1.0/rv32im/ilp32\libgcc.a(_clz.o)
 .debug_abbrev  0x00000000000026e1       0xca d:/program_files/programming/rt-threadstudio/repo/extract/toolchain_support_packages/risc-v/risc-v-gcc/10.1.0/bin/../lib/gcc/riscv64-unknown-elf/10.1.0/rv32im/ilp32\libgcc.a(_clzsi2.o)

.debug_loc      0x0000000000000000     0xff22
 .debug_loc     0x0000000000000000      0xbcd d:/program_files/programming/rt-threadstudio/repo/extract/toolchain_support_packages/risc-v/risc-v-gcc/10.1.0/bin/../lib/gcc/riscv64-unknown-elf/10.1.0/rv32im/ilp32\libgcc.a(_udivdi3.o)
 .debug_loc     0x0000000000000bcd      0x930 d:/program_files/programming/rt-threadstudio/repo/extract/toolchain_support_packages/risc-v/risc-v-gcc/10.1.0/bin/../lib/gcc/riscv64-unknown-elf/10.1.0/rv32im/ilp32\libgcc.a(_umoddi3.o)
 .debug_loc     0x00000000000014fd     0x1494 d:/program_files/programming/rt-threadstudio/repo/extract/toolchain_support_packages/risc-v/risc-v-gcc/10.1.0/bin/../lib/gcc/riscv64-unknown-elf/10.1.0/rv32im/ilp32\libgcc.a(divdf3.o)
 .debug_loc     0x0000000000002991      0xd56 d:/program_files/programming/rt-threadstudio/repo/extract/toolchain_support_packages/risc-v/risc-v-gcc/10.1.0/bin/../lib/gcc/riscv64-unknown-elf/10.1.0/rv32im/ilp32\libgcc.a(muldf3.o)
 .debug_loc     0x00000000000036e7      0x181 d:/program_files/programming/rt-threadstudio/repo/extract/toolchain_support_packages/risc-v/risc-v-gcc/10.1.0/bin/../lib/gcc/riscv64-unknown-elf/10.1.0/rv32im/ilp32\libgcc.a(fixdfsi.o)
 .debug_loc     0x0000000000003868      0x14f d:/program_files/programming/rt-threadstudio/repo/extract/toolchain_support_packages/risc-v/risc-v-gcc/10.1.0/bin/../lib/gcc/riscv64-unknown-elf/10.1.0/rv32im/ilp32\libgcc.a(floatunsidf.o)
 .debug_loc     0x00000000000039b7       0x87 d:/program_files/programming/rt-threadstudio/repo/extract/toolchain_support_packages/risc-v/risc-v-gcc/10.1.0/bin/../lib/gcc/riscv64-unknown-elf/10.1.0/rv32im/ilp32\libgcc.a(eqtf2.o)
 .debug_loc     0x0000000000003a3e      0x134 d:/program_files/programming/rt-threadstudio/repo/extract/toolchain_support_packages/risc-v/risc-v-gcc/10.1.0/bin/../lib/gcc/riscv64-unknown-elf/10.1.0/rv32im/ilp32\libgcc.a(getf2.o)
 .debug_loc     0x0000000000003b72      0x134 d:/program_files/programming/rt-threadstudio/repo/extract/toolchain_support_packages/risc-v/risc-v-gcc/10.1.0/bin/../lib/gcc/riscv64-unknown-elf/10.1.0/rv32im/ilp32\libgcc.a(letf2.o)
 .debug_loc     0x0000000000003ca6     0x68ea d:/program_files/programming/rt-threadstudio/repo/extract/toolchain_support_packages/risc-v/risc-v-gcc/10.1.0/bin/../lib/gcc/riscv64-unknown-elf/10.1.0/rv32im/ilp32\libgcc.a(multf3.o)
 .debug_loc     0x000000000000a590     0x1fc1 d:/program_files/programming/rt-threadstudio/repo/extract/toolchain_support_packages/risc-v/risc-v-gcc/10.1.0/bin/../lib/gcc/riscv64-unknown-elf/10.1.0/rv32im/ilp32\libgcc.a(subtf3.o)
 .debug_loc     0x000000000000c551      0x322 d:/program_files/programming/rt-threadstudio/repo/extract/toolchain_support_packages/risc-v/risc-v-gcc/10.1.0/bin/../lib/gcc/riscv64-unknown-elf/10.1.0/rv32im/ilp32\libgcc.a(fixtfsi.o)
 .debug_loc     0x000000000000c873      0x219 d:/program_files/programming/rt-threadstudio/repo/extract/toolchain_support_packages/risc-v/risc-v-gcc/10.1.0/bin/../lib/gcc/riscv64-unknown-elf/10.1.0/rv32im/ilp32\libgcc.a(floatsitf.o)
 .debug_loc     0x000000000000ca8c      0x909 d:/program_files/programming/rt-threadstudio/repo/extract/toolchain_support_packages/risc-v/risc-v-gcc/10.1.0/bin/../lib/gcc/riscv64-unknown-elf/10.1.0/rv32im/ilp32\libgcc.a(addsf3.o)
 .debug_loc     0x000000000000d395      0x74d d:/program_files/programming/rt-threadstudio/repo/extract/toolchain_support_packages/risc-v/risc-v-gcc/10.1.0/bin/../lib/gcc/riscv64-unknown-elf/10.1.0/rv32im/ilp32\libgcc.a(divsf3.o)
 .debug_loc     0x000000000000dae2       0x46 d:/program_files/programming/rt-threadstudio/repo/extract/toolchain_support_packages/risc-v/risc-v-gcc/10.1.0/bin/../lib/gcc/riscv64-unknown-elf/10.1.0/rv32im/ilp32\libgcc.a(eqsf2.o)
 .debug_loc     0x000000000000db28      0x145 d:/program_files/programming/rt-threadstudio/repo/extract/toolchain_support_packages/risc-v/risc-v-gcc/10.1.0/bin/../lib/gcc/riscv64-unknown-elf/10.1.0/rv32im/ilp32\libgcc.a(gesf2.o)
 .debug_loc     0x000000000000dc6d      0x145 d:/program_files/programming/rt-threadstudio/repo/extract/toolchain_support_packages/risc-v/risc-v-gcc/10.1.0/bin/../lib/gcc/riscv64-unknown-elf/10.1.0/rv32im/ilp32\libgcc.a(lesf2.o)
 .debug_loc     0x000000000000ddb2      0x5e4 d:/program_files/programming/rt-threadstudio/repo/extract/toolchain_support_packages/risc-v/risc-v-gcc/10.1.0/bin/../lib/gcc/riscv64-unknown-elf/10.1.0/rv32im/ilp32\libgcc.a(mulsf3.o)
 .debug_loc     0x000000000000e396      0xc52 d:/program_files/programming/rt-threadstudio/repo/extract/toolchain_support_packages/risc-v/risc-v-gcc/10.1.0/bin/../lib/gcc/riscv64-unknown-elf/10.1.0/rv32im/ilp32\libgcc.a(subsf3.o)
 .debug_loc     0x000000000000efe8      0x12f d:/program_files/programming/rt-threadstudio/repo/extract/toolchain_support_packages/risc-v/risc-v-gcc/10.1.0/bin/../lib/gcc/riscv64-unknown-elf/10.1.0/rv32im/ilp32\libgcc.a(fixsfsi.o)
 .debug_loc     0x000000000000f117      0x113 d:/program_files/programming/rt-threadstudio/repo/extract/toolchain_support_packages/risc-v/risc-v-gcc/10.1.0/bin/../lib/gcc/riscv64-unknown-elf/10.1.0/rv32im/ilp32\libgcc.a(fixunssfsi.o)
 .debug_loc     0x000000000000f22a      0x191 d:/program_files/programming/rt-threadstudio/repo/extract/toolchain_support_packages/risc-v/risc-v-gcc/10.1.0/bin/../lib/gcc/riscv64-unknown-elf/10.1.0/rv32im/ilp32\libgcc.a(floatsisf.o)
 .debug_loc     0x000000000000f3bb      0x165 d:/program_files/programming/rt-threadstudio/repo/extract/toolchain_support_packages/risc-v/risc-v-gcc/10.1.0/bin/../lib/gcc/riscv64-unknown-elf/10.1.0/rv32im/ilp32\libgcc.a(floatunsisf.o)
 .debug_loc     0x000000000000f520      0x42a d:/program_files/programming/rt-threadstudio/repo/extract/toolchain_support_packages/risc-v/risc-v-gcc/10.1.0/bin/../lib/gcc/riscv64-unknown-elf/10.1.0/rv32im/ilp32\libgcc.a(extenddftf2.o)
 .debug_loc     0x000000000000f94a      0x56d d:/program_files/programming/rt-threadstudio/repo/extract/toolchain_support_packages/risc-v/risc-v-gcc/10.1.0/bin/../lib/gcc/riscv64-unknown-elf/10.1.0/rv32im/ilp32\libgcc.a(trunctfdf2.o)
 .debug_loc     0x000000000000feb7       0x6b d:/program_files/programming/rt-threadstudio/repo/extract/toolchain_support_packages/risc-v/risc-v-gcc/10.1.0/bin/../lib/gcc/riscv64-unknown-elf/10.1.0/rv32im/ilp32\libgcc.a(_clzsi2.o)

.debug_aranges  0x0000000000000000      0x378
 .debug_aranges
                0x0000000000000000       0x20 d:/program_files/programming/rt-threadstudio/repo/extract/toolchain_support_packages/risc-v/risc-v-gcc/10.1.0/bin/../lib/gcc/riscv64-unknown-elf/10.1.0/rv32im/ilp32\libgcc.a(_udivdi3.o)
 .debug_aranges
                0x0000000000000020       0x20 d:/program_files/programming/rt-threadstudio/repo/extract/toolchain_support_packages/risc-v/risc-v-gcc/10.1.0/bin/../lib/gcc/riscv64-unknown-elf/10.1.0/rv32im/ilp32\libgcc.a(_umoddi3.o)
 .debug_aranges
                0x0000000000000040       0x20 d:/program_files/programming/rt-threadstudio/repo/extract/toolchain_support_packages/risc-v/risc-v-gcc/10.1.0/bin/../lib/gcc/riscv64-unknown-elf/10.1.0/rv32im/ilp32\libgcc.a(divdf3.o)
 .debug_aranges
                0x0000000000000060       0x20 d:/program_files/programming/rt-threadstudio/repo/extract/toolchain_support_packages/risc-v/risc-v-gcc/10.1.0/bin/../lib/gcc/riscv64-unknown-elf/10.1.0/rv32im/ilp32\libgcc.a(muldf3.o)
 .debug_aranges
                0x0000000000000080       0x20 d:/program_files/programming/rt-threadstudio/repo/extract/toolchain_support_packages/risc-v/risc-v-gcc/10.1.0/bin/../lib/gcc/riscv64-unknown-elf/10.1.0/rv32im/ilp32\libgcc.a(fixdfsi.o)
 .debug_aranges
                0x00000000000000a0       0x20 d:/program_files/programming/rt-threadstudio/repo/extract/toolchain_support_packages/risc-v/risc-v-gcc/10.1.0/bin/../lib/gcc/riscv64-unknown-elf/10.1.0/rv32im/ilp32\libgcc.a(floatunsidf.o)
 .debug_aranges
                0x00000000000000c0       0x20 d:/program_files/programming/rt-threadstudio/repo/extract/toolchain_support_packages/risc-v/risc-v-gcc/10.1.0/bin/../lib/gcc/riscv64-unknown-elf/10.1.0/rv32im/ilp32\libgcc.a(eqtf2.o)
 .debug_aranges
                0x00000000000000e0       0x20 d:/program_files/programming/rt-threadstudio/repo/extract/toolchain_support_packages/risc-v/risc-v-gcc/10.1.0/bin/../lib/gcc/riscv64-unknown-elf/10.1.0/rv32im/ilp32\libgcc.a(getf2.o)
 .debug_aranges
                0x0000000000000100       0x20 d:/program_files/programming/rt-threadstudio/repo/extract/toolchain_support_packages/risc-v/risc-v-gcc/10.1.0/bin/../lib/gcc/riscv64-unknown-elf/10.1.0/rv32im/ilp32\libgcc.a(letf2.o)
 .debug_aranges
                0x0000000000000120       0x20 d:/program_files/programming/rt-threadstudio/repo/extract/toolchain_support_packages/risc-v/risc-v-gcc/10.1.0/bin/../lib/gcc/riscv64-unknown-elf/10.1.0/rv32im/ilp32\libgcc.a(multf3.o)
 .debug_aranges
                0x0000000000000140       0x20 d:/program_files/programming/rt-threadstudio/repo/extract/toolchain_support_packages/risc-v/risc-v-gcc/10.1.0/bin/../lib/gcc/riscv64-unknown-elf/10.1.0/rv32im/ilp32\libgcc.a(subtf3.o)
 .debug_aranges
                0x0000000000000160       0x20 d:/program_files/programming/rt-threadstudio/repo/extract/toolchain_support_packages/risc-v/risc-v-gcc/10.1.0/bin/../lib/gcc/riscv64-unknown-elf/10.1.0/rv32im/ilp32\libgcc.a(fixtfsi.o)
 .debug_aranges
                0x0000000000000180       0x20 d:/program_files/programming/rt-threadstudio/repo/extract/toolchain_support_packages/risc-v/risc-v-gcc/10.1.0/bin/../lib/gcc/riscv64-unknown-elf/10.1.0/rv32im/ilp32\libgcc.a(floatsitf.o)
 .debug_aranges
                0x00000000000001a0       0x20 d:/program_files/programming/rt-threadstudio/repo/extract/toolchain_support_packages/risc-v/risc-v-gcc/10.1.0/bin/../lib/gcc/riscv64-unknown-elf/10.1.0/rv32im/ilp32\libgcc.a(addsf3.o)
 .debug_aranges
                0x00000000000001c0       0x20 d:/program_files/programming/rt-threadstudio/repo/extract/toolchain_support_packages/risc-v/risc-v-gcc/10.1.0/bin/../lib/gcc/riscv64-unknown-elf/10.1.0/rv32im/ilp32\libgcc.a(divsf3.o)
 .debug_aranges
                0x00000000000001e0       0x20 d:/program_files/programming/rt-threadstudio/repo/extract/toolchain_support_packages/risc-v/risc-v-gcc/10.1.0/bin/../lib/gcc/riscv64-unknown-elf/10.1.0/rv32im/ilp32\libgcc.a(eqsf2.o)
 .debug_aranges
                0x0000000000000200       0x20 d:/program_files/programming/rt-threadstudio/repo/extract/toolchain_support_packages/risc-v/risc-v-gcc/10.1.0/bin/../lib/gcc/riscv64-unknown-elf/10.1.0/rv32im/ilp32\libgcc.a(gesf2.o)
 .debug_aranges
                0x0000000000000220       0x20 d:/program_files/programming/rt-threadstudio/repo/extract/toolchain_support_packages/risc-v/risc-v-gcc/10.1.0/bin/../lib/gcc/riscv64-unknown-elf/10.1.0/rv32im/ilp32\libgcc.a(lesf2.o)
 .debug_aranges
                0x0000000000000240       0x20 d:/program_files/programming/rt-threadstudio/repo/extract/toolchain_support_packages/risc-v/risc-v-gcc/10.1.0/bin/../lib/gcc/riscv64-unknown-elf/10.1.0/rv32im/ilp32\libgcc.a(mulsf3.o)
 .debug_aranges
                0x0000000000000260       0x20 d:/program_files/programming/rt-threadstudio/repo/extract/toolchain_support_packages/risc-v/risc-v-gcc/10.1.0/bin/../lib/gcc/riscv64-unknown-elf/10.1.0/rv32im/ilp32\libgcc.a(subsf3.o)
 .debug_aranges
                0x0000000000000280       0x20 d:/program_files/programming/rt-threadstudio/repo/extract/toolchain_support_packages/risc-v/risc-v-gcc/10.1.0/bin/../lib/gcc/riscv64-unknown-elf/10.1.0/rv32im/ilp32\libgcc.a(fixsfsi.o)
 .debug_aranges
                0x00000000000002a0       0x20 d:/program_files/programming/rt-threadstudio/repo/extract/toolchain_support_packages/risc-v/risc-v-gcc/10.1.0/bin/../lib/gcc/riscv64-unknown-elf/10.1.0/rv32im/ilp32\libgcc.a(fixunssfsi.o)
 .debug_aranges
                0x00000000000002c0       0x20 d:/program_files/programming/rt-threadstudio/repo/extract/toolchain_support_packages/risc-v/risc-v-gcc/10.1.0/bin/../lib/gcc/riscv64-unknown-elf/10.1.0/rv32im/ilp32\libgcc.a(floatsisf.o)
 .debug_aranges
                0x00000000000002e0       0x20 d:/program_files/programming/rt-threadstudio/repo/extract/toolchain_support_packages/risc-v/risc-v-gcc/10.1.0/bin/../lib/gcc/riscv64-unknown-elf/10.1.0/rv32im/ilp32\libgcc.a(floatunsisf.o)
 .debug_aranges
                0x0000000000000300       0x20 d:/program_files/programming/rt-threadstudio/repo/extract/toolchain_support_packages/risc-v/risc-v-gcc/10.1.0/bin/../lib/gcc/riscv64-unknown-elf/10.1.0/rv32im/ilp32\libgcc.a(extenddftf2.o)
 .debug_aranges
                0x0000000000000320       0x20 d:/program_files/programming/rt-threadstudio/repo/extract/toolchain_support_packages/risc-v/risc-v-gcc/10.1.0/bin/../lib/gcc/riscv64-unknown-elf/10.1.0/rv32im/ilp32\libgcc.a(trunctfdf2.o)
 .debug_aranges
                0x0000000000000340       0x18 d:/program_files/programming/rt-threadstudio/repo/extract/toolchain_support_packages/risc-v/risc-v-gcc/10.1.0/bin/../lib/gcc/riscv64-unknown-elf/10.1.0/rv32im/ilp32\libgcc.a(_clz.o)
 .debug_aranges
                0x0000000000000358       0x20 d:/program_files/programming/rt-threadstudio/repo/extract/toolchain_support_packages/risc-v/risc-v-gcc/10.1.0/bin/../lib/gcc/riscv64-unknown-elf/10.1.0/rv32im/ilp32\libgcc.a(_clzsi2.o)

.debug_ranges   0x0000000000000000     0x1ca0
 .debug_ranges  0x0000000000000000       0xf8 d:/program_files/programming/rt-threadstudio/repo/extract/toolchain_support_packages/risc-v/risc-v-gcc/10.1.0/bin/../lib/gcc/riscv64-unknown-elf/10.1.0/rv32im/ilp32\libgcc.a(_udivdi3.o)
 .debug_ranges  0x00000000000000f8       0xd8 d:/program_files/programming/rt-threadstudio/repo/extract/toolchain_support_packages/risc-v/risc-v-gcc/10.1.0/bin/../lib/gcc/riscv64-unknown-elf/10.1.0/rv32im/ilp32\libgcc.a(_umoddi3.o)
 .debug_ranges  0x00000000000001d0      0x198 d:/program_files/programming/rt-threadstudio/repo/extract/toolchain_support_packages/risc-v/risc-v-gcc/10.1.0/bin/../lib/gcc/riscv64-unknown-elf/10.1.0/rv32im/ilp32\libgcc.a(divdf3.o)
 .debug_ranges  0x0000000000000368      0x1e0 d:/program_files/programming/rt-threadstudio/repo/extract/toolchain_support_packages/risc-v/risc-v-gcc/10.1.0/bin/../lib/gcc/riscv64-unknown-elf/10.1.0/rv32im/ilp32\libgcc.a(muldf3.o)
 .debug_ranges  0x0000000000000548       0x18 d:/program_files/programming/rt-threadstudio/repo/extract/toolchain_support_packages/risc-v/risc-v-gcc/10.1.0/bin/../lib/gcc/riscv64-unknown-elf/10.1.0/rv32im/ilp32\libgcc.a(fixdfsi.o)
 .debug_ranges  0x0000000000000560       0x70 d:/program_files/programming/rt-threadstudio/repo/extract/toolchain_support_packages/risc-v/risc-v-gcc/10.1.0/bin/../lib/gcc/riscv64-unknown-elf/10.1.0/rv32im/ilp32\libgcc.a(floatunsidf.o)
 .debug_ranges  0x00000000000005d0       0x60 d:/program_files/programming/rt-threadstudio/repo/extract/toolchain_support_packages/risc-v/risc-v-gcc/10.1.0/bin/../lib/gcc/riscv64-unknown-elf/10.1.0/rv32im/ilp32\libgcc.a(eqtf2.o)
 .debug_ranges  0x0000000000000630       0x78 d:/program_files/programming/rt-threadstudio/repo/extract/toolchain_support_packages/risc-v/risc-v-gcc/10.1.0/bin/../lib/gcc/riscv64-unknown-elf/10.1.0/rv32im/ilp32\libgcc.a(getf2.o)
 .debug_ranges  0x00000000000006a8       0x78 d:/program_files/programming/rt-threadstudio/repo/extract/toolchain_support_packages/risc-v/risc-v-gcc/10.1.0/bin/../lib/gcc/riscv64-unknown-elf/10.1.0/rv32im/ilp32\libgcc.a(letf2.o)
 .debug_ranges  0x0000000000000720      0x7e0 d:/program_files/programming/rt-threadstudio/repo/extract/toolchain_support_packages/risc-v/risc-v-gcc/10.1.0/bin/../lib/gcc/riscv64-unknown-elf/10.1.0/rv32im/ilp32\libgcc.a(multf3.o)
 .debug_ranges  0x0000000000000f00      0x4a8 d:/program_files/programming/rt-threadstudio/repo/extract/toolchain_support_packages/risc-v/risc-v-gcc/10.1.0/bin/../lib/gcc/riscv64-unknown-elf/10.1.0/rv32im/ilp32\libgcc.a(subtf3.o)
 .debug_ranges  0x00000000000013a8       0x70 d:/program_files/programming/rt-threadstudio/repo/extract/toolchain_support_packages/risc-v/risc-v-gcc/10.1.0/bin/../lib/gcc/riscv64-unknown-elf/10.1.0/rv32im/ilp32\libgcc.a(fixtfsi.o)
 .debug_ranges  0x0000000000001418       0xa0 d:/program_files/programming/rt-threadstudio/repo/extract/toolchain_support_packages/risc-v/risc-v-gcc/10.1.0/bin/../lib/gcc/riscv64-unknown-elf/10.1.0/rv32im/ilp32\libgcc.a(floatsitf.o)
 .debug_ranges  0x00000000000014b8      0x168 d:/program_files/programming/rt-threadstudio/repo/extract/toolchain_support_packages/risc-v/risc-v-gcc/10.1.0/bin/../lib/gcc/riscv64-unknown-elf/10.1.0/rv32im/ilp32\libgcc.a(addsf3.o)
 .debug_ranges  0x0000000000001620       0xc0 d:/program_files/programming/rt-threadstudio/repo/extract/toolchain_support_packages/risc-v/risc-v-gcc/10.1.0/bin/../lib/gcc/riscv64-unknown-elf/10.1.0/rv32im/ilp32\libgcc.a(divsf3.o)
 .debug_ranges  0x00000000000016e0       0x38 d:/program_files/programming/rt-threadstudio/repo/extract/toolchain_support_packages/risc-v/risc-v-gcc/10.1.0/bin/../lib/gcc/riscv64-unknown-elf/10.1.0/rv32im/ilp32\libgcc.a(eqsf2.o)
 .debug_ranges  0x0000000000001718       0x70 d:/program_files/programming/rt-threadstudio/repo/extract/toolchain_support_packages/risc-v/risc-v-gcc/10.1.0/bin/../lib/gcc/riscv64-unknown-elf/10.1.0/rv32im/ilp32\libgcc.a(gesf2.o)
 .debug_ranges  0x0000000000001788       0x70 d:/program_files/programming/rt-threadstudio/repo/extract/toolchain_support_packages/risc-v/risc-v-gcc/10.1.0/bin/../lib/gcc/riscv64-unknown-elf/10.1.0/rv32im/ilp32\libgcc.a(lesf2.o)
 .debug_ranges  0x00000000000017f8       0xa8 d:/program_files/programming/rt-threadstudio/repo/extract/toolchain_support_packages/risc-v/risc-v-gcc/10.1.0/bin/../lib/gcc/riscv64-unknown-elf/10.1.0/rv32im/ilp32\libgcc.a(mulsf3.o)
 .debug_ranges  0x00000000000018a0      0x170 d:/program_files/programming/rt-threadstudio/repo/extract/toolchain_support_packages/risc-v/risc-v-gcc/10.1.0/bin/../lib/gcc/riscv64-unknown-elf/10.1.0/rv32im/ilp32\libgcc.a(subsf3.o)
 .debug_ranges  0x0000000000001a10       0x18 d:/program_files/programming/rt-threadstudio/repo/extract/toolchain_support_packages/risc-v/risc-v-gcc/10.1.0/bin/../lib/gcc/riscv64-unknown-elf/10.1.0/rv32im/ilp32\libgcc.a(fixsfsi.o)
 .debug_ranges  0x0000000000001a28       0x18 d:/program_files/programming/rt-threadstudio/repo/extract/toolchain_support_packages/risc-v/risc-v-gcc/10.1.0/bin/../lib/gcc/riscv64-unknown-elf/10.1.0/rv32im/ilp32\libgcc.a(fixunssfsi.o)
 .debug_ranges  0x0000000000001a40       0x50 d:/program_files/programming/rt-threadstudio/repo/extract/toolchain_support_packages/risc-v/risc-v-gcc/10.1.0/bin/../lib/gcc/riscv64-unknown-elf/10.1.0/rv32im/ilp32\libgcc.a(floatsisf.o)
 .debug_ranges  0x0000000000001a90       0x50 d:/program_files/programming/rt-threadstudio/repo/extract/toolchain_support_packages/risc-v/risc-v-gcc/10.1.0/bin/../lib/gcc/riscv64-unknown-elf/10.1.0/rv32im/ilp32\libgcc.a(floatunsisf.o)
 .debug_ranges  0x0000000000001ae0       0x80 d:/program_files/programming/rt-threadstudio/repo/extract/toolchain_support_packages/risc-v/risc-v-gcc/10.1.0/bin/../lib/gcc/riscv64-unknown-elf/10.1.0/rv32im/ilp32\libgcc.a(extenddftf2.o)
 .debug_ranges  0x0000000000001b60      0x120 d:/program_files/programming/rt-threadstudio/repo/extract/toolchain_support_packages/risc-v/risc-v-gcc/10.1.0/bin/../lib/gcc/riscv64-unknown-elf/10.1.0/rv32im/ilp32\libgcc.a(trunctfdf2.o)
 .debug_ranges  0x0000000000001c80       0x20 d:/program_files/programming/rt-threadstudio/repo/extract/toolchain_support_packages/risc-v/risc-v-gcc/10.1.0/bin/../lib/gcc/riscv64-unknown-elf/10.1.0/rv32im/ilp32\libgcc.a(_clzsi2.o)

.debug_line     0x0000000000000000     0xd1d3
 .debug_line    0x0000000000000000      0x764 d:/program_files/programming/rt-threadstudio/repo/extract/toolchain_support_packages/risc-v/risc-v-gcc/10.1.0/bin/../lib/gcc/riscv64-unknown-elf/10.1.0/rv32im/ilp32\libgcc.a(_udivdi3.o)
 .debug_line    0x0000000000000764      0x808 d:/program_files/programming/rt-threadstudio/repo/extract/toolchain_support_packages/risc-v/risc-v-gcc/10.1.0/bin/../lib/gcc/riscv64-unknown-elf/10.1.0/rv32im/ilp32\libgcc.a(_umoddi3.o)
 .debug_line    0x0000000000000f6c      0xf7f d:/program_files/programming/rt-threadstudio/repo/extract/toolchain_support_packages/risc-v/risc-v-gcc/10.1.0/bin/../lib/gcc/riscv64-unknown-elf/10.1.0/rv32im/ilp32\libgcc.a(divdf3.o)
 .debug_line    0x0000000000001eeb      0xdba d:/program_files/programming/rt-threadstudio/repo/extract/toolchain_support_packages/risc-v/risc-v-gcc/10.1.0/bin/../lib/gcc/riscv64-unknown-elf/10.1.0/rv32im/ilp32\libgcc.a(muldf3.o)
 .debug_line    0x0000000000002ca5      0x229 d:/program_files/programming/rt-threadstudio/repo/extract/toolchain_support_packages/risc-v/risc-v-gcc/10.1.0/bin/../lib/gcc/riscv64-unknown-elf/10.1.0/rv32im/ilp32\libgcc.a(fixdfsi.o)
 .debug_line    0x0000000000002ece      0x283 d:/program_files/programming/rt-threadstudio/repo/extract/toolchain_support_packages/risc-v/risc-v-gcc/10.1.0/bin/../lib/gcc/riscv64-unknown-elf/10.1.0/rv32im/ilp32\libgcc.a(floatunsidf.o)
 .debug_line    0x0000000000003151      0x2b9 d:/program_files/programming/rt-threadstudio/repo/extract/toolchain_support_packages/risc-v/risc-v-gcc/10.1.0/bin/../lib/gcc/riscv64-unknown-elf/10.1.0/rv32im/ilp32\libgcc.a(eqtf2.o)
 .debug_line    0x000000000000340a      0x394 d:/program_files/programming/rt-threadstudio/repo/extract/toolchain_support_packages/risc-v/risc-v-gcc/10.1.0/bin/../lib/gcc/riscv64-unknown-elf/10.1.0/rv32im/ilp32\libgcc.a(getf2.o)
 .debug_line    0x000000000000379e      0x394 d:/program_files/programming/rt-threadstudio/repo/extract/toolchain_support_packages/risc-v/risc-v-gcc/10.1.0/bin/../lib/gcc/riscv64-unknown-elf/10.1.0/rv32im/ilp32\libgcc.a(letf2.o)
 .debug_line    0x0000000000003b32     0x22df d:/program_files/programming/rt-threadstudio/repo/extract/toolchain_support_packages/risc-v/risc-v-gcc/10.1.0/bin/../lib/gcc/riscv64-unknown-elf/10.1.0/rv32im/ilp32\libgcc.a(multf3.o)
 .debug_line    0x0000000000005e11     0x279f d:/program_files/programming/rt-threadstudio/repo/extract/toolchain_support_packages/risc-v/risc-v-gcc/10.1.0/bin/../lib/gcc/riscv64-unknown-elf/10.1.0/rv32im/ilp32\libgcc.a(subtf3.o)
 .debug_line    0x00000000000085b0      0x324 d:/program_files/programming/rt-threadstudio/repo/extract/toolchain_support_packages/risc-v/risc-v-gcc/10.1.0/bin/../lib/gcc/riscv64-unknown-elf/10.1.0/rv32im/ilp32\libgcc.a(fixtfsi.o)
 .debug_line    0x00000000000088d4      0x36f d:/program_files/programming/rt-threadstudio/repo/extract/toolchain_support_packages/risc-v/risc-v-gcc/10.1.0/bin/../lib/gcc/riscv64-unknown-elf/10.1.0/rv32im/ilp32\libgcc.a(floatsitf.o)
 .debug_line    0x0000000000008c43      0xa49 d:/program_files/programming/rt-threadstudio/repo/extract/toolchain_support_packages/risc-v/risc-v-gcc/10.1.0/bin/../lib/gcc/riscv64-unknown-elf/10.1.0/rv32im/ilp32\libgcc.a(addsf3.o)
 .debug_line    0x000000000000968c      0x859 d:/program_files/programming/rt-threadstudio/repo/extract/toolchain_support_packages/risc-v/risc-v-gcc/10.1.0/bin/../lib/gcc/riscv64-unknown-elf/10.1.0/rv32im/ilp32\libgcc.a(divsf3.o)
 .debug_line    0x0000000000009ee5      0x22b d:/program_files/programming/rt-threadstudio/repo/extract/toolchain_support_packages/risc-v/risc-v-gcc/10.1.0/bin/../lib/gcc/riscv64-unknown-elf/10.1.0/rv32im/ilp32\libgcc.a(eqsf2.o)
 .debug_line    0x000000000000a110      0x302 d:/program_files/programming/rt-threadstudio/repo/extract/toolchain_support_packages/risc-v/risc-v-gcc/10.1.0/bin/../lib/gcc/riscv64-unknown-elf/10.1.0/rv32im/ilp32\libgcc.a(gesf2.o)
 .debug_line    0x000000000000a412      0x302 d:/program_files/programming/rt-threadstudio/repo/extract/toolchain_support_packages/risc-v/risc-v-gcc/10.1.0/bin/../lib/gcc/riscv64-unknown-elf/10.1.0/rv32im/ilp32\libgcc.a(lesf2.o)
 .debug_line    0x000000000000a714      0x76a d:/program_files/programming/rt-threadstudio/repo/extract/toolchain_support_packages/risc-v/risc-v-gcc/10.1.0/bin/../lib/gcc/riscv64-unknown-elf/10.1.0/rv32im/ilp32\libgcc.a(mulsf3.o)
 .debug_line    0x000000000000ae7e      0xaa9 d:/program_files/programming/rt-threadstudio/repo/extract/toolchain_support_packages/risc-v/risc-v-gcc/10.1.0/bin/../lib/gcc/riscv64-unknown-elf/10.1.0/rv32im/ilp32\libgcc.a(subsf3.o)
 .debug_line    0x000000000000b927      0x219 d:/program_files/programming/rt-threadstudio/repo/extract/toolchain_support_packages/risc-v/risc-v-gcc/10.1.0/bin/../lib/gcc/riscv64-unknown-elf/10.1.0/rv32im/ilp32\libgcc.a(fixsfsi.o)
 .debug_line    0x000000000000bb40      0x1aa d:/program_files/programming/rt-threadstudio/repo/extract/toolchain_support_packages/risc-v/risc-v-gcc/10.1.0/bin/../lib/gcc/riscv64-unknown-elf/10.1.0/rv32im/ilp32\libgcc.a(fixunssfsi.o)
 .debug_line    0x000000000000bcea      0x351 d:/program_files/programming/rt-threadstudio/repo/extract/toolchain_support_packages/risc-v/risc-v-gcc/10.1.0/bin/../lib/gcc/riscv64-unknown-elf/10.1.0/rv32im/ilp32\libgcc.a(floatsisf.o)
 .debug_line    0x000000000000c03b      0x352 d:/program_files/programming/rt-threadstudio/repo/extract/toolchain_support_packages/risc-v/risc-v-gcc/10.1.0/bin/../lib/gcc/riscv64-unknown-elf/10.1.0/rv32im/ilp32\libgcc.a(floatunsisf.o)
 .debug_line    0x000000000000c38d      0x5cf d:/program_files/programming/rt-threadstudio/repo/extract/toolchain_support_packages/risc-v/risc-v-gcc/10.1.0/bin/../lib/gcc/riscv64-unknown-elf/10.1.0/rv32im/ilp32\libgcc.a(extenddftf2.o)
 .debug_line    0x000000000000c95c      0x70f d:/program_files/programming/rt-threadstudio/repo/extract/toolchain_support_packages/risc-v/risc-v-gcc/10.1.0/bin/../lib/gcc/riscv64-unknown-elf/10.1.0/rv32im/ilp32\libgcc.a(trunctfdf2.o)
 .debug_line    0x000000000000d06b       0x6e d:/program_files/programming/rt-threadstudio/repo/extract/toolchain_support_packages/risc-v/risc-v-gcc/10.1.0/bin/../lib/gcc/riscv64-unknown-elf/10.1.0/rv32im/ilp32\libgcc.a(_clz.o)
 .debug_line    0x000000000000d0d9       0xfa d:/program_files/programming/rt-threadstudio/repo/extract/toolchain_support_packages/risc-v/risc-v-gcc/10.1.0/bin/../lib/gcc/riscv64-unknown-elf/10.1.0/rv32im/ilp32\libgcc.a(_clzsi2.o)

.debug_str      0x0000000000000000     0x13b6
 .debug_str     0x0000000000000000      0x286 d:/program_files/programming/rt-threadstudio/repo/extract/toolchain_support_packages/risc-v/risc-v-gcc/10.1.0/bin/../lib/gcc/riscv64-unknown-elf/10.1.0/rv32im/ilp32\libgcc.a(_udivdi3.o)
                                        0x2e6 (size before relaxing)
 .debug_str     0x0000000000000286        0xa d:/program_files/programming/rt-threadstudio/repo/extract/toolchain_support_packages/risc-v/risc-v-gcc/10.1.0/bin/../lib/gcc/riscv64-unknown-elf/10.1.0/rv32im/ilp32\libgcc.a(_umoddi3.o)
                                        0x2e6 (size before relaxing)
 .debug_str     0x0000000000000290      0x2d6 d:/program_files/programming/rt-threadstudio/repo/extract/toolchain_support_packages/risc-v/risc-v-gcc/10.1.0/bin/../lib/gcc/riscv64-unknown-elf/10.1.0/rv32im/ilp32\libgcc.a(divdf3.o)
                                        0x403 (size before relaxing)
 .debug_str     0x0000000000000566      0x176 d:/program_files/programming/rt-threadstudio/repo/extract/toolchain_support_packages/risc-v/risc-v-gcc/10.1.0/bin/../lib/gcc/riscv64-unknown-elf/10.1.0/rv32im/ilp32\libgcc.a(muldf3.o)
                                        0x45b (size before relaxing)
 .debug_str     0x00000000000006dc       0x66 d:/program_files/programming/rt-threadstudio/repo/extract/toolchain_support_packages/risc-v/risc-v-gcc/10.1.0/bin/../lib/gcc/riscv64-unknown-elf/10.1.0/rv32im/ilp32\libgcc.a(fixdfsi.o)
                                        0x24f (size before relaxing)
 .debug_str     0x0000000000000742      0x10c d:/program_files/programming/rt-threadstudio/repo/extract/toolchain_support_packages/risc-v/risc-v-gcc/10.1.0/bin/../lib/gcc/riscv64-unknown-elf/10.1.0/rv32im/ilp32\libgcc.a(floatunsidf.o)
                                        0x2eb (size before relaxing)
 .debug_str     0x000000000000084e       0xa2 d:/program_files/programming/rt-threadstudio/repo/extract/toolchain_support_packages/risc-v/risc-v-gcc/10.1.0/bin/../lib/gcc/riscv64-unknown-elf/10.1.0/rv32im/ilp32\libgcc.a(eqtf2.o)
                                        0x24f (size before relaxing)
 .debug_str     0x00000000000008f0       0x73 d:/program_files/programming/rt-threadstudio/repo/extract/toolchain_support_packages/risc-v/risc-v-gcc/10.1.0/bin/../lib/gcc/riscv64-unknown-elf/10.1.0/rv32im/ilp32\libgcc.a(getf2.o)
                                        0x273 (size before relaxing)
 .debug_str     0x0000000000000963       0x4f d:/program_files/programming/rt-threadstudio/repo/extract/toolchain_support_packages/risc-v/risc-v-gcc/10.1.0/bin/../lib/gcc/riscv64-unknown-elf/10.1.0/rv32im/ilp32\libgcc.a(letf2.o)
                                        0x273 (size before relaxing)
 .debug_str     0x00000000000009b2      0x2c1 d:/program_files/programming/rt-threadstudio/repo/extract/toolchain_support_packages/risc-v/risc-v-gcc/10.1.0/bin/../lib/gcc/riscv64-unknown-elf/10.1.0/rv32im/ilp32\libgcc.a(multf3.o)
                                        0x5fa (size before relaxing)
 .debug_str     0x0000000000000c73      0x14e d:/program_files/programming/rt-threadstudio/repo/extract/toolchain_support_packages/risc-v/risc-v-gcc/10.1.0/bin/../lib/gcc/riscv64-unknown-elf/10.1.0/rv32im/ilp32\libgcc.a(subtf3.o)
                                        0x4db (size before relaxing)
 .debug_str     0x0000000000000dc1       0x53 d:/program_files/programming/rt-threadstudio/repo/extract/toolchain_support_packages/risc-v/risc-v-gcc/10.1.0/bin/../lib/gcc/riscv64-unknown-elf/10.1.0/rv32im/ilp32\libgcc.a(fixtfsi.o)
                                        0x2b7 (size before relaxing)
 .debug_str     0x0000000000000e14       0x57 d:/program_files/programming/rt-threadstudio/repo/extract/toolchain_support_packages/risc-v/risc-v-gcc/10.1.0/bin/../lib/gcc/riscv64-unknown-elf/10.1.0/rv32im/ilp32\libgcc.a(floatsitf.o)
                                        0x39f (size before relaxing)
 .debug_str     0x0000000000000e6b       0x91 d:/program_files/programming/rt-threadstudio/repo/extract/toolchain_support_packages/risc-v/risc-v-gcc/10.1.0/bin/../lib/gcc/riscv64-unknown-elf/10.1.0/rv32im/ilp32\libgcc.a(addsf3.o)
                                        0x304 (size before relaxing)
 .debug_str     0x0000000000000efc       0xda d:/program_files/programming/rt-threadstudio/repo/extract/toolchain_support_packages/risc-v/risc-v-gcc/10.1.0/bin/../lib/gcc/riscv64-unknown-elf/10.1.0/rv32im/ilp32\libgcc.a(divsf3.o)
                                        0x36e (size before relaxing)
 .debug_str     0x0000000000000fd6       0x4f d:/program_files/programming/rt-threadstudio/repo/extract/toolchain_support_packages/risc-v/risc-v-gcc/10.1.0/bin/../lib/gcc/riscv64-unknown-elf/10.1.0/rv32im/ilp32\libgcc.a(eqsf2.o)
                                        0x236 (size before relaxing)
 .debug_str     0x0000000000001025       0x4f d:/program_files/programming/rt-threadstudio/repo/extract/toolchain_support_packages/risc-v/risc-v-gcc/10.1.0/bin/../lib/gcc/riscv64-unknown-elf/10.1.0/rv32im/ilp32\libgcc.a(gesf2.o)
                                        0x25a (size before relaxing)
 .debug_str     0x0000000000001074       0x4f d:/program_files/programming/rt-threadstudio/repo/extract/toolchain_support_packages/risc-v/risc-v-gcc/10.1.0/bin/../lib/gcc/riscv64-unknown-elf/10.1.0/rv32im/ilp32\libgcc.a(lesf2.o)
                                        0x25a (size before relaxing)
 .debug_str     0x00000000000010c3       0x83 d:/program_files/programming/rt-threadstudio/repo/extract/toolchain_support_packages/risc-v/risc-v-gcc/10.1.0/bin/../lib/gcc/riscv64-unknown-elf/10.1.0/rv32im/ilp32\libgcc.a(mulsf3.o)
                                        0x329 (size before relaxing)
 .debug_str     0x0000000000001146       0x51 d:/program_files/programming/rt-threadstudio/repo/extract/toolchain_support_packages/risc-v/risc-v-gcc/10.1.0/bin/../lib/gcc/riscv64-unknown-elf/10.1.0/rv32im/ilp32\libgcc.a(subsf3.o)
                                        0x304 (size before relaxing)
 .debug_str     0x0000000000001197       0x53 d:/program_files/programming/rt-threadstudio/repo/extract/toolchain_support_packages/risc-v/risc-v-gcc/10.1.0/bin/../lib/gcc/riscv64-unknown-elf/10.1.0/rv32im/ilp32\libgcc.a(fixsfsi.o)
                                        0x23d (size before relaxing)
 .debug_str     0x00000000000011ea       0x59 d:/program_files/programming/rt-threadstudio/repo/extract/toolchain_support_packages/risc-v/risc-v-gcc/10.1.0/bin/../lib/gcc/riscv64-unknown-elf/10.1.0/rv32im/ilp32\libgcc.a(fixunssfsi.o)
                                        0x23c (size before relaxing)
 .debug_str     0x0000000000001243       0x57 d:/program_files/programming/rt-threadstudio/repo/extract/toolchain_support_packages/risc-v/risc-v-gcc/10.1.0/bin/../lib/gcc/riscv64-unknown-elf/10.1.0/rv32im/ilp32\libgcc.a(floatsisf.o)
                                        0x2cf (size before relaxing)
 .debug_str     0x000000000000129a       0x5b d:/program_files/programming/rt-threadstudio/repo/extract/toolchain_support_packages/risc-v/risc-v-gcc/10.1.0/bin/../lib/gcc/riscv64-unknown-elf/10.1.0/rv32im/ilp32\libgcc.a(floatunsisf.o)
                                        0x2cc (size before relaxing)
 .debug_str     0x00000000000012f5       0x68 d:/program_files/programming/rt-threadstudio/repo/extract/toolchain_support_packages/risc-v/risc-v-gcc/10.1.0/bin/../lib/gcc/riscv64-unknown-elf/10.1.0/rv32im/ilp32\libgcc.a(extenddftf2.o)
                                        0x2ec (size before relaxing)
 .debug_str     0x000000000000135d       0x59 d:/program_files/programming/rt-threadstudio/repo/extract/toolchain_support_packages/risc-v/risc-v-gcc/10.1.0/bin/../lib/gcc/riscv64-unknown-elf/10.1.0/rv32im/ilp32\libgcc.a(trunctfdf2.o)
                                        0x41a (size before relaxing)
 .debug_str     0x00000000000013b6      0x22d d:/program_files/programming/rt-threadstudio/repo/extract/toolchain_support_packages/risc-v/risc-v-gcc/10.1.0/bin/../lib/gcc/riscv64-unknown-elf/10.1.0/rv32im/ilp32\libgcc.a(_clz.o)
 .debug_str     0x00000000000013b6      0x24a d:/program_files/programming/rt-threadstudio/repo/extract/toolchain_support_packages/risc-v/risc-v-gcc/10.1.0/bin/../lib/gcc/riscv64-unknown-elf/10.1.0/rv32im/ilp32\libgcc.a(_clzsi2.o)

.debug_frame    0x0000000000000000      0x570
 .debug_frame   0x0000000000000000       0x58 d:/program_files/programming/rt-threadstudio/repo/extract/toolchain_support_packages/risc-v/risc-v-gcc/10.1.0/bin/../lib/gcc/riscv64-unknown-elf/10.1.0/rv32im/ilp32\libgcc.a(divdf3.o)
 .debug_frame   0x0000000000000058       0x54 d:/program_files/programming/rt-threadstudio/repo/extract/toolchain_support_packages/risc-v/risc-v-gcc/10.1.0/bin/../lib/gcc/riscv64-unknown-elf/10.1.0/rv32im/ilp32\libgcc.a(muldf3.o)
 .debug_frame   0x00000000000000ac       0x20 d:/program_files/programming/rt-threadstudio/repo/extract/toolchain_support_packages/risc-v/risc-v-gcc/10.1.0/bin/../lib/gcc/riscv64-unknown-elf/10.1.0/rv32im/ilp32\libgcc.a(fixdfsi.o)
 .debug_frame   0x00000000000000cc       0x34 d:/program_files/programming/rt-threadstudio/repo/extract/toolchain_support_packages/risc-v/risc-v-gcc/10.1.0/bin/../lib/gcc/riscv64-unknown-elf/10.1.0/rv32im/ilp32\libgcc.a(floatunsidf.o)
 .debug_frame   0x0000000000000100       0x2c d:/program_files/programming/rt-threadstudio/repo/extract/toolchain_support_packages/risc-v/risc-v-gcc/10.1.0/bin/../lib/gcc/riscv64-unknown-elf/10.1.0/rv32im/ilp32\libgcc.a(eqtf2.o)
 .debug_frame   0x000000000000012c       0x2c d:/program_files/programming/rt-threadstudio/repo/extract/toolchain_support_packages/risc-v/risc-v-gcc/10.1.0/bin/../lib/gcc/riscv64-unknown-elf/10.1.0/rv32im/ilp32\libgcc.a(getf2.o)
 .debug_frame   0x0000000000000158       0x2c d:/program_files/programming/rt-threadstudio/repo/extract/toolchain_support_packages/risc-v/risc-v-gcc/10.1.0/bin/../lib/gcc/riscv64-unknown-elf/10.1.0/rv32im/ilp32\libgcc.a(letf2.o)
 .debug_frame   0x0000000000000184       0x68 d:/program_files/programming/rt-threadstudio/repo/extract/toolchain_support_packages/risc-v/risc-v-gcc/10.1.0/bin/../lib/gcc/riscv64-unknown-elf/10.1.0/rv32im/ilp32\libgcc.a(multf3.o)
 .debug_frame   0x00000000000001ec       0x5c d:/program_files/programming/rt-threadstudio/repo/extract/toolchain_support_packages/risc-v/risc-v-gcc/10.1.0/bin/../lib/gcc/riscv64-unknown-elf/10.1.0/rv32im/ilp32\libgcc.a(subtf3.o)
 .debug_frame   0x0000000000000248       0x2c d:/program_files/programming/rt-threadstudio/repo/extract/toolchain_support_packages/risc-v/risc-v-gcc/10.1.0/bin/../lib/gcc/riscv64-unknown-elf/10.1.0/rv32im/ilp32\libgcc.a(fixtfsi.o)
 .debug_frame   0x0000000000000274       0x40 d:/program_files/programming/rt-threadstudio/repo/extract/toolchain_support_packages/risc-v/risc-v-gcc/10.1.0/bin/../lib/gcc/riscv64-unknown-elf/10.1.0/rv32im/ilp32\libgcc.a(floatsitf.o)
 .debug_frame   0x00000000000002b4       0x40 d:/program_files/programming/rt-threadstudio/repo/extract/toolchain_support_packages/risc-v/risc-v-gcc/10.1.0/bin/../lib/gcc/riscv64-unknown-elf/10.1.0/rv32im/ilp32\libgcc.a(addsf3.o)
 .debug_frame   0x00000000000002f4       0x4c d:/program_files/programming/rt-threadstudio/repo/extract/toolchain_support_packages/risc-v/risc-v-gcc/10.1.0/bin/../lib/gcc/riscv64-unknown-elf/10.1.0/rv32im/ilp32\libgcc.a(divsf3.o)
 .debug_frame   0x0000000000000340       0x20 d:/program_files/programming/rt-threadstudio/repo/extract/toolchain_support_packages/risc-v/risc-v-gcc/10.1.0/bin/../lib/gcc/riscv64-unknown-elf/10.1.0/rv32im/ilp32\libgcc.a(eqsf2.o)
 .debug_frame   0x0000000000000360       0x20 d:/program_files/programming/rt-threadstudio/repo/extract/toolchain_support_packages/risc-v/risc-v-gcc/10.1.0/bin/../lib/gcc/riscv64-unknown-elf/10.1.0/rv32im/ilp32\libgcc.a(gesf2.o)
 .debug_frame   0x0000000000000380       0x20 d:/program_files/programming/rt-threadstudio/repo/extract/toolchain_support_packages/risc-v/risc-v-gcc/10.1.0/bin/../lib/gcc/riscv64-unknown-elf/10.1.0/rv32im/ilp32\libgcc.a(lesf2.o)
 .debug_frame   0x00000000000003a0       0x48 d:/program_files/programming/rt-threadstudio/repo/extract/toolchain_support_packages/risc-v/risc-v-gcc/10.1.0/bin/../lib/gcc/riscv64-unknown-elf/10.1.0/rv32im/ilp32\libgcc.a(mulsf3.o)
 .debug_frame   0x00000000000003e8       0x40 d:/program_files/programming/rt-threadstudio/repo/extract/toolchain_support_packages/risc-v/risc-v-gcc/10.1.0/bin/../lib/gcc/riscv64-unknown-elf/10.1.0/rv32im/ilp32\libgcc.a(subsf3.o)
 .debug_frame   0x0000000000000428       0x20 d:/program_files/programming/rt-threadstudio/repo/extract/toolchain_support_packages/risc-v/risc-v-gcc/10.1.0/bin/../lib/gcc/riscv64-unknown-elf/10.1.0/rv32im/ilp32\libgcc.a(fixsfsi.o)
 .debug_frame   0x0000000000000448       0x20 d:/program_files/programming/rt-threadstudio/repo/extract/toolchain_support_packages/risc-v/risc-v-gcc/10.1.0/bin/../lib/gcc/riscv64-unknown-elf/10.1.0/rv32im/ilp32\libgcc.a(fixunssfsi.o)
 .debug_frame   0x0000000000000468       0x38 d:/program_files/programming/rt-threadstudio/repo/extract/toolchain_support_packages/risc-v/risc-v-gcc/10.1.0/bin/../lib/gcc/riscv64-unknown-elf/10.1.0/rv32im/ilp32\libgcc.a(floatsisf.o)
 .debug_frame   0x00000000000004a0       0x34 d:/program_files/programming/rt-threadstudio/repo/extract/toolchain_support_packages/risc-v/risc-v-gcc/10.1.0/bin/../lib/gcc/riscv64-unknown-elf/10.1.0/rv32im/ilp32\libgcc.a(floatunsisf.o)
 .debug_frame   0x00000000000004d4       0x40 d:/program_files/programming/rt-threadstudio/repo/extract/toolchain_support_packages/risc-v/risc-v-gcc/10.1.0/bin/../lib/gcc/riscv64-unknown-elf/10.1.0/rv32im/ilp32\libgcc.a(extenddftf2.o)
 .debug_frame   0x0000000000000514       0x3c d:/program_files/programming/rt-threadstudio/repo/extract/toolchain_support_packages/risc-v/risc-v-gcc/10.1.0/bin/../lib/gcc/riscv64-unknown-elf/10.1.0/rv32im/ilp32\libgcc.a(trunctfdf2.o)
 .debug_frame   0x0000000000000550       0x20 d:/program_files/programming/rt-threadstudio/repo/extract/toolchain_support_packages/risc-v/risc-v-gcc/10.1.0/bin/../lib/gcc/riscv64-unknown-elf/10.1.0/rv32im/ilp32\libgcc.a(_clzsi2.o)

Cross Reference Table

Symbol                                            File
HAL_UART_MspInit                                  libraries\hal_libraries\ab32vg1_hal\source\ab32vg1_hal_uart.o
OP_add_byte                                       build\kernel\components\finsh\finsh_ops.o
OP_add_dword                                      build\kernel\components\finsh\finsh_ops.o
OP_add_word                                       build\kernel\components\finsh\finsh_ops.o
OP_and_byte                                       build\kernel\components\finsh\finsh_ops.o
OP_and_dword                                      build\kernel\components\finsh\finsh_ops.o
OP_and_word                                       build\kernel\components\finsh\finsh_ops.o
OP_bw_byte                                        build\kernel\components\finsh\finsh_ops.o
OP_bw_dword                                       build\kernel\components\finsh\finsh_ops.o
OP_bw_word                                        build\kernel\components\finsh\finsh_ops.o
OP_call                                           build\kernel\components\finsh\finsh_ops.o
OP_div_byte                                       build\kernel\components\finsh\finsh_ops.o
OP_div_dword                                      build\kernel\components\finsh\finsh_ops.o
OP_div_word                                       build\kernel\components\finsh\finsh_ops.o
OP_ld_byte                                        build\kernel\components\finsh\finsh_ops.o
OP_ld_dword                                       build\kernel\components\finsh\finsh_ops.o
OP_ld_value_byte                                  build\kernel\components\finsh\finsh_ops.o
OP_ld_value_byte_stack                            build\kernel\components\finsh\finsh_ops.o
OP_ld_value_dword                                 build\kernel\components\finsh\finsh_ops.o
OP_ld_value_dword_stack                           build\kernel\components\finsh\finsh_ops.o
OP_ld_value_word                                  build\kernel\components\finsh\finsh_ops.o
OP_ld_value_word_stack                            build\kernel\components\finsh\finsh_ops.o
OP_ld_word                                        build\kernel\components\finsh\finsh_ops.o
OP_mod_byte                                       build\kernel\components\finsh\finsh_ops.o
OP_mod_dword                                      build\kernel\components\finsh\finsh_ops.o
OP_mod_word                                       build\kernel\components\finsh\finsh_ops.o
OP_mul_byte                                       build\kernel\components\finsh\finsh_ops.o
OP_mul_dword                                      build\kernel\components\finsh\finsh_ops.o
OP_mul_word                                       build\kernel\components\finsh\finsh_ops.o
OP_no_op                                          build\kernel\components\finsh\finsh_ops.o
OP_or_byte                                        build\kernel\components\finsh\finsh_ops.o
OP_or_dword                                       build\kernel\components\finsh\finsh_ops.o
OP_or_word                                        build\kernel\components\finsh\finsh_ops.o
OP_pop                                            build\kernel\components\finsh\finsh_ops.o
OP_shl_byte                                       build\kernel\components\finsh\finsh_ops.o
OP_shl_dword                                      build\kernel\components\finsh\finsh_ops.o
OP_shl_word                                       build\kernel\components\finsh\finsh_ops.o
OP_shr_byte                                       build\kernel\components\finsh\finsh_ops.o
OP_shr_dword                                      build\kernel\components\finsh\finsh_ops.o
OP_shr_word                                       build\kernel\components\finsh\finsh_ops.o
OP_st_byte                                        build\kernel\components\finsh\finsh_ops.o
OP_st_dword                                       build\kernel\components\finsh\finsh_ops.o
OP_st_word                                        build\kernel\components\finsh\finsh_ops.o
OP_sub_byte                                       build\kernel\components\finsh\finsh_ops.o
OP_sub_dword                                      build\kernel\components\finsh\finsh_ops.o
OP_sub_word                                       build\kernel\components\finsh\finsh_ops.o
OP_xor_byte                                       build\kernel\components\finsh\finsh_ops.o
OP_xor_dword                                      build\kernel\components\finsh\finsh_ops.o
OP_xor_word                                       build\kernel\components\finsh\finsh_ops.o
_Balloc                                           d:/program_files/programming/rt-threadstudio/repo/extract/toolchain_support_packages/risc-v/risc-v-gcc/10.1.0/bin/../lib/gcc/riscv64-unknown-elf/10.1.0/../../../../riscv64-unknown-elf/lib/rv32im/ilp32\libc.a(lib_a-mprec.o)
                                                  d:/program_files/programming/rt-threadstudio/repo/extract/toolchain_support_packages/risc-v/risc-v-gcc/10.1.0/bin/../lib/gcc/riscv64-unknown-elf/10.1.0/../../../../riscv64-unknown-elf/lib/rv32im/ilp32\libc.a(lib_a-ldtoa.o)
_Bfree                                            d:/program_files/programming/rt-threadstudio/repo/extract/toolchain_support_packages/risc-v/risc-v-gcc/10.1.0/bin/../lib/gcc/riscv64-unknown-elf/10.1.0/../../../../riscv64-unknown-elf/lib/rv32im/ilp32\libc.a(lib_a-mprec.o)
                                                  d:/program_files/programming/rt-threadstudio/repo/extract/toolchain_support_packages/risc-v/risc-v-gcc/10.1.0/bin/../lib/gcc/riscv64-unknown-elf/10.1.0/../../../../riscv64-unknown-elf/lib/rv32im/ilp32\libc.a(lib_a-ldtoa.o)
_PathLocale                                       d:/program_files/programming/rt-threadstudio/repo/extract/toolchain_support_packages/risc-v/risc-v-gcc/10.1.0/bin/../lib/gcc/riscv64-unknown-elf/10.1.0/../../../../riscv64-unknown-elf/lib/rv32im/ilp32\libc.a(lib_a-locale.o)
__addsf3                                          d:/program_files/programming/rt-threadstudio/repo/extract/toolchain_support_packages/risc-v/risc-v-gcc/10.1.0/bin/../lib/gcc/riscv64-unknown-elf/10.1.0/rv32im/ilp32\libgcc.a(addsf3.o)
                                                  build\kernel\components\drivers\hwtimer\hwtimer.o
__any_on                                          d:/program_files/programming/rt-threadstudio/repo/extract/toolchain_support_packages/risc-v/risc-v-gcc/10.1.0/bin/../lib/gcc/riscv64-unknown-elf/10.1.0/../../../../riscv64-unknown-elf/lib/rv32im/ilp32\libc.a(lib_a-mprec.o)
__ascii_mbtowc                                    d:/program_files/programming/rt-threadstudio/repo/extract/toolchain_support_packages/risc-v/risc-v-gcc/10.1.0/bin/../lib/gcc/riscv64-unknown-elf/10.1.0/../../../../riscv64-unknown-elf/lib/rv32im/ilp32\libc.a(lib_a-mbtowc_r.o)
                                                  d:/program_files/programming/rt-threadstudio/repo/extract/toolchain_support_packages/risc-v/risc-v-gcc/10.1.0/bin/../lib/gcc/riscv64-unknown-elf/10.1.0/../../../../riscv64-unknown-elf/lib/rv32im/ilp32\libc.a(lib_a-locale.o)
__ascii_wctomb                                    d:/program_files/programming/rt-threadstudio/repo/extract/toolchain_support_packages/risc-v/risc-v-gcc/10.1.0/bin/../lib/gcc/riscv64-unknown-elf/10.1.0/../../../../riscv64-unknown-elf/lib/rv32im/ilp32\libc.a(lib_a-wctomb_r.o)
                                                  d:/program_files/programming/rt-threadstudio/repo/extract/toolchain_support_packages/risc-v/risc-v-gcc/10.1.0/bin/../lib/gcc/riscv64-unknown-elf/10.1.0/../../../../riscv64-unknown-elf/lib/rv32im/ilp32\libc.a(lib_a-locale.o)
__assert                                          d:/program_files/programming/rt-threadstudio/repo/extract/toolchain_support_packages/risc-v/risc-v-gcc/10.1.0/bin/../lib/gcc/riscv64-unknown-elf/10.1.0/../../../../riscv64-unknown-elf/lib/rv32im/ilp32\libc.a(lib_a-assert.o)
__assert_func                                     d:/program_files/programming/rt-threadstudio/repo/extract/toolchain_support_packages/risc-v/risc-v-gcc/10.1.0/bin/../lib/gcc/riscv64-unknown-elf/10.1.0/../../../../riscv64-unknown-elf/lib/rv32im/ilp32\libc.a(lib_a-assert.o)
                                                  d:/program_files/programming/rt-threadstudio/repo/extract/toolchain_support_packages/risc-v/risc-v-gcc/10.1.0/bin/../lib/gcc/riscv64-unknown-elf/10.1.0/../../../../riscv64-unknown-elf/lib/rv32im/ilp32\libc.a(lib_a-mprec.o)
__b2d                                             d:/program_files/programming/rt-threadstudio/repo/extract/toolchain_support_packages/risc-v/risc-v-gcc/10.1.0/bin/../lib/gcc/riscv64-unknown-elf/10.1.0/../../../../riscv64-unknown-elf/lib/rv32im/ilp32\libc.a(lib_a-mprec.o)
__bss_size                                        libraries\hal_libraries\bmsis\source\startup.o
__bss_start                                       libraries\hal_libraries\bmsis\source\startup.o
__clz_tab                                         d:/program_files/programming/rt-threadstudio/repo/extract/toolchain_support_packages/risc-v/risc-v-gcc/10.1.0/bin/../lib/gcc/riscv64-unknown-elf/10.1.0/rv32im/ilp32\libgcc.a(_clz.o)
                                                  d:/program_files/programming/rt-threadstudio/repo/extract/toolchain_support_packages/risc-v/risc-v-gcc/10.1.0/bin/../lib/gcc/riscv64-unknown-elf/10.1.0/rv32im/ilp32\libgcc.a(_clzsi2.o)
                                                  d:/program_files/programming/rt-threadstudio/repo/extract/toolchain_support_packages/risc-v/risc-v-gcc/10.1.0/bin/../lib/gcc/riscv64-unknown-elf/10.1.0/rv32im/ilp32\libgcc.a(_umoddi3.o)
                                                  d:/program_files/programming/rt-threadstudio/repo/extract/toolchain_support_packages/risc-v/risc-v-gcc/10.1.0/bin/../lib/gcc/riscv64-unknown-elf/10.1.0/rv32im/ilp32\libgcc.a(_udivdi3.o)
                                                  d:/program_files/programming/rt-threadstudio/repo/extract/toolchain_support_packages/risc-v/risc-v-gcc/10.1.0/bin/../lib/gcc/riscv64-unknown-elf/10.1.0/rv32im/ilp32\libgcc.a(_divdi3.o)
__clzsi2                                          d:/program_files/programming/rt-threadstudio/repo/extract/toolchain_support_packages/risc-v/risc-v-gcc/10.1.0/bin/../lib/gcc/riscv64-unknown-elf/10.1.0/rv32im/ilp32\libgcc.a(_clzsi2.o)
                                                  d:/program_files/programming/rt-threadstudio/repo/extract/toolchain_support_packages/risc-v/risc-v-gcc/10.1.0/bin/../lib/gcc/riscv64-unknown-elf/10.1.0/rv32im/ilp32\libgcc.a(extenddftf2.o)
                                                  d:/program_files/programming/rt-threadstudio/repo/extract/toolchain_support_packages/risc-v/risc-v-gcc/10.1.0/bin/../lib/gcc/riscv64-unknown-elf/10.1.0/rv32im/ilp32\libgcc.a(floatunsisf.o)
                                                  d:/program_files/programming/rt-threadstudio/repo/extract/toolchain_support_packages/risc-v/risc-v-gcc/10.1.0/bin/../lib/gcc/riscv64-unknown-elf/10.1.0/rv32im/ilp32\libgcc.a(floatsisf.o)
                                                  d:/program_files/programming/rt-threadstudio/repo/extract/toolchain_support_packages/risc-v/risc-v-gcc/10.1.0/bin/../lib/gcc/riscv64-unknown-elf/10.1.0/rv32im/ilp32\libgcc.a(subsf3.o)
                                                  d:/program_files/programming/rt-threadstudio/repo/extract/toolchain_support_packages/risc-v/risc-v-gcc/10.1.0/bin/../lib/gcc/riscv64-unknown-elf/10.1.0/rv32im/ilp32\libgcc.a(mulsf3.o)
                                                  d:/program_files/programming/rt-threadstudio/repo/extract/toolchain_support_packages/risc-v/risc-v-gcc/10.1.0/bin/../lib/gcc/riscv64-unknown-elf/10.1.0/rv32im/ilp32\libgcc.a(divsf3.o)
                                                  d:/program_files/programming/rt-threadstudio/repo/extract/toolchain_support_packages/risc-v/risc-v-gcc/10.1.0/bin/../lib/gcc/riscv64-unknown-elf/10.1.0/rv32im/ilp32\libgcc.a(addsf3.o)
                                                  d:/program_files/programming/rt-threadstudio/repo/extract/toolchain_support_packages/risc-v/risc-v-gcc/10.1.0/bin/../lib/gcc/riscv64-unknown-elf/10.1.0/rv32im/ilp32\libgcc.a(floatsitf.o)
                                                  d:/program_files/programming/rt-threadstudio/repo/extract/toolchain_support_packages/risc-v/risc-v-gcc/10.1.0/bin/../lib/gcc/riscv64-unknown-elf/10.1.0/rv32im/ilp32\libgcc.a(subtf3.o)
                                                  d:/program_files/programming/rt-threadstudio/repo/extract/toolchain_support_packages/risc-v/risc-v-gcc/10.1.0/bin/../lib/gcc/riscv64-unknown-elf/10.1.0/rv32im/ilp32\libgcc.a(multf3.o)
                                                  d:/program_files/programming/rt-threadstudio/repo/extract/toolchain_support_packages/risc-v/risc-v-gcc/10.1.0/bin/../lib/gcc/riscv64-unknown-elf/10.1.0/rv32im/ilp32\libgcc.a(floatunsidf.o)
                                                  d:/program_files/programming/rt-threadstudio/repo/extract/toolchain_support_packages/risc-v/risc-v-gcc/10.1.0/bin/../lib/gcc/riscv64-unknown-elf/10.1.0/rv32im/ilp32\libgcc.a(muldf3.o)
                                                  d:/program_files/programming/rt-threadstudio/repo/extract/toolchain_support_packages/risc-v/risc-v-gcc/10.1.0/bin/../lib/gcc/riscv64-unknown-elf/10.1.0/rv32im/ilp32\libgcc.a(divdf3.o)
__comm_lma                                        libraries\hal_libraries\bmsis\source\startup.o
__comm_size                                       libraries\hal_libraries\bmsis\source\startup.o
__comm_vma                                        libraries\hal_libraries\bmsis\source\startup.o
__copybits                                        d:/program_files/programming/rt-threadstudio/repo/extract/toolchain_support_packages/risc-v/risc-v-gcc/10.1.0/bin/../lib/gcc/riscv64-unknown-elf/10.1.0/../../../../riscv64-unknown-elf/lib/rv32im/ilp32\libc.a(lib_a-mprec.o)
__d2b                                             d:/program_files/programming/rt-threadstudio/repo/extract/toolchain_support_packages/risc-v/risc-v-gcc/10.1.0/bin/../lib/gcc/riscv64-unknown-elf/10.1.0/../../../../riscv64-unknown-elf/lib/rv32im/ilp32\libc.a(lib_a-mprec.o)
__divdf3                                          d:/program_files/programming/rt-threadstudio/repo/extract/toolchain_support_packages/risc-v/risc-v-gcc/10.1.0/bin/../lib/gcc/riscv64-unknown-elf/10.1.0/rv32im/ilp32\libgcc.a(divdf3.o)
                                                  d:/program_files/programming/rt-threadstudio/repo/extract/toolchain_support_packages/risc-v/risc-v-gcc/10.1.0/bin/../lib/gcc/riscv64-unknown-elf/10.1.0/../../../../riscv64-unknown-elf/lib/rv32im/ilp32\libc.a(lib_a-mprec.o)
                                                  build\kernel\components\drivers\misc\rt_drv_pwm.o
__divdi3                                          d:/program_files/programming/rt-threadstudio/repo/extract/toolchain_support_packages/risc-v/risc-v-gcc/10.1.0/bin/../lib/gcc/riscv64-unknown-elf/10.1.0/rv32im/ilp32\libgcc.a(_divdi3.o)
                                                  libraries\hal_drivers\drv_pwm.o
__divsf3                                          d:/program_files/programming/rt-threadstudio/repo/extract/toolchain_support_packages/risc-v/risc-v-gcc/10.1.0/bin/../lib/gcc/riscv64-unknown-elf/10.1.0/rv32im/ilp32\libgcc.a(divsf3.o)
                                                  build\kernel\components\drivers\hwtimer\hwtimer.o
__env_lock                                        d:/program_files/programming/rt-threadstudio/repo/extract/toolchain_support_packages/risc-v/risc-v-gcc/10.1.0/bin/../lib/gcc/riscv64-unknown-elf/10.1.0/../../../../riscv64-unknown-elf/lib/rv32im/ilp32\libc.a(lib_a-envlock.o)
                                                  d:/program_files/programming/rt-threadstudio/repo/extract/toolchain_support_packages/risc-v/risc-v-gcc/10.1.0/bin/../lib/gcc/riscv64-unknown-elf/10.1.0/../../../../riscv64-unknown-elf/lib/rv32im/ilp32\libc.a(lib_a-getenv_r.o)
                                                  d:/program_files/programming/rt-threadstudio/repo/extract/toolchain_support_packages/risc-v/risc-v-gcc/10.1.0/bin/../lib/gcc/riscv64-unknown-elf/10.1.0/../../../../riscv64-unknown-elf/lib/rv32im/ilp32\libc.a(lib_a-setenv_r.o)
__env_unlock                                      d:/program_files/programming/rt-threadstudio/repo/extract/toolchain_support_packages/risc-v/risc-v-gcc/10.1.0/bin/../lib/gcc/riscv64-unknown-elf/10.1.0/../../../../riscv64-unknown-elf/lib/rv32im/ilp32\libc.a(lib_a-envlock.o)
                                                  d:/program_files/programming/rt-threadstudio/repo/extract/toolchain_support_packages/risc-v/risc-v-gcc/10.1.0/bin/../lib/gcc/riscv64-unknown-elf/10.1.0/../../../../riscv64-unknown-elf/lib/rv32im/ilp32\libc.a(lib_a-getenv_r.o)
                                                  d:/program_files/programming/rt-threadstudio/repo/extract/toolchain_support_packages/risc-v/risc-v-gcc/10.1.0/bin/../lib/gcc/riscv64-unknown-elf/10.1.0/../../../../riscv64-unknown-elf/lib/rv32im/ilp32\libc.a(lib_a-setenv_r.o)
__eqsf2                                           d:/program_files/programming/rt-threadstudio/repo/extract/toolchain_support_packages/risc-v/risc-v-gcc/10.1.0/bin/../lib/gcc/riscv64-unknown-elf/10.1.0/rv32im/ilp32\libgcc.a(eqsf2.o)
                                                  build\kernel\components\drivers\hwtimer\hwtimer.o
__eqtf2                                           d:/program_files/programming/rt-threadstudio/repo/extract/toolchain_support_packages/risc-v/risc-v-gcc/10.1.0/bin/../lib/gcc/riscv64-unknown-elf/10.1.0/rv32im/ilp32\libgcc.a(eqtf2.o)
                                                  d:/program_files/programming/rt-threadstudio/repo/extract/toolchain_support_packages/risc-v/risc-v-gcc/10.1.0/bin/../lib/gcc/riscv64-unknown-elf/10.1.0/../../../../riscv64-unknown-elf/lib/rv32im/ilp32\libc.a(lib_a-svfprintf.o)
__errno                                           build\kernel\components\libc\compilers\newlib\syscalls.o
                                                  d:/program_files/programming/rt-threadstudio/repo/extract/toolchain_support_packages/risc-v/risc-v-gcc/10.1.0/bin/../lib/gcc/riscv64-unknown-elf/10.1.0/../../../../riscv64-unknown-elf/lib/rv32im/ilp32\libc.a(lib_a-strtol.o)
                                                  d:/program_files/programming/rt-threadstudio/repo/extract/toolchain_support_packages/risc-v/risc-v-gcc/10.1.0/bin/../lib/gcc/riscv64-unknown-elf/10.1.0/../../../../riscv64-unknown-elf/lib/rv32im/ilp32\libc.a(lib_a-setenv_r.o)
                                                  build\kernel\components\libc\compilers\common\time.o
__extenddftf2                                     d:/program_files/programming/rt-threadstudio/repo/extract/toolchain_support_packages/risc-v/risc-v-gcc/10.1.0/bin/../lib/gcc/riscv64-unknown-elf/10.1.0/rv32im/ilp32\libgcc.a(extenddftf2.o)
                                                  d:/program_files/programming/rt-threadstudio/repo/extract/toolchain_support_packages/risc-v/risc-v-gcc/10.1.0/bin/../lib/gcc/riscv64-unknown-elf/10.1.0/../../../../riscv64-unknown-elf/lib/rv32im/ilp32\libc.a(lib_a-svfprintf.o)
__fixdfsi                                         d:/program_files/programming/rt-threadstudio/repo/extract/toolchain_support_packages/risc-v/risc-v-gcc/10.1.0/bin/../lib/gcc/riscv64-unknown-elf/10.1.0/rv32im/ilp32\libgcc.a(fixdfsi.o)
                                                  build\kernel\components\drivers\misc\rt_drv_pwm.o
__fixsfsi                                         d:/program_files/programming/rt-threadstudio/repo/extract/toolchain_support_packages/risc-v/risc-v-gcc/10.1.0/bin/../lib/gcc/riscv64-unknown-elf/10.1.0/rv32im/ilp32\libgcc.a(fixsfsi.o)
                                                  build\kernel\components\drivers\hwtimer\hwtimer.o
__fixtfsi                                         d:/program_files/programming/rt-threadstudio/repo/extract/toolchain_support_packages/risc-v/risc-v-gcc/10.1.0/bin/../lib/gcc/riscv64-unknown-elf/10.1.0/rv32im/ilp32\libgcc.a(fixtfsi.o)
                                                  d:/program_files/programming/rt-threadstudio/repo/extract/toolchain_support_packages/risc-v/risc-v-gcc/10.1.0/bin/../lib/gcc/riscv64-unknown-elf/10.1.0/../../../../riscv64-unknown-elf/lib/rv32im/ilp32\libc.a(lib_a-svfprintf.o)
__fixunssfsi                                      d:/program_files/programming/rt-threadstudio/repo/extract/toolchain_support_packages/risc-v/risc-v-gcc/10.1.0/bin/../lib/gcc/riscv64-unknown-elf/10.1.0/rv32im/ilp32\libgcc.a(fixunssfsi.o)
                                                  build\kernel\components\drivers\hwtimer\hwtimer.o
__floatsisf                                       d:/program_files/programming/rt-threadstudio/repo/extract/toolchain_support_packages/risc-v/risc-v-gcc/10.1.0/bin/../lib/gcc/riscv64-unknown-elf/10.1.0/rv32im/ilp32\libgcc.a(floatsisf.o)
                                                  build\kernel\components\drivers\hwtimer\hwtimer.o
__floatsitf                                       d:/program_files/programming/rt-threadstudio/repo/extract/toolchain_support_packages/risc-v/risc-v-gcc/10.1.0/bin/../lib/gcc/riscv64-unknown-elf/10.1.0/rv32im/ilp32\libgcc.a(floatsitf.o)
                                                  d:/program_files/programming/rt-threadstudio/repo/extract/toolchain_support_packages/risc-v/risc-v-gcc/10.1.0/bin/../lib/gcc/riscv64-unknown-elf/10.1.0/../../../../riscv64-unknown-elf/lib/rv32im/ilp32\libc.a(lib_a-svfprintf.o)
__floatunsidf                                     d:/program_files/programming/rt-threadstudio/repo/extract/toolchain_support_packages/risc-v/risc-v-gcc/10.1.0/bin/../lib/gcc/riscv64-unknown-elf/10.1.0/rv32im/ilp32\libgcc.a(floatunsidf.o)
                                                  build\kernel\components\drivers\misc\rt_drv_pwm.o
__floatunsisf                                     d:/program_files/programming/rt-threadstudio/repo/extract/toolchain_support_packages/risc-v/risc-v-gcc/10.1.0/bin/../lib/gcc/riscv64-unknown-elf/10.1.0/rv32im/ilp32\libgcc.a(floatunsisf.o)
                                                  build\kernel\components\drivers\hwtimer\hwtimer.o
__fp_lock_all                                     d:/program_files/programming/rt-threadstudio/repo/extract/toolchain_support_packages/risc-v/risc-v-gcc/10.1.0/bin/../lib/gcc/riscv64-unknown-elf/10.1.0/../../../../riscv64-unknown-elf/lib/rv32im/ilp32\libc.a(lib_a-findfp.o)
__fp_unlock_all                                   d:/program_files/programming/rt-threadstudio/repo/extract/toolchain_support_packages/risc-v/risc-v-gcc/10.1.0/bin/../lib/gcc/riscv64-unknown-elf/10.1.0/../../../../riscv64-unknown-elf/lib/rv32im/ilp32\libc.a(lib_a-findfp.o)
__fputwc                                          d:/program_files/programming/rt-threadstudio/repo/extract/toolchain_support_packages/risc-v/risc-v-gcc/10.1.0/bin/../lib/gcc/riscv64-unknown-elf/10.1.0/../../../../riscv64-unknown-elf/lib/rv32im/ilp32\libc.a(lib_a-fputwc.o)
__fsym___cmd_adc                                  build\kernel\components\drivers\misc\adc.o
__fsym___cmd_adc_desc                             build\kernel\components\drivers\misc\adc.o
__fsym___cmd_adc_name                             build\kernel\components\drivers\misc\adc.o
__fsym___cmd_cat                                  build\kernel\components\finsh\msh_file.o
__fsym___cmd_cat_desc                             build\kernel\components\finsh\msh_file.o
__fsym___cmd_cat_name                             build\kernel\components\finsh\msh_file.o
__fsym___cmd_cd                                   build\kernel\components\finsh\msh_file.o
__fsym___cmd_cd_desc                              build\kernel\components\finsh\msh_file.o
__fsym___cmd_cd_name                              build\kernel\components\finsh\msh_file.o
__fsym___cmd_clear                                build\kernel\components\finsh\cmd.o
__fsym___cmd_clear_desc                           build\kernel\components\finsh\cmd.o
__fsym___cmd_clear_name                           build\kernel\components\finsh\cmd.o
__fsym___cmd_cp                                   build\kernel\components\finsh\msh_file.o
__fsym___cmd_cp_desc                              build\kernel\components\finsh\msh_file.o
__fsym___cmd_cp_name                              build\kernel\components\finsh\msh_file.o
__fsym___cmd_date                                 build\kernel\components\drivers\rtc\rtc.o
__fsym___cmd_date_desc                            build\kernel\components\drivers\rtc\rtc.o
__fsym___cmd_date_name                            build\kernel\components\drivers\rtc\rtc.o
__fsym___cmd_df                                   build\kernel\components\finsh\msh_file.o
__fsym___cmd_df_desc                              build\kernel\components\finsh\msh_file.o
__fsym___cmd_df_name                              build\kernel\components\finsh\msh_file.o
__fsym___cmd_echo                                 build\kernel\components\finsh\msh_file.o
__fsym___cmd_echo_desc                            build\kernel\components\finsh\msh_file.o
__fsym___cmd_echo_name                            build\kernel\components\finsh\msh_file.o
__fsym___cmd_exit                                 build\kernel\components\finsh\msh.o
__fsym___cmd_exit_desc                            build\kernel\components\finsh\msh.o
__fsym___cmd_exit_name                            build\kernel\components\finsh\msh.o
__fsym___cmd_free                                 build\kernel\components\finsh\msh.o
__fsym___cmd_free_desc                            build\kernel\components\finsh\msh.o
__fsym___cmd_free_name                            build\kernel\components\finsh\msh.o
__fsym___cmd_help                                 build\kernel\components\finsh\msh.o
__fsym___cmd_help_desc                            build\kernel\components\finsh\msh.o
__fsym___cmd_help_name                            build\kernel\components\finsh\msh.o
__fsym___cmd_list_date                            build\kernel\components\drivers\rtc\rtc.o
__fsym___cmd_list_date_desc                       build\kernel\components\drivers\rtc\rtc.o
__fsym___cmd_list_date_name                       build\kernel\components\drivers\rtc\rtc.o
__fsym___cmd_list_device                          build\kernel\components\finsh\cmd.o
__fsym___cmd_list_device_desc                     build\kernel\components\finsh\cmd.o
__fsym___cmd_list_device_name                     build\kernel\components\finsh\cmd.o
__fsym___cmd_list_event                           build\kernel\components\finsh\cmd.o
__fsym___cmd_list_event_desc                      build\kernel\components\finsh\cmd.o
__fsym___cmd_list_event_name                      build\kernel\components\finsh\cmd.o
__fsym___cmd_list_fd                              build\kernel\components\dfs\src\dfs.o
__fsym___cmd_list_fd_desc                         build\kernel\components\dfs\src\dfs.o
__fsym___cmd_list_fd_name                         build\kernel\components\dfs\src\dfs.o
__fsym___cmd_list_mailbox                         build\kernel\components\finsh\cmd.o
__fsym___cmd_list_mailbox_desc                    build\kernel\components\finsh\cmd.o
__fsym___cmd_list_mailbox_name                    build\kernel\components\finsh\cmd.o
__fsym___cmd_list_memheap                         build\kernel\components\finsh\cmd.o
__fsym___cmd_list_memheap_desc                    build\kernel\components\finsh\cmd.o
__fsym___cmd_list_memheap_name                    build\kernel\components\finsh\cmd.o
__fsym___cmd_list_mempool                         build\kernel\components\finsh\cmd.o
__fsym___cmd_list_mempool_desc                    build\kernel\components\finsh\cmd.o
__fsym___cmd_list_mempool_name                    build\kernel\components\finsh\cmd.o
__fsym___cmd_list_msgqueue                        build\kernel\components\finsh\cmd.o
__fsym___cmd_list_msgqueue_desc                   build\kernel\components\finsh\cmd.o
__fsym___cmd_list_msgqueue_name                   build\kernel\components\finsh\cmd.o
__fsym___cmd_list_mutex                           build\kernel\components\finsh\cmd.o
__fsym___cmd_list_mutex_desc                      build\kernel\components\finsh\cmd.o
__fsym___cmd_list_mutex_name                      build\kernel\components\finsh\cmd.o
__fsym___cmd_list_sem                             build\kernel\components\finsh\cmd.o
__fsym___cmd_list_sem_desc                        build\kernel\components\finsh\cmd.o
__fsym___cmd_list_sem_name                        build\kernel\components\finsh\cmd.o
__fsym___cmd_list_thread                          build\kernel\components\finsh\cmd.o
__fsym___cmd_list_thread_desc                     build\kernel\components\finsh\cmd.o
__fsym___cmd_list_thread_name                     build\kernel\components\finsh\cmd.o
__fsym___cmd_list_timer                           build\kernel\components\finsh\cmd.o
__fsym___cmd_list_timer_desc                      build\kernel\components\finsh\cmd.o
__fsym___cmd_list_timer_name                      build\kernel\components\finsh\cmd.o
__fsym___cmd_ls                                   build\kernel\components\finsh\msh_file.o
__fsym___cmd_ls_desc                              build\kernel\components\finsh\msh_file.o
__fsym___cmd_ls_name                              build\kernel\components\finsh\msh_file.o
__fsym___cmd_memheaptrace                         build\kernel\src\memheap.o
__fsym___cmd_memheaptrace_desc                    build\kernel\src\memheap.o
__fsym___cmd_memheaptrace_name                    build\kernel\src\memheap.o
__fsym___cmd_mkdir                                build\kernel\components\finsh\msh_file.o
__fsym___cmd_mkdir_desc                           build\kernel\components\finsh\msh_file.o
__fsym___cmd_mkdir_name                           build\kernel\components\finsh\msh_file.o
__fsym___cmd_mkfs                                 build\kernel\components\finsh\msh_file.o
__fsym___cmd_mkfs_desc                            build\kernel\components\finsh\msh_file.o
__fsym___cmd_mkfs_name                            build\kernel\components\finsh\msh_file.o
__fsym___cmd_mount                                build\kernel\components\finsh\msh_file.o
__fsym___cmd_mount_desc                           build\kernel\components\finsh\msh_file.o
__fsym___cmd_mount_name                           build\kernel\components\finsh\msh_file.o
__fsym___cmd_mv                                   build\kernel\components\finsh\msh_file.o
__fsym___cmd_mv_desc                              build\kernel\components\finsh\msh_file.o
__fsym___cmd_mv_name                              build\kernel\components\finsh\msh_file.o
__fsym___cmd_ps                                   build\kernel\components\finsh\msh.o
__fsym___cmd_ps_desc                              build\kernel\components\finsh\msh.o
__fsym___cmd_ps_name                              build\kernel\components\finsh\msh.o
__fsym___cmd_pwd                                  build\kernel\components\finsh\msh_file.o
__fsym___cmd_pwd_desc                             build\kernel\components\finsh\msh_file.o
__fsym___cmd_pwd_name                             build\kernel\components\finsh\msh_file.o
__fsym___cmd_pwm_disable                          build\kernel\components\drivers\misc\rt_drv_pwm.o
__fsym___cmd_pwm_disable_desc                     build\kernel\components\drivers\misc\rt_drv_pwm.o
__fsym___cmd_pwm_disable_name                     build\kernel\components\drivers\misc\rt_drv_pwm.o
__fsym___cmd_pwm_enable                           build\kernel\components\drivers\misc\rt_drv_pwm.o
__fsym___cmd_pwm_enable_desc                      build\kernel\components\drivers\misc\rt_drv_pwm.o
__fsym___cmd_pwm_enable_name                      build\kernel\components\drivers\misc\rt_drv_pwm.o
__fsym___cmd_pwm_get                              build\kernel\components\drivers\misc\rt_drv_pwm.o
__fsym___cmd_pwm_get_desc                         build\kernel\components\drivers\misc\rt_drv_pwm.o
__fsym___cmd_pwm_get_name                         build\kernel\components\drivers\misc\rt_drv_pwm.o
__fsym___cmd_pwm_set                              build\kernel\components\drivers\misc\rt_drv_pwm.o
__fsym___cmd_pwm_set_desc                         build\kernel\components\drivers\misc\rt_drv_pwm.o
__fsym___cmd_pwm_set_name                         build\kernel\components\drivers\misc\rt_drv_pwm.o
__fsym___cmd_rm                                   build\kernel\components\finsh\msh_file.o
__fsym___cmd_rm_desc                              build\kernel\components\finsh\msh_file.o
__fsym___cmd_rm_name                              build\kernel\components\finsh\msh_file.o
__fsym___cmd_umount                               build\kernel\components\finsh\msh_file.o
__fsym___cmd_umount_desc                          build\kernel\components\finsh\msh_file.o
__fsym___cmd_umount_name                          build\kernel\components\finsh\msh_file.o
__fsym___cmd_version                              build\kernel\components\finsh\cmd.o
__fsym___cmd_version_desc                         build\kernel\components\finsh\cmd.o
__fsym___cmd_version_name                         build\kernel\components\finsh\cmd.o
__fsym_cat                                        build\kernel\components\dfs\src\dfs_file.o
__fsym_cat_desc                                   build\kernel\components\dfs\src\dfs_file.o
__fsym_cat_name                                   build\kernel\components\dfs\src\dfs_file.o
__fsym_cd                                         build\kernel\components\dfs\src\dfs_posix.o
__fsym_cd_desc                                    build\kernel\components\dfs\src\dfs_posix.o
__fsym_cd_name                                    build\kernel\components\dfs\src\dfs_posix.o
__fsym_clear                                      build\kernel\components\finsh\cmd.o
__fsym_clear_desc                                 build\kernel\components\finsh\cmd.o
__fsym_clear_name                                 build\kernel\components\finsh\cmd.o
__fsym_copy                                       build\kernel\components\dfs\src\dfs_file.o
__fsym_copy_desc                                  build\kernel\components\dfs\src\dfs_file.o
__fsym_copy_name                                  build\kernel\components\dfs\src\dfs_file.o
__fsym_df                                         build\kernel\components\dfs\src\dfs_fs.o
__fsym_df_desc                                    build\kernel\components\dfs\src\dfs_fs.o
__fsym_df_name                                    build\kernel\components\dfs\src\dfs_fs.o
__fsym_hello                                      build\kernel\components\finsh\cmd.o
__fsym_hello_desc                                 build\kernel\components\finsh\cmd.o
__fsym_hello_name                                 build\kernel\components\finsh\cmd.o
__fsym_list                                       build\kernel\components\finsh\cmd.o
__fsym_list_date                                  build\kernel\components\drivers\rtc\rtc.o
__fsym_list_date_desc                             build\kernel\components\drivers\rtc\rtc.o
__fsym_list_date_name                             build\kernel\components\drivers\rtc\rtc.o
__fsym_list_desc                                  build\kernel\components\finsh\cmd.o
__fsym_list_device                                build\kernel\components\finsh\cmd.o
__fsym_list_device_desc                           build\kernel\components\finsh\cmd.o
__fsym_list_device_name                           build\kernel\components\finsh\cmd.o
__fsym_list_event                                 build\kernel\components\finsh\cmd.o
__fsym_list_event_desc                            build\kernel\components\finsh\cmd.o
__fsym_list_event_name                            build\kernel\components\finsh\cmd.o
__fsym_list_mailbox                               build\kernel\components\finsh\cmd.o
__fsym_list_mailbox_desc                          build\kernel\components\finsh\cmd.o
__fsym_list_mailbox_name                          build\kernel\components\finsh\cmd.o
__fsym_list_mem                                   build\kernel\src\mem.o
__fsym_list_mem_desc                              build\kernel\src\mem.o
__fsym_list_mem_name                              build\kernel\src\mem.o
__fsym_list_memheap                               build\kernel\components\finsh\cmd.o
__fsym_list_memheap_desc                          build\kernel\components\finsh\cmd.o
__fsym_list_memheap_name                          build\kernel\components\finsh\cmd.o
__fsym_list_mempool                               build\kernel\components\finsh\cmd.o
__fsym_list_mempool_desc                          build\kernel\components\finsh\cmd.o
__fsym_list_mempool_name                          build\kernel\components\finsh\cmd.o
__fsym_list_msgqueue                              build\kernel\components\finsh\cmd.o
__fsym_list_msgqueue_desc                         build\kernel\components\finsh\cmd.o
__fsym_list_msgqueue_name                         build\kernel\components\finsh\cmd.o
__fsym_list_mutex                                 build\kernel\components\finsh\cmd.o
__fsym_list_mutex_desc                            build\kernel\components\finsh\cmd.o
__fsym_list_mutex_name                            build\kernel\components\finsh\cmd.o
__fsym_list_name                                  build\kernel\components\finsh\cmd.o
__fsym_list_sem                                   build\kernel\components\finsh\cmd.o
__fsym_list_sem_desc                              build\kernel\components\finsh\cmd.o
__fsym_list_sem_name                              build\kernel\components\finsh\cmd.o
__fsym_list_thread                                build\kernel\components\finsh\cmd.o
__fsym_list_thread_desc                           build\kernel\components\finsh\cmd.o
__fsym_list_thread_name                           build\kernel\components\finsh\cmd.o
__fsym_list_timer                                 build\kernel\components\finsh\cmd.o
__fsym_list_timer_desc                            build\kernel\components\finsh\cmd.o
__fsym_list_timer_name                            build\kernel\components\finsh\cmd.o
__fsym_ls                                         build\kernel\components\dfs\src\dfs_file.o
__fsym_ls_desc                                    build\kernel\components\dfs\src\dfs_file.o
__fsym_ls_name                                    build\kernel\components\dfs\src\dfs_file.o
__fsym_mkdir                                      build\kernel\components\dfs\src\dfs_posix.o
__fsym_mkdir_desc                                 build\kernel\components\dfs\src\dfs_posix.o
__fsym_mkdir_name                                 build\kernel\components\dfs\src\dfs_posix.o
__fsym_mkfs                                       build\kernel\components\dfs\src\dfs_fs.o
__fsym_mkfs_desc                                  build\kernel\components\dfs\src\dfs_fs.o
__fsym_mkfs_name                                  build\kernel\components\dfs\src\dfs_fs.o
__fsym_msh                                        build\kernel\components\finsh\msh.o
__fsym_msh_desc                                   build\kernel\components\finsh\msh.o
__fsym_msh_name                                   build\kernel\components\finsh\msh.o
__fsym_pinGet                                     build\kernel\components\drivers\misc\pin.o
__fsym_pinGet_desc                                build\kernel\components\drivers\misc\pin.o
__fsym_pinGet_name                                build\kernel\components\drivers\misc\pin.o
__fsym_pinMode                                    build\kernel\components\drivers\misc\pin.o
__fsym_pinMode_desc                               build\kernel\components\drivers\misc\pin.o
__fsym_pinMode_name                               build\kernel\components\drivers\misc\pin.o
__fsym_pinRead                                    build\kernel\components\drivers\misc\pin.o
__fsym_pinRead_desc                               build\kernel\components\drivers\misc\pin.o
__fsym_pinRead_name                               build\kernel\components\drivers\misc\pin.o
__fsym_pinWrite                                   build\kernel\components\drivers\misc\pin.o
__fsym_pinWrite_desc                              build\kernel\components\drivers\misc\pin.o
__fsym_pinWrite_name                              build\kernel\components\drivers\misc\pin.o
__fsym_pwm_enable                                 build\kernel\components\drivers\misc\rt_drv_pwm.o
__fsym_pwm_enable_desc                            build\kernel\components\drivers\misc\rt_drv_pwm.o
__fsym_pwm_enable_name                            build\kernel\components\drivers\misc\rt_drv_pwm.o
__fsym_pwm_set                                    build\kernel\components\drivers\misc\rt_drv_pwm.o
__fsym_pwm_set_desc                               build\kernel\components\drivers\misc\rt_drv_pwm.o
__fsym_pwm_set_name                               build\kernel\components\drivers\misc\rt_drv_pwm.o
__fsym_rm                                         build\kernel\components\dfs\src\dfs_file.o
__fsym_rm_desc                                    build\kernel\components\dfs\src\dfs_file.o
__fsym_rm_name                                    build\kernel\components\dfs\src\dfs_file.o
__fsym_set_date                                   build\kernel\components\drivers\rtc\rtc.o
__fsym_set_date_desc                              build\kernel\components\drivers\rtc\rtc.o
__fsym_set_date_name                              build\kernel\components\drivers\rtc\rtc.o
__fsym_set_time                                   build\kernel\components\drivers\rtc\rtc.o
__fsym_set_time_desc                              build\kernel\components\drivers\rtc\rtc.o
__fsym_set_time_name                              build\kernel\components\drivers\rtc\rtc.o
__fsym_version                                    build\kernel\components\finsh\cmd.o
__fsym_version_desc                               build\kernel\components\finsh\cmd.o
__fsym_version_name                               build\kernel\components\finsh\cmd.o
__fsymtab_end                                     build\kernel\components\finsh\shell.o
__fsymtab_start                                   build\kernel\components\finsh\shell.o
__gesf2                                           d:/program_files/programming/rt-threadstudio/repo/extract/toolchain_support_packages/risc-v/risc-v-gcc/10.1.0/bin/../lib/gcc/riscv64-unknown-elf/10.1.0/rv32im/ilp32\libgcc.a(gesf2.o)
                                                  build\kernel\components\drivers\hwtimer\hwtimer.o
__getf2                                           d:/program_files/programming/rt-threadstudio/repo/extract/toolchain_support_packages/risc-v/risc-v-gcc/10.1.0/bin/../lib/gcc/riscv64-unknown-elf/10.1.0/rv32im/ilp32\libgcc.a(getf2.o)
__global_locale                                   d:/program_files/programming/rt-threadstudio/repo/extract/toolchain_support_packages/risc-v/risc-v-gcc/10.1.0/bin/../lib/gcc/riscv64-unknown-elf/10.1.0/../../../../riscv64-unknown-elf/lib/rv32im/ilp32\libc.a(lib_a-locale.o)
                                                  d:/program_files/programming/rt-threadstudio/repo/extract/toolchain_support_packages/risc-v/risc-v-gcc/10.1.0/bin/../lib/gcc/riscv64-unknown-elf/10.1.0/../../../../riscv64-unknown-elf/lib/rv32im/ilp32\libc.a(lib_a-wcrtomb.o)
                                                  d:/program_files/programming/rt-threadstudio/repo/extract/toolchain_support_packages/risc-v/risc-v-gcc/10.1.0/bin/../lib/gcc/riscv64-unknown-elf/10.1.0/../../../../riscv64-unknown-elf/lib/rv32im/ilp32\libc.a(lib_a-wctomb_r.o)
                                                  d:/program_files/programming/rt-threadstudio/repo/extract/toolchain_support_packages/risc-v/risc-v-gcc/10.1.0/bin/../lib/gcc/riscv64-unknown-elf/10.1.0/../../../../riscv64-unknown-elf/lib/rv32im/ilp32\libc.a(lib_a-mbtowc_r.o)
                                                  d:/program_files/programming/rt-threadstudio/repo/extract/toolchain_support_packages/risc-v/risc-v-gcc/10.1.0/bin/../lib/gcc/riscv64-unknown-elf/10.1.0/../../../../riscv64-unknown-elf/lib/rv32im/ilp32\libc.a(lib_a-localeconv.o)
__gtsf2                                           d:/program_files/programming/rt-threadstudio/repo/extract/toolchain_support_packages/risc-v/risc-v-gcc/10.1.0/bin/../lib/gcc/riscv64-unknown-elf/10.1.0/rv32im/ilp32\libgcc.a(gesf2.o)
                                                  build\kernel\components\drivers\hwtimer\hwtimer.o
__gttf2                                           d:/program_files/programming/rt-threadstudio/repo/extract/toolchain_support_packages/risc-v/risc-v-gcc/10.1.0/bin/../lib/gcc/riscv64-unknown-elf/10.1.0/rv32im/ilp32\libgcc.a(getf2.o)
                                                  d:/program_files/programming/rt-threadstudio/repo/extract/toolchain_support_packages/risc-v/risc-v-gcc/10.1.0/bin/../lib/gcc/riscv64-unknown-elf/10.1.0/../../../../riscv64-unknown-elf/lib/rv32im/ilp32\libc.a(lib_a-svfprintf.o)
__heap_end                                        build\board\board.o
__heap_start                                      build\board\board.o
__hi0bits                                         d:/program_files/programming/rt-threadstudio/repo/extract/toolchain_support_packages/risc-v/risc-v-gcc/10.1.0/bin/../lib/gcc/riscv64-unknown-elf/10.1.0/../../../../riscv64-unknown-elf/lib/rv32im/ilp32\libc.a(lib_a-mprec.o)
__i2b                                             d:/program_files/programming/rt-threadstudio/repo/extract/toolchain_support_packages/risc-v/risc-v-gcc/10.1.0/bin/../lib/gcc/riscv64-unknown-elf/10.1.0/../../../../riscv64-unknown-elf/lib/rv32im/ilp32\libc.a(lib_a-mprec.o)
__irq_stack                                       libraries\hal_libraries\bmsis\source\startup.o
__irq_stack_size                                  libraries\hal_libraries\bmsis\source\startup.o
__irq_stack_start                                 libraries\hal_libraries\bmsis\source\startup.o
__lesf2                                           d:/program_files/programming/rt-threadstudio/repo/extract/toolchain_support_packages/risc-v/risc-v-gcc/10.1.0/bin/../lib/gcc/riscv64-unknown-elf/10.1.0/rv32im/ilp32\libgcc.a(lesf2.o)
__letf2                                           d:/program_files/programming/rt-threadstudio/repo/extract/toolchain_support_packages/risc-v/risc-v-gcc/10.1.0/bin/../lib/gcc/riscv64-unknown-elf/10.1.0/rv32im/ilp32\libgcc.a(letf2.o)
__libc_init_array                                 build\kernel\components\libc\compilers\newlib\syscalls.o
__lo0bits                                         d:/program_files/programming/rt-threadstudio/repo/extract/toolchain_support_packages/risc-v/risc-v-gcc/10.1.0/bin/../lib/gcc/riscv64-unknown-elf/10.1.0/../../../../riscv64-unknown-elf/lib/rv32im/ilp32\libc.a(lib_a-mprec.o)
__locale_mb_cur_max                               d:/program_files/programming/rt-threadstudio/repo/extract/toolchain_support_packages/risc-v/risc-v-gcc/10.1.0/bin/../lib/gcc/riscv64-unknown-elf/10.1.0/../../../../riscv64-unknown-elf/lib/rv32im/ilp32\libc.a(lib_a-locale.o)
                                                  d:/program_files/programming/rt-threadstudio/repo/extract/toolchain_support_packages/risc-v/risc-v-gcc/10.1.0/bin/../lib/gcc/riscv64-unknown-elf/10.1.0/../../../../riscv64-unknown-elf/lib/rv32im/ilp32\libc.a(lib_a-fputwc.o)
__localeconv_l                                    d:/program_files/programming/rt-threadstudio/repo/extract/toolchain_support_packages/risc-v/risc-v-gcc/10.1.0/bin/../lib/gcc/riscv64-unknown-elf/10.1.0/../../../../riscv64-unknown-elf/lib/rv32im/ilp32\libc.a(lib_a-localeconv.o)
__lowest_bit_bitmap                               build\kernel\src\kservice.o
__lshift                                          d:/program_files/programming/rt-threadstudio/repo/extract/toolchain_support_packages/risc-v/risc-v-gcc/10.1.0/bin/../lib/gcc/riscv64-unknown-elf/10.1.0/../../../../riscv64-unknown-elf/lib/rv32im/ilp32\libc.a(lib_a-mprec.o)
__ltsf2                                           d:/program_files/programming/rt-threadstudio/repo/extract/toolchain_support_packages/risc-v/risc-v-gcc/10.1.0/bin/../lib/gcc/riscv64-unknown-elf/10.1.0/rv32im/ilp32\libgcc.a(lesf2.o)
                                                  build\kernel\components\drivers\hwtimer\hwtimer.o
__lttf2                                           d:/program_files/programming/rt-threadstudio/repo/extract/toolchain_support_packages/risc-v/risc-v-gcc/10.1.0/bin/../lib/gcc/riscv64-unknown-elf/10.1.0/rv32im/ilp32\libgcc.a(letf2.o)
                                                  d:/program_files/programming/rt-threadstudio/repo/extract/toolchain_support_packages/risc-v/risc-v-gcc/10.1.0/bin/../lib/gcc/riscv64-unknown-elf/10.1.0/../../../../riscv64-unknown-elf/lib/rv32im/ilp32\libc.a(lib_a-svfprintf.o)
__mcmp                                            d:/program_files/programming/rt-threadstudio/repo/extract/toolchain_support_packages/risc-v/risc-v-gcc/10.1.0/bin/../lib/gcc/riscv64-unknown-elf/10.1.0/../../../../riscv64-unknown-elf/lib/rv32im/ilp32\libc.a(lib_a-mprec.o)
__mdiff                                           d:/program_files/programming/rt-threadstudio/repo/extract/toolchain_support_packages/risc-v/risc-v-gcc/10.1.0/bin/../lib/gcc/riscv64-unknown-elf/10.1.0/../../../../riscv64-unknown-elf/lib/rv32im/ilp32\libc.a(lib_a-mprec.o)
__mprec_bigtens                                   d:/program_files/programming/rt-threadstudio/repo/extract/toolchain_support_packages/risc-v/risc-v-gcc/10.1.0/bin/../lib/gcc/riscv64-unknown-elf/10.1.0/../../../../riscv64-unknown-elf/lib/rv32im/ilp32\libc.a(lib_a-mprec.o)
__mprec_tens                                      d:/program_files/programming/rt-threadstudio/repo/extract/toolchain_support_packages/risc-v/risc-v-gcc/10.1.0/bin/../lib/gcc/riscv64-unknown-elf/10.1.0/../../../../riscv64-unknown-elf/lib/rv32im/ilp32\libc.a(lib_a-mprec.o)
__mprec_tinytens                                  d:/program_files/programming/rt-threadstudio/repo/extract/toolchain_support_packages/risc-v/risc-v-gcc/10.1.0/bin/../lib/gcc/riscv64-unknown-elf/10.1.0/../../../../riscv64-unknown-elf/lib/rv32im/ilp32\libc.a(lib_a-mprec.o)
__muldf3                                          d:/program_files/programming/rt-threadstudio/repo/extract/toolchain_support_packages/risc-v/risc-v-gcc/10.1.0/bin/../lib/gcc/riscv64-unknown-elf/10.1.0/rv32im/ilp32\libgcc.a(muldf3.o)
                                                  d:/program_files/programming/rt-threadstudio/repo/extract/toolchain_support_packages/risc-v/risc-v-gcc/10.1.0/bin/../lib/gcc/riscv64-unknown-elf/10.1.0/../../../../riscv64-unknown-elf/lib/rv32im/ilp32\libc.a(lib_a-s_frexp.o)
                                                  d:/program_files/programming/rt-threadstudio/repo/extract/toolchain_support_packages/risc-v/risc-v-gcc/10.1.0/bin/../lib/gcc/riscv64-unknown-elf/10.1.0/../../../../riscv64-unknown-elf/lib/rv32im/ilp32\libc.a(lib_a-mprec.o)
                                                  build\kernel\components\drivers\misc\rt_drv_pwm.o
__mulsf3                                          d:/program_files/programming/rt-threadstudio/repo/extract/toolchain_support_packages/risc-v/risc-v-gcc/10.1.0/bin/../lib/gcc/riscv64-unknown-elf/10.1.0/rv32im/ilp32\libgcc.a(mulsf3.o)
                                                  build\kernel\components\drivers\hwtimer\hwtimer.o
__multadd                                         d:/program_files/programming/rt-threadstudio/repo/extract/toolchain_support_packages/risc-v/risc-v-gcc/10.1.0/bin/../lib/gcc/riscv64-unknown-elf/10.1.0/../../../../riscv64-unknown-elf/lib/rv32im/ilp32\libc.a(lib_a-mprec.o)
__multf3                                          d:/program_files/programming/rt-threadstudio/repo/extract/toolchain_support_packages/risc-v/risc-v-gcc/10.1.0/bin/../lib/gcc/riscv64-unknown-elf/10.1.0/rv32im/ilp32\libgcc.a(multf3.o)
                                                  d:/program_files/programming/rt-threadstudio/repo/extract/toolchain_support_packages/risc-v/risc-v-gcc/10.1.0/bin/../lib/gcc/riscv64-unknown-elf/10.1.0/../../../../riscv64-unknown-elf/lib/rv32im/ilp32\libc.a(lib_a-svfprintf.o)
__multiply                                        d:/program_files/programming/rt-threadstudio/repo/extract/toolchain_support_packages/risc-v/risc-v-gcc/10.1.0/bin/../lib/gcc/riscv64-unknown-elf/10.1.0/../../../../riscv64-unknown-elf/lib/rv32im/ilp32\libc.a(lib_a-mprec.o)
__nesf2                                           d:/program_files/programming/rt-threadstudio/repo/extract/toolchain_support_packages/risc-v/risc-v-gcc/10.1.0/bin/../lib/gcc/riscv64-unknown-elf/10.1.0/rv32im/ilp32\libgcc.a(eqsf2.o)
__netf2                                           d:/program_files/programming/rt-threadstudio/repo/extract/toolchain_support_packages/risc-v/risc-v-gcc/10.1.0/bin/../lib/gcc/riscv64-unknown-elf/10.1.0/rv32im/ilp32\libgcc.a(eqtf2.o)
                                                  d:/program_files/programming/rt-threadstudio/repo/extract/toolchain_support_packages/risc-v/risc-v-gcc/10.1.0/bin/../lib/gcc/riscv64-unknown-elf/10.1.0/../../../../riscv64-unknown-elf/lib/rv32im/ilp32\libc.a(lib_a-svfprintf.o)
__pow5mult                                        d:/program_files/programming/rt-threadstudio/repo/extract/toolchain_support_packages/risc-v/risc-v-gcc/10.1.0/bin/../lib/gcc/riscv64-unknown-elf/10.1.0/../../../../riscv64-unknown-elf/lib/rv32im/ilp32\libc.a(lib_a-mprec.o)
__ram1_lma                                        libraries\hal_libraries\bmsis\source\startup.o
__ram1_size                                       libraries\hal_libraries\bmsis\source\startup.o
__ram1_vma                                        libraries\hal_libraries\bmsis\source\startup.o
__ratio                                           d:/program_files/programming/rt-threadstudio/repo/extract/toolchain_support_packages/risc-v/risc-v-gcc/10.1.0/bin/../lib/gcc/riscv64-unknown-elf/10.1.0/../../../../riscv64-unknown-elf/lib/rv32im/ilp32\libc.a(lib_a-mprec.o)
__riscv_restore_0                                 libraries\hal_libraries\ab32vg1_hal\libhal.a(save-restore.o)
                                                  libraries\hal_libraries\ab32vg1_hal\libhal.a(debug.o)
                                                  libraries\hal_drivers\drv_usart.o
                                                  libraries\hal_drivers\drv_irrx.o
                                                  libraries\hal_drivers\drv_sdio.o
                                                  libraries\hal_drivers\drv_wdt.o
                                                  libraries\hal_drivers\drv_rtc.o
                                                  build\kernel\components\libc\compilers\newlib\libc.o
                                                  build\kernel\components\libc\compilers\common\time.o
                                                  build\kernel\components\finsh\finsh_init.o
                                                  build\kernel\components\finsh\msh.o
                                                  build\kernel\components\finsh\finsh_var.o
                                                  build\kernel\components\finsh\msh_file.o
                                                  build\kernel\components\finsh\cmd.o
                                                  build\kernel\components\finsh\finsh_parser.o
                                                  build\kernel\components\finsh\finsh_node.o
                                                  build\kernel\components\drivers\sdio\mmcsd_core.o
                                                  build\kernel\components\drivers\sdio\sdio.o
                                                  build\kernel\components\drivers\sdio\block_dev.o
                                                  build\kernel\components\drivers\rtc\rtc.o
                                                  build\kernel\components\drivers\misc\pin.o
                                                  build\kernel\components\drivers\misc\rt_drv_pwm.o
                                                  build\kernel\components\drivers\misc\adc.o
                                                  build\kernel\components\drivers\hwtimer\hwtimer.o
                                                  build\kernel\components\dfs\filesystems\elmfat\dfs_elm.o
                                                  build\kernel\components\dfs\filesystems\devfs\devfs.o
                                                  build\kernel\components\dfs\src\dfs_file.o
                                                  build\kernel\components\dfs\src\dfs_fs.o
                                                  build\kernel\components\dfs\src\dfs_posix.o
                                                  build\kernel\src\components.o
                                                  build\kernel\src\scheduler.o
                                                  build\kernel\src\mem.o
                                                  build\kernel\src\irq.o
                                                  build\kernel\src\thread.o
                                                  build\kernel\src\kservice.o
                                                  build\kernel\src\clock.o
                                                  build\board\ab32vg1_hal_msp.o
                                                  build\board\board.o
                                                  build\board\ports\audio\drv_sound.o
                                                  build\applications\mnt.o
__riscv_restore_1                                 libraries\hal_libraries\ab32vg1_hal\libhal.a(save-restore.o)
                                                  libraries\hal_libraries\ab32vg1_hal\libhal.a(spiflash.o)
                                                  libraries\hal_libraries\ab32vg1_hal\libhal.a(cache.o)
                                                  libraries\hal_libraries\ab32vg1_hal\source\ab32vg1_hal_uart.o
                                                  libraries\hal_libraries\ab32vg1_hal\source\ab32vg1_hal_sd.o
                                                  libraries\hal_drivers\drv_hwtimer.o
                                                  libraries\hal_drivers\drv_pwm.o
                                                  libraries\hal_drivers\drv_usart.o
                                                  libraries\hal_drivers\drv_irrx.o
                                                  libraries\hal_drivers\drv_adc.o
                                                  libraries\hal_drivers\drv_sdio.o
                                                  libraries\hal_drivers\drv_wdt.o
                                                  libraries\hal_drivers\drv_soft_i2c.o
                                                  libraries\hal_drivers\drv_rtc.o
                                                  libraries\hal_drivers\drv_gpio.o
                                                  build\kernel\components\libc\compilers\newlib\syscalls.o
                                                  build\kernel\components\libc\compilers\common\stdlib.o
                                                  build\kernel\components\libc\compilers\common\time.o
                                                  build\kernel\components\finsh\finsh_ops.o
                                                  build\kernel\components\finsh\finsh_heap.o
                                                  build\kernel\components\finsh\shell.o
                                                  build\kernel\components\finsh\msh_file.o
                                                  build\kernel\components\drivers\watchdog\watchdog.o
                                                  build\kernel\components\drivers\src\waitqueue.o
                                                  build\kernel\components\drivers\src\ringblk_buf.o
                                                  build\kernel\components\drivers\src\ringbuffer.o
                                                  build\kernel\components\drivers\src\completion.o
                                                  build\kernel\components\drivers\src\pipe.o
                                                  build\kernel\components\drivers\src\dataqueue.o
                                                  build\kernel\components\drivers\src\workqueue.o
                                                  build\kernel\components\drivers\serial\serial.o
                                                  build\kernel\components\drivers\sdio\mmcsd_core.o
                                                  build\kernel\components\drivers\sdio\sdio.o
                                                  build\kernel\components\drivers\sdio\sd.o
                                                  build\kernel\components\drivers\i2c\i2c-bit-ops.o
                                                  build\kernel\components\drivers\i2c\i2c_core.o
                                                  build\kernel\components\drivers\hwtimer\hwtimer.o
                                                  build\kernel\components\drivers\audio\audio_pipe.o
                                                  build\kernel\components\drivers\audio\audio.o
                                                  build\kernel\components\dfs\filesystems\elmfat\ff.o
                                                  build\kernel\components\dfs\filesystems\elmfat\dfs_elm.o
                                                  build\kernel\components\dfs\filesystems\devfs\devfs.o
                                                  build\kernel\components\dfs\src\dfs_file.o
                                                  build\kernel\components\dfs\src\dfs.o
                                                  build\kernel\components\dfs\src\dfs_fs.o
                                                  build\kernel\components\dfs\src\dfs_posix.o
                                                  build\kernel\src\components.o
                                                  build\kernel\src\scheduler.o
                                                  build\kernel\src\object.o
                                                  build\kernel\src\mem.o
                                                  build\kernel\src\device.o
                                                  build\kernel\src\timer.o
                                                  build\kernel\src\idle.o
                                                  build\kernel\src\irq.o
                                                  build\kernel\src\thread.o
                                                  build\kernel\src\kservice.o
                                                  build\kernel\src\ipc.o
                                                  build\kernel\src\clock.o
                                                  build\kernel\src\memheap.o
                                                  build\board\ports\audio\drv_sound.o
__riscv_restore_10                                libraries\hal_libraries\ab32vg1_hal\libhal.a(save-restore.o)
                                                  build\kernel\components\drivers\serial\serial.o
                                                  build\kernel\components\drivers\sdio\block_dev.o
                                                  build\kernel\components\drivers\hwtimer\hwtimer.o
                                                  build\kernel\components\dfs\filesystems\elmfat\ff.o
                                                  build\kernel\components\dfs\src\dfs_file.o
                                                  build\kernel\components\dfs\src\dfs.o
                                                  build\kernel\components\dfs\src\dfs_fs.o
                                                  build\kernel\src\timer.o
__riscv_restore_11                                libraries\hal_libraries\ab32vg1_hal\libhal.a(save-restore.o)
                                                  build\kernel\components\libc\compilers\common\time.o
                                                  build\kernel\components\finsh\finsh_token.o
                                                  build\kernel\components\finsh\finsh_parser.o
                                                  build\kernel\components\drivers\sdio\sdio.o
                                                  build\kernel\components\drivers\sdio\sd.o
                                                  build\kernel\components\dfs\filesystems\elmfat\ff.o
                                                  build\kernel\src\mempool.o
                                                  build\kernel\src\timer.o
                                                  build\kernel\src\kservice.o
__riscv_restore_12                                libraries\hal_libraries\ab32vg1_hal\libhal.a(save-restore.o)
                                                  libraries\hal_libraries\ab32vg1_hal\libhal.a(cache.o)
                                                  libraries\hal_drivers\drv_sdio.o
                                                  build\kernel\components\finsh\msh_file.o
                                                  build\kernel\components\finsh\cmd.o
                                                  build\kernel\components\drivers\src\dataqueue.o
                                                  build\kernel\components\drivers\sdio\sdio.o
                                                  build\kernel\components\drivers\sdio\mmc.o
                                                  build\kernel\components\drivers\i2c\i2c-bit-ops.o
                                                  build\kernel\components\dfs\filesystems\elmfat\ff.o
                                                  build\kernel\src\ipc.o
__riscv_restore_2                                 libraries\hal_libraries\ab32vg1_hal\libhal.a(save-restore.o)
                                                  libraries\hal_libraries\ab32vg1_hal\libhal.a(spiflash.o)
                                                  libraries\hal_libraries\ab32vg1_hal\libhal.a(cache.o)
                                                  libraries\hal_libraries\ab32vg1_hal\source\ab32vg1_hal_sd.o
                                                  libraries\hal_drivers\drv_hwtimer.o
                                                  libraries\hal_drivers\drv_usart.o
                                                  libraries\hal_drivers\drv_soft_i2c.o
                                                  libraries\hal_drivers\drv_rtc.o
                                                  libraries\hal_drivers\drv_gpio.o
                                                  build\kernel\components\libc\compilers\common\time.o
                                                  build\kernel\components\finsh\finsh_token.o
                                                  build\kernel\components\finsh\finsh_heap.o
                                                  build\kernel\components\finsh\finsh_compiler.o
                                                  build\kernel\components\finsh\shell.o
                                                  build\kernel\components\finsh\msh_file.o
                                                  build\kernel\components\finsh\cmd.o
                                                  build\kernel\components\finsh\finsh_parser.o
                                                  build\kernel\components\finsh\finsh_node.o
                                                  build\kernel\components\drivers\src\waitqueue.o
                                                  build\kernel\components\drivers\src\ringblk_buf.o
                                                  build\kernel\components\drivers\src\ringbuffer.o
                                                  build\kernel\components\drivers\src\pipe.o
                                                  build\kernel\components\drivers\src\dataqueue.o
                                                  build\kernel\components\drivers\src\workqueue.o
                                                  build\kernel\components\drivers\serial\serial.o
                                                  build\kernel\components\drivers\sdio\mmcsd_core.o
                                                  build\kernel\components\drivers\sdio\sdio.o
                                                  build\kernel\components\drivers\sdio\sd.o
                                                  build\kernel\components\drivers\misc\pin.o
                                                  build\kernel\components\drivers\misc\rt_drv_pwm.o
                                                  build\kernel\components\drivers\misc\adc.o
                                                  build\kernel\components\drivers\i2c\i2c-bit-ops.o
                                                  build\kernel\components\drivers\i2c\i2c_dev.o
                                                  build\kernel\components\drivers\i2c\i2c_core.o
                                                  build\kernel\components\drivers\hwtimer\hwtimer.o
                                                  build\kernel\components\drivers\audio\audio_pipe.o
                                                  build\kernel\components\drivers\audio\audio.o
                                                  build\kernel\components\dfs\filesystems\elmfat\ff.o
                                                  build\kernel\components\dfs\filesystems\elmfat\dfs_elm.o
                                                  build\kernel\components\dfs\filesystems\devfs\devfs.o
                                                  build\kernel\components\dfs\src\dfs_file.o
                                                  build\kernel\components\dfs\src\dfs.o
                                                  build\kernel\components\dfs\src\dfs_fs.o
                                                  build\kernel\components\dfs\src\dfs_posix.o
                                                  build\kernel\src\components.o
                                                  build\kernel\src\object.o
                                                  build\kernel\src\device.o
                                                  build\kernel\src\timer.o
                                                  build\kernel\src\thread.o
                                                  build\kernel\src\ipc.o
                                                  build\board\ab32vg1_hal_msp.o
                                                  build\board\ports\audio\drv_sound.o
__riscv_restore_3                                 libraries\hal_libraries\ab32vg1_hal\libhal.a(save-restore.o)
                                                  libraries\hal_libraries\ab32vg1_hal\libhal.a(ab32vg1_hal_adc.o)
                                                  libraries\hal_libraries\ab32vg1_hal\libhal.a(spiflash.o)
                                                  libcpu\cpu\cpuport.o
                                                  libraries\hal_drivers\drv_hwtimer.o
                                                  libraries\hal_drivers\drv_adc.o
                                                  libraries\hal_drivers\drv_sdio.o
                                                  libraries\hal_drivers\drv_rtc.o
                                                  build\kernel\components\libc\compilers\newlib\stdio.o
                                                  build\kernel\components\libc\compilers\common\time.o
                                                  build\kernel\components\finsh\finsh_var.o
                                                  build\kernel\components\finsh\shell.o
                                                  build\kernel\components\finsh\msh_file.o
                                                  build\kernel\components\finsh\finsh_vm.o
                                                  build\kernel\components\finsh\finsh_parser.o
                                                  build\kernel\components\finsh\finsh_node.o
                                                  build\kernel\components\drivers\watchdog\watchdog.o
                                                  build\kernel\components\drivers\src\ringbuffer.o
                                                  build\kernel\components\drivers\src\completion.o
                                                  build\kernel\components\drivers\src\pipe.o
                                                  build\kernel\components\drivers\src\workqueue.o
                                                  build\kernel\components\drivers\serial\serial.o
                                                  build\kernel\components\drivers\sdio\mmcsd_core.o
                                                  build\kernel\components\drivers\sdio\sdio.o
                                                  build\kernel\components\drivers\sdio\block_dev.o
                                                  build\kernel\components\drivers\rtc\rtc.o
                                                  build\kernel\components\drivers\misc\pin.o
                                                  build\kernel\components\drivers\misc\rt_drv_pwm.o
                                                  build\kernel\components\drivers\i2c\i2c_dev.o
                                                  build\kernel\components\drivers\i2c\i2c_core.o
                                                  build\kernel\components\drivers\hwtimer\hwtimer.o
                                                  build\kernel\components\drivers\audio\audio.o
                                                  build\kernel\components\dfs\filesystems\elmfat\ff.o
                                                  build\kernel\components\dfs\filesystems\elmfat\dfs_elm.o
                                                  build\kernel\components\dfs\filesystems\devfs\devfs.o
                                                  build\kernel\components\dfs\src\dfs_file.o
                                                  build\kernel\components\dfs\src\dfs.o
                                                  build\kernel\components\dfs\src\dfs_fs.o
                                                  build\kernel\components\dfs\src\dfs_posix.o
                                                  build\kernel\src\mem.o
                                                  build\kernel\src\device.o
                                                  build\kernel\src\timer.o
                                                  build\kernel\src\idle.o
                                                  build\kernel\src\thread.o
                                                  build\kernel\src\kservice.o
                                                  build\kernel\src\ipc.o
                                                  build\kernel\src\memheap.o
                                                  build\board\ports\audio\drv_sound.o
__riscv_restore_4                                 libraries\hal_libraries\ab32vg1_hal\libhal.a(save-restore.o)
                                                  libraries\hal_libraries\ab32vg1_hal\source\ab32vg1_hal_sd.o
                                                  libcpu\cpu\interrupt.o
                                                  libraries\hal_drivers\drv_hwtimer.o
                                                  libraries\hal_drivers\drv_rtc.o
                                                  build\kernel\components\libc\compilers\common\time.o
                                                  build\kernel\components\finsh\finsh_token.o
                                                  build\kernel\components\finsh\finsh_heap.o
                                                  build\kernel\components\finsh\finsh_compiler.o
                                                  build\kernel\components\finsh\finsh_var.o
                                                  build\kernel\components\finsh\finsh_vm.o
                                                  build\kernel\components\finsh\cmd.o
                                                  build\kernel\components\finsh\finsh_parser.o
                                                  build\kernel\components\drivers\watchdog\watchdog.o
                                                  build\kernel\components\drivers\src\ringblk_buf.o
                                                  build\kernel\components\drivers\src\dataqueue.o
                                                  build\kernel\components\drivers\src\workqueue.o
                                                  build\kernel\components\drivers\serial\serial.o
                                                  build\kernel\components\drivers\sdio\sdio.o
                                                  build\kernel\components\drivers\sdio\sd.o
                                                  build\kernel\components\drivers\sdio\mmc.o
                                                  build\kernel\components\drivers\misc\pin.o
                                                  build\kernel\components\drivers\misc\rt_drv_pwm.o
                                                  build\kernel\components\drivers\misc\adc.o
                                                  build\kernel\components\drivers\i2c\i2c-bit-ops.o
                                                  build\kernel\components\drivers\i2c\i2c_dev.o
                                                  build\kernel\components\drivers\audio\audio_pipe.o
                                                  build\kernel\components\drivers\audio\audio.o
                                                  build\kernel\components\dfs\filesystems\elmfat\ff.o
                                                  build\kernel\components\dfs\filesystems\elmfat\dfs_elm.o
                                                  build\kernel\components\dfs\filesystems\devfs\devfs.o
                                                  build\kernel\components\dfs\src\dfs_file.o
                                                  build\kernel\components\dfs\src\dfs.o
                                                  build\kernel\components\dfs\src\dfs_fs.o
                                                  build\kernel\components\dfs\src\dfs_posix.o
                                                  build\kernel\src\object.o
                                                  build\kernel\src\mem.o
                                                  build\kernel\src\device.o
                                                  build\kernel\src\mempool.o
                                                  build\kernel\src\timer.o
                                                  build\kernel\src\thread.o
                                                  build\kernel\src\ipc.o
                                                  build\kernel\src\memheap.o
__riscv_restore_5                                 libraries\hal_libraries\ab32vg1_hal\libhal.a(save-restore.o)
                                                  libraries\hal_libraries\ab32vg1_hal\source\ab32vg1_hal_sd.o
                                                  libraries\hal_drivers\drv_usart.o
                                                  libraries\hal_drivers\drv_sdio.o
                                                  build\kernel\components\finsh\finsh_token.o
                                                  build\kernel\components\finsh\msh.o
                                                  build\kernel\components\finsh\cmd.o
                                                  build\kernel\components\finsh\finsh_parser.o
                                                  build\kernel\components\drivers\src\waitqueue.o
                                                  build\kernel\components\drivers\src\ringblk_buf.o
                                                  build\kernel\components\drivers\src\ringbuffer.o
                                                  build\kernel\components\drivers\src\completion.o
                                                  build\kernel\components\drivers\src\pipe.o
                                                  build\kernel\components\drivers\sdio\mmcsd_core.o
                                                  build\kernel\components\drivers\sdio\sdio.o
                                                  build\kernel\components\drivers\sdio\block_dev.o
                                                  build\kernel\components\drivers\sdio\mmc.o
                                                  build\kernel\components\drivers\misc\adc.o
                                                  build\kernel\components\drivers\i2c\i2c_core.o
                                                  build\kernel\components\drivers\audio\audio_pipe.o
                                                  build\kernel\components\dfs\filesystems\elmfat\ff.o
                                                  build\kernel\components\dfs\filesystems\devfs\devfs.o
                                                  build\kernel\components\dfs\src\dfs_file.o
                                                  build\kernel\src\scheduler.o
                                                  build\kernel\src\mem.o
                                                  build\kernel\src\mempool.o
                                                  build\kernel\src\thread.o
                                                  build\kernel\src\kservice.o
                                                  build\kernel\src\ipc.o
__riscv_restore_6                                 libraries\hal_libraries\ab32vg1_hal\libhal.a(save-restore.o)
                                                  libraries\hal_libraries\bmsis\source\system_ab32vgx.o
                                                  libraries\hal_libraries\ab32vg1_hal\source\ab32vg1_hal_gpio.o
                                                  build\kernel\components\finsh\msh.o
                                                  build\kernel\components\finsh\cmd.o
                                                  build\kernel\components\finsh\finsh_parser.o
                                                  build\kernel\components\drivers\src\ringbuffer.o
                                                  build\kernel\components\drivers\sdio\sd.o
                                                  build\kernel\components\drivers\misc\adc.o
                                                  build\kernel\components\drivers\i2c\i2c-bit-ops.o
                                                  build\kernel\components\drivers\hwtimer\hwtimer.o
                                                  build\kernel\components\dfs\filesystems\elmfat\ff.o
                                                  build\kernel\components\dfs\filesystems\elmfat\dfs_elm.o
                                                  build\kernel\src\timer.o
                                                  build\kernel\src\thread.o
                                                  build\kernel\src\ipc.o
                                                  build\applications\mnt.o
__riscv_restore_7                                 libraries\hal_libraries\ab32vg1_hal\libhal.a(save-restore.o)
                                                  libraries\hal_drivers\drv_pwm.o
                                                  build\kernel\components\finsh\msh.o
                                                  build\kernel\components\finsh\msh_file.o
                                                  build\kernel\components\drivers\serial\serial.o
                                                  build\kernel\components\drivers\sdio\sdio.o
                                                  build\kernel\components\drivers\rtc\rtc.o
                                                  build\kernel\components\dfs\filesystems\elmfat\ff.o
                                                  build\kernel\components\dfs\filesystems\devfs\devfs.o
                                                  build\kernel\components\dfs\src\dfs.o
                                                  build\kernel\src\memheap.o
__riscv_restore_8                                 libraries\hal_libraries\ab32vg1_hal\libhal.a(save-restore.o)
                                                  build\kernel\components\finsh\msh.o
                                                  build\kernel\components\finsh\finsh_var.o
                                                  build\kernel\components\finsh\cmd.o
                                                  build\kernel\components\finsh\finsh_parser.o
                                                  build\kernel\components\drivers\sdio\sdio.o
                                                  build\kernel\components\drivers\sdio\block_dev.o
                                                  build\kernel\components\drivers\audio\audio.o
                                                  build\kernel\components\dfs\filesystems\elmfat\ff.o
                                                  build\kernel\src\object.o
                                                  build\kernel\src\thread.o
                                                  build\kernel\src\memheap.o
__riscv_restore_9                                 libraries\hal_libraries\ab32vg1_hal\libhal.a(save-restore.o)
                                                  libraries\hal_libraries\ab32vg1_hal\source\ab32vg1_hal_sd.o
                                                  build\kernel\components\finsh\finsh_compiler.o
                                                  build\kernel\components\finsh\cmd.o
                                                  build\kernel\components\finsh\finsh_parser.o
                                                  build\kernel\components\drivers\sdio\sdio.o
                                                  build\kernel\components\drivers\sdio\block_dev.o
                                                  build\kernel\components\drivers\audio\audio_pipe.o
                                                  build\kernel\components\drivers\audio\audio.o
                                                  build\kernel\components\dfs\filesystems\elmfat\ff.o
                                                  build\kernel\components\dfs\src\dfs_file.o
                                                  build\kernel\components\dfs\src\dfs_fs.o
__riscv_save_0                                    libraries\hal_libraries\ab32vg1_hal\libhal.a(save-restore.o)
                                                  libraries\hal_libraries\ab32vg1_hal\libhal.a(debug.o)
                                                  libraries\hal_drivers\drv_usart.o
                                                  libraries\hal_drivers\drv_irrx.o
                                                  libraries\hal_drivers\drv_sdio.o
                                                  libraries\hal_drivers\drv_wdt.o
                                                  libraries\hal_drivers\drv_rtc.o
                                                  build\kernel\components\libc\compilers\newlib\syscalls.o
                                                  build\kernel\components\libc\compilers\newlib\libc.o
                                                  build\kernel\components\libc\compilers\common\time.o
                                                  build\kernel\components\finsh\finsh_init.o
                                                  build\kernel\components\finsh\msh.o
                                                  build\kernel\components\finsh\finsh_var.o
                                                  build\kernel\components\finsh\msh_file.o
                                                  build\kernel\components\finsh\cmd.o
                                                  build\kernel\components\finsh\finsh_parser.o
                                                  build\kernel\components\finsh\finsh_node.o
                                                  build\kernel\components\drivers\sdio\mmcsd_core.o
                                                  build\kernel\components\drivers\sdio\sdio.o
                                                  build\kernel\components\drivers\sdio\block_dev.o
                                                  build\kernel\components\drivers\rtc\rtc.o
                                                  build\kernel\components\drivers\misc\pin.o
                                                  build\kernel\components\drivers\misc\rt_drv_pwm.o
                                                  build\kernel\components\drivers\misc\adc.o
                                                  build\kernel\components\drivers\hwtimer\hwtimer.o
                                                  build\kernel\components\dfs\filesystems\elmfat\dfs_elm.o
                                                  build\kernel\components\dfs\filesystems\devfs\devfs.o
                                                  build\kernel\components\dfs\src\dfs_file.o
                                                  build\kernel\components\dfs\src\dfs_fs.o
                                                  build\kernel\components\dfs\src\dfs_posix.o
                                                  build\kernel\src\components.o
                                                  build\kernel\src\scheduler.o
                                                  build\kernel\src\mem.o
                                                  build\kernel\src\irq.o
                                                  build\kernel\src\thread.o
                                                  build\kernel\src\kservice.o
                                                  build\kernel\src\clock.o
                                                  build\board\ab32vg1_hal_msp.o
                                                  build\board\board.o
                                                  build\board\ports\audio\drv_sound.o
                                                  build\applications\mnt.o
__riscv_save_1                                    libraries\hal_libraries\ab32vg1_hal\libhal.a(save-restore.o)
                                                  libraries\hal_libraries\ab32vg1_hal\libhal.a(spiflash.o)
                                                  libraries\hal_libraries\ab32vg1_hal\libhal.a(cache.o)
                                                  libraries\hal_libraries\ab32vg1_hal\source\ab32vg1_hal_uart.o
                                                  libraries\hal_libraries\ab32vg1_hal\source\ab32vg1_hal_sd.o
                                                  libraries\hal_drivers\drv_hwtimer.o
                                                  libraries\hal_drivers\drv_pwm.o
                                                  libraries\hal_drivers\drv_usart.o
                                                  libraries\hal_drivers\drv_irrx.o
                                                  libraries\hal_drivers\drv_adc.o
                                                  libraries\hal_drivers\drv_sdio.o
                                                  libraries\hal_drivers\drv_wdt.o
                                                  libraries\hal_drivers\drv_soft_i2c.o
                                                  libraries\hal_drivers\drv_rtc.o
                                                  libraries\hal_drivers\drv_gpio.o
                                                  build\kernel\components\libc\compilers\newlib\syscalls.o
                                                  build\kernel\components\libc\compilers\common\stdlib.o
                                                  build\kernel\components\libc\compilers\common\time.o
                                                  build\kernel\components\finsh\finsh_ops.o
                                                  build\kernel\components\finsh\finsh_heap.o
                                                  build\kernel\components\finsh\shell.o
                                                  build\kernel\components\finsh\msh_file.o
                                                  build\kernel\components\drivers\watchdog\watchdog.o
                                                  build\kernel\components\drivers\src\waitqueue.o
                                                  build\kernel\components\drivers\src\ringblk_buf.o
                                                  build\kernel\components\drivers\src\ringbuffer.o
                                                  build\kernel\components\drivers\src\completion.o
                                                  build\kernel\components\drivers\src\pipe.o
                                                  build\kernel\components\drivers\src\dataqueue.o
                                                  build\kernel\components\drivers\src\workqueue.o
                                                  build\kernel\components\drivers\serial\serial.o
                                                  build\kernel\components\drivers\sdio\mmcsd_core.o
                                                  build\kernel\components\drivers\sdio\sdio.o
                                                  build\kernel\components\drivers\sdio\sd.o
                                                  build\kernel\components\drivers\i2c\i2c-bit-ops.o
                                                  build\kernel\components\drivers\i2c\i2c_core.o
                                                  build\kernel\components\drivers\hwtimer\hwtimer.o
                                                  build\kernel\components\drivers\audio\audio_pipe.o
                                                  build\kernel\components\drivers\audio\audio.o
                                                  build\kernel\components\dfs\filesystems\elmfat\ff.o
                                                  build\kernel\components\dfs\filesystems\elmfat\dfs_elm.o
                                                  build\kernel\components\dfs\filesystems\devfs\devfs.o
                                                  build\kernel\components\dfs\src\dfs_file.o
                                                  build\kernel\components\dfs\src\dfs.o
                                                  build\kernel\components\dfs\src\dfs_fs.o
                                                  build\kernel\components\dfs\src\dfs_posix.o
                                                  build\kernel\src\components.o
                                                  build\kernel\src\scheduler.o
                                                  build\kernel\src\object.o
                                                  build\kernel\src\mem.o
                                                  build\kernel\src\device.o
                                                  build\kernel\src\timer.o
                                                  build\kernel\src\idle.o
                                                  build\kernel\src\irq.o
                                                  build\kernel\src\thread.o
                                                  build\kernel\src\kservice.o
                                                  build\kernel\src\ipc.o
                                                  build\kernel\src\clock.o
                                                  build\kernel\src\memheap.o
                                                  build\board\ports\audio\drv_sound.o
                                                  build\applications\main.o
__riscv_save_10                                   libraries\hal_libraries\ab32vg1_hal\libhal.a(save-restore.o)
                                                  build\kernel\components\drivers\serial\serial.o
                                                  build\kernel\components\drivers\sdio\block_dev.o
                                                  build\kernel\components\drivers\hwtimer\hwtimer.o
                                                  build\kernel\components\dfs\filesystems\elmfat\ff.o
                                                  build\kernel\components\dfs\src\dfs_file.o
                                                  build\kernel\components\dfs\src\dfs.o
                                                  build\kernel\components\dfs\src\dfs_fs.o
                                                  build\kernel\src\timer.o
__riscv_save_11                                   libraries\hal_libraries\ab32vg1_hal\libhal.a(save-restore.o)
                                                  build\kernel\components\libc\compilers\common\time.o
                                                  build\kernel\components\finsh\finsh_token.o
                                                  build\kernel\components\finsh\finsh_parser.o
                                                  build\kernel\components\drivers\sdio\sdio.o
                                                  build\kernel\components\drivers\sdio\sd.o
                                                  build\kernel\components\dfs\filesystems\elmfat\ff.o
                                                  build\kernel\src\mempool.o
                                                  build\kernel\src\timer.o
                                                  build\kernel\src\kservice.o
__riscv_save_12                                   libraries\hal_libraries\ab32vg1_hal\libhal.a(save-restore.o)
                                                  libraries\hal_libraries\ab32vg1_hal\libhal.a(cache.o)
                                                  libraries\hal_drivers\drv_sdio.o
                                                  build\kernel\components\finsh\shell.o
                                                  build\kernel\components\finsh\msh_file.o
                                                  build\kernel\components\finsh\cmd.o
                                                  build\kernel\components\drivers\src\dataqueue.o
                                                  build\kernel\components\drivers\sdio\sdio.o
                                                  build\kernel\components\drivers\sdio\mmc.o
                                                  build\kernel\components\drivers\i2c\i2c-bit-ops.o
                                                  build\kernel\components\dfs\filesystems\elmfat\ff.o
                                                  build\kernel\src\ipc.o
__riscv_save_2                                    libraries\hal_libraries\ab32vg1_hal\libhal.a(save-restore.o)
                                                  libraries\hal_libraries\ab32vg1_hal\libhal.a(spiflash.o)
                                                  libraries\hal_libraries\ab32vg1_hal\libhal.a(cache.o)
                                                  libraries\hal_libraries\ab32vg1_hal\source\ab32vg1_hal_sd.o
                                                  libraries\hal_drivers\drv_hwtimer.o
                                                  libraries\hal_drivers\drv_usart.o
                                                  libraries\hal_drivers\drv_soft_i2c.o
                                                  libraries\hal_drivers\drv_rtc.o
                                                  libraries\hal_drivers\drv_gpio.o
                                                  build\kernel\components\libc\compilers\common\time.o
                                                  build\kernel\components\finsh\finsh_token.o
                                                  build\kernel\components\finsh\finsh_heap.o
                                                  build\kernel\components\finsh\finsh_compiler.o
                                                  build\kernel\components\finsh\shell.o
                                                  build\kernel\components\finsh\msh_file.o
                                                  build\kernel\components\finsh\cmd.o
                                                  build\kernel\components\finsh\finsh_parser.o
                                                  build\kernel\components\finsh\finsh_node.o
                                                  build\kernel\components\drivers\src\waitqueue.o
                                                  build\kernel\components\drivers\src\ringblk_buf.o
                                                  build\kernel\components\drivers\src\ringbuffer.o
                                                  build\kernel\components\drivers\src\pipe.o
                                                  build\kernel\components\drivers\src\dataqueue.o
                                                  build\kernel\components\drivers\src\workqueue.o
                                                  build\kernel\components\drivers\serial\serial.o
                                                  build\kernel\components\drivers\sdio\mmcsd_core.o
                                                  build\kernel\components\drivers\sdio\sdio.o
                                                  build\kernel\components\drivers\sdio\sd.o
                                                  build\kernel\components\drivers\misc\pin.o
                                                  build\kernel\components\drivers\misc\rt_drv_pwm.o
                                                  build\kernel\components\drivers\misc\adc.o
                                                  build\kernel\components\drivers\i2c\i2c-bit-ops.o
                                                  build\kernel\components\drivers\i2c\i2c_dev.o
                                                  build\kernel\components\drivers\i2c\i2c_core.o
                                                  build\kernel\components\drivers\hwtimer\hwtimer.o
                                                  build\kernel\components\drivers\audio\audio_pipe.o
                                                  build\kernel\components\drivers\audio\audio.o
                                                  build\kernel\components\dfs\filesystems\elmfat\ff.o
                                                  build\kernel\components\dfs\filesystems\elmfat\dfs_elm.o
                                                  build\kernel\components\dfs\filesystems\devfs\devfs.o
                                                  build\kernel\components\dfs\src\dfs_file.o
                                                  build\kernel\components\dfs\src\dfs.o
                                                  build\kernel\components\dfs\src\dfs_fs.o
                                                  build\kernel\components\dfs\src\dfs_posix.o
                                                  build\kernel\src\components.o
                                                  build\kernel\src\object.o
                                                  build\kernel\src\device.o
                                                  build\kernel\src\timer.o
                                                  build\kernel\src\idle.o
                                                  build\kernel\src\thread.o
                                                  build\kernel\src\ipc.o
                                                  build\board\ab32vg1_hal_msp.o
                                                  build\board\ports\audio\drv_sound.o
__riscv_save_3                                    libraries\hal_libraries\ab32vg1_hal\libhal.a(save-restore.o)
                                                  libraries\hal_libraries\ab32vg1_hal\libhal.a(ab32vg1_hal_adc.o)
                                                  libraries\hal_libraries\ab32vg1_hal\libhal.a(spiflash.o)
                                                  libcpu\cpu\cpuport.o
                                                  libraries\hal_drivers\drv_hwtimer.o
                                                  libraries\hal_drivers\drv_adc.o
                                                  libraries\hal_drivers\drv_sdio.o
                                                  libraries\hal_drivers\drv_rtc.o
                                                  build\kernel\components\libc\compilers\newlib\stdio.o
                                                  build\kernel\components\libc\compilers\common\time.o
                                                  build\kernel\components\finsh\finsh_var.o
                                                  build\kernel\components\finsh\shell.o
                                                  build\kernel\components\finsh\msh_file.o
                                                  build\kernel\components\finsh\finsh_vm.o
                                                  build\kernel\components\finsh\finsh_parser.o
                                                  build\kernel\components\finsh\finsh_node.o
                                                  build\kernel\components\drivers\watchdog\watchdog.o
                                                  build\kernel\components\drivers\src\ringbuffer.o
                                                  build\kernel\components\drivers\src\completion.o
                                                  build\kernel\components\drivers\src\pipe.o
                                                  build\kernel\components\drivers\src\workqueue.o
                                                  build\kernel\components\drivers\serial\serial.o
                                                  build\kernel\components\drivers\sdio\mmcsd_core.o
                                                  build\kernel\components\drivers\sdio\sdio.o
                                                  build\kernel\components\drivers\sdio\block_dev.o
                                                  build\kernel\components\drivers\rtc\rtc.o
                                                  build\kernel\components\drivers\misc\pin.o
                                                  build\kernel\components\drivers\misc\rt_drv_pwm.o
                                                  build\kernel\components\drivers\i2c\i2c_dev.o
                                                  build\kernel\components\drivers\i2c\i2c_core.o
                                                  build\kernel\components\drivers\hwtimer\hwtimer.o
                                                  build\kernel\components\drivers\audio\audio.o
                                                  build\kernel\components\dfs\filesystems\elmfat\ff.o
                                                  build\kernel\components\dfs\filesystems\elmfat\dfs_elm.o
                                                  build\kernel\components\dfs\filesystems\devfs\devfs.o
                                                  build\kernel\components\dfs\src\dfs_file.o
                                                  build\kernel\components\dfs\src\dfs.o
                                                  build\kernel\components\dfs\src\dfs_fs.o
                                                  build\kernel\components\dfs\src\dfs_posix.o
                                                  build\kernel\src\mem.o
                                                  build\kernel\src\device.o
                                                  build\kernel\src\timer.o
                                                  build\kernel\src\idle.o
                                                  build\kernel\src\thread.o
                                                  build\kernel\src\kservice.o
                                                  build\kernel\src\ipc.o
                                                  build\kernel\src\memheap.o
                                                  build\board\ports\audio\drv_sound.o
__riscv_save_4                                    libraries\hal_libraries\ab32vg1_hal\libhal.a(save-restore.o)
                                                  libraries\hal_libraries\ab32vg1_hal\source\ab32vg1_hal_sd.o
                                                  libcpu\cpu\interrupt.o
                                                  libraries\hal_drivers\drv_hwtimer.o
                                                  libraries\hal_drivers\drv_rtc.o
                                                  build\kernel\components\libc\compilers\common\time.o
                                                  build\kernel\components\finsh\finsh_token.o
                                                  build\kernel\components\finsh\finsh_heap.o
                                                  build\kernel\components\finsh\finsh_compiler.o
                                                  build\kernel\components\finsh\finsh_var.o
                                                  build\kernel\components\finsh\finsh_vm.o
                                                  build\kernel\components\finsh\cmd.o
                                                  build\kernel\components\finsh\finsh_parser.o
                                                  build\kernel\components\drivers\watchdog\watchdog.o
                                                  build\kernel\components\drivers\src\ringblk_buf.o
                                                  build\kernel\components\drivers\src\dataqueue.o
                                                  build\kernel\components\drivers\src\workqueue.o
                                                  build\kernel\components\drivers\serial\serial.o
                                                  build\kernel\components\drivers\sdio\sdio.o
                                                  build\kernel\components\drivers\sdio\sd.o
                                                  build\kernel\components\drivers\sdio\mmc.o
                                                  build\kernel\components\drivers\misc\pin.o
                                                  build\kernel\components\drivers\misc\rt_drv_pwm.o
                                                  build\kernel\components\drivers\misc\adc.o
                                                  build\kernel\components\drivers\i2c\i2c-bit-ops.o
                                                  build\kernel\components\drivers\i2c\i2c_dev.o
                                                  build\kernel\components\drivers\audio\audio_pipe.o
                                                  build\kernel\components\drivers\audio\audio.o
                                                  build\kernel\components\dfs\filesystems\elmfat\ff.o
                                                  build\kernel\components\dfs\filesystems\elmfat\dfs_elm.o
                                                  build\kernel\components\dfs\filesystems\devfs\devfs.o
                                                  build\kernel\components\dfs\src\dfs_file.o
                                                  build\kernel\components\dfs\src\dfs.o
                                                  build\kernel\components\dfs\src\dfs_fs.o
                                                  build\kernel\components\dfs\src\dfs_posix.o
                                                  build\kernel\src\object.o
                                                  build\kernel\src\mem.o
                                                  build\kernel\src\device.o
                                                  build\kernel\src\mempool.o
                                                  build\kernel\src\timer.o
                                                  build\kernel\src\thread.o
                                                  build\kernel\src\ipc.o
                                                  build\kernel\src\memheap.o
__riscv_save_5                                    libraries\hal_libraries\ab32vg1_hal\libhal.a(save-restore.o)
                                                  libraries\hal_libraries\ab32vg1_hal\source\ab32vg1_hal_sd.o
                                                  libraries\hal_drivers\drv_usart.o
                                                  libraries\hal_drivers\drv_sdio.o
                                                  build\kernel\components\finsh\finsh_token.o
                                                  build\kernel\components\finsh\msh.o
                                                  build\kernel\components\finsh\cmd.o
                                                  build\kernel\components\finsh\finsh_parser.o
                                                  build\kernel\components\drivers\src\waitqueue.o
                                                  build\kernel\components\drivers\src\ringblk_buf.o
                                                  build\kernel\components\drivers\src\ringbuffer.o
                                                  build\kernel\components\drivers\src\completion.o
                                                  build\kernel\components\drivers\src\pipe.o
                                                  build\kernel\components\drivers\src\workqueue.o
                                                  build\kernel\components\drivers\sdio\mmcsd_core.o
                                                  build\kernel\components\drivers\sdio\sdio.o
                                                  build\kernel\components\drivers\sdio\block_dev.o
                                                  build\kernel\components\drivers\sdio\mmc.o
                                                  build\kernel\components\drivers\misc\adc.o
                                                  build\kernel\components\drivers\i2c\i2c_core.o
                                                  build\kernel\components\drivers\audio\audio_pipe.o
                                                  build\kernel\components\dfs\filesystems\elmfat\ff.o
                                                  build\kernel\components\dfs\filesystems\devfs\devfs.o
                                                  build\kernel\components\dfs\src\dfs_file.o
                                                  build\kernel\src\scheduler.o
                                                  build\kernel\src\mem.o
                                                  build\kernel\src\mempool.o
                                                  build\kernel\src\thread.o
                                                  build\kernel\src\kservice.o
                                                  build\kernel\src\ipc.o
__riscv_save_6                                    libraries\hal_libraries\ab32vg1_hal\libhal.a(save-restore.o)
                                                  libraries\hal_libraries\bmsis\source\system_ab32vgx.o
                                                  libraries\hal_libraries\ab32vg1_hal\source\ab32vg1_hal_gpio.o
                                                  build\kernel\components\finsh\msh.o
                                                  build\kernel\components\finsh\cmd.o
                                                  build\kernel\components\finsh\finsh_parser.o
                                                  build\kernel\components\drivers\src\ringbuffer.o
                                                  build\kernel\components\drivers\sdio\sdio.o
                                                  build\kernel\components\drivers\sdio\sd.o
                                                  build\kernel\components\drivers\misc\adc.o
                                                  build\kernel\components\drivers\i2c\i2c-bit-ops.o
                                                  build\kernel\components\drivers\hwtimer\hwtimer.o
                                                  build\kernel\components\dfs\filesystems\elmfat\ff.o
                                                  build\kernel\components\dfs\filesystems\elmfat\dfs_elm.o
                                                  build\kernel\src\timer.o
                                                  build\kernel\src\thread.o
                                                  build\kernel\src\ipc.o
                                                  build\applications\mnt.o
__riscv_save_7                                    libraries\hal_libraries\ab32vg1_hal\libhal.a(save-restore.o)
                                                  libraries\hal_drivers\drv_pwm.o
                                                  build\kernel\components\finsh\msh.o
                                                  build\kernel\components\finsh\msh_file.o
                                                  build\kernel\components\drivers\serial\serial.o
                                                  build\kernel\components\drivers\sdio\mmcsd_core.o
                                                  build\kernel\components\drivers\sdio\sdio.o
                                                  build\kernel\components\drivers\rtc\rtc.o
                                                  build\kernel\components\dfs\filesystems\elmfat\ff.o
                                                  build\kernel\components\dfs\filesystems\devfs\devfs.o
                                                  build\kernel\components\dfs\src\dfs.o
                                                  build\kernel\src\memheap.o
__riscv_save_8                                    libraries\hal_libraries\ab32vg1_hal\libhal.a(save-restore.o)
                                                  build\kernel\components\finsh\msh.o
                                                  build\kernel\components\finsh\finsh_var.o
                                                  build\kernel\components\finsh\cmd.o
                                                  build\kernel\components\finsh\finsh_parser.o
                                                  build\kernel\components\drivers\sdio\sdio.o
                                                  build\kernel\components\drivers\sdio\block_dev.o
                                                  build\kernel\components\drivers\audio\audio.o
                                                  build\kernel\components\dfs\filesystems\elmfat\ff.o
                                                  build\kernel\src\object.o
                                                  build\kernel\src\thread.o
                                                  build\kernel\src\memheap.o
__riscv_save_9                                    libraries\hal_libraries\ab32vg1_hal\libhal.a(save-restore.o)
                                                  libraries\hal_libraries\ab32vg1_hal\source\ab32vg1_hal_sd.o
                                                  build\kernel\components\finsh\finsh_compiler.o
                                                  build\kernel\components\finsh\cmd.o
                                                  build\kernel\components\finsh\finsh_parser.o
                                                  build\kernel\components\drivers\sdio\sdio.o
                                                  build\kernel\components\drivers\sdio\block_dev.o
                                                  build\kernel\components\drivers\audio\audio_pipe.o
                                                  build\kernel\components\drivers\audio\audio.o
                                                  build\kernel\components\dfs\filesystems\elmfat\ff.o
                                                  build\kernel\components\dfs\src\dfs_file.o
                                                  build\kernel\components\dfs\src\dfs_fs.o
__rt_ffs                                          build\kernel\src\kservice.o
                                                  build\kernel\components\drivers\sdio\mmcsd_core.o
                                                  build\kernel\src\scheduler.o
__rt_init_ab32_adc_init                           libraries\hal_drivers\drv_adc.o
__rt_init_ab32_hwtimer_init                       libraries\hal_drivers\drv_hwtimer.o
__rt_init_ab32_irrx_init                          libraries\hal_drivers\drv_irrx.o
__rt_init_ab32_pwm_init                           libraries\hal_drivers\drv_pwm.o
__rt_init_ab32_sdcard_mount                       build\applications\mnt.o
__rt_init_dfs_init                                build\kernel\components\dfs\src\dfs.o
__rt_init_elm_init                                build\kernel\components\dfs\filesystems\elmfat\dfs_elm.o
__rt_init_finsh_system_init                       build\kernel\components\finsh\shell.o
__rt_init_libc_system_init                        build\kernel\components\libc\compilers\newlib\libc.o
__rt_init_rt_hw_i2c_init                          libraries\hal_drivers\drv_soft_i2c.o
__rt_init_rt_hw_rtc_init                          libraries\hal_drivers\drv_rtc.o
__rt_init_rt_hw_sdio_init                         libraries\hal_drivers\drv_sdio.o
__rt_init_rt_hw_sound_init                        build\board\ports\audio\drv_sound.o
__rt_init_rt_i2c_core_init                        build\kernel\components\drivers\i2c\i2c_core.o
__rt_init_rt_mmcsd_core_init                      build\kernel\components\drivers\sdio\mmcsd_core.o
__rt_init_rt_wdt_init                             libraries\hal_drivers\drv_wdt.o
__rt_init_rti_board_end                           build\kernel\src\components.o
__rt_init_rti_board_start                         build\kernel\src\components.o
__rt_init_rti_end                                 build\kernel\src\components.o
__rt_init_rti_start                               build\kernel\src\components.o
__rt_libc_exit                                    build\kernel\components\libc\compilers\common\stdlib.o
                                                  build\kernel\components\libc\compilers\newlib\syscalls.o
__rt_libc_system                                  build\kernel\components\libc\compilers\common\stdlib.o
                                                  build\kernel\components\libc\compilers\newlib\syscalls.o
__s2b                                             d:/program_files/programming/rt-threadstudio/repo/extract/toolchain_support_packages/risc-v/risc-v-gcc/10.1.0/bin/../lib/gcc/riscv64-unknown-elf/10.1.0/../../../../riscv64-unknown-elf/lib/rv32im/ilp32\libc.a(lib_a-mprec.o)
__sclose                                          d:/program_files/programming/rt-threadstudio/repo/extract/toolchain_support_packages/risc-v/risc-v-gcc/10.1.0/bin/../lib/gcc/riscv64-unknown-elf/10.1.0/../../../../riscv64-unknown-elf/lib/rv32im/ilp32\libc.a(lib_a-stdio.o)
                                                  d:/program_files/programming/rt-threadstudio/repo/extract/toolchain_support_packages/risc-v/risc-v-gcc/10.1.0/bin/../lib/gcc/riscv64-unknown-elf/10.1.0/../../../../riscv64-unknown-elf/lib/rv32im/ilp32\libc.a(lib_a-fopen.o)
                                                  d:/program_files/programming/rt-threadstudio/repo/extract/toolchain_support_packages/risc-v/risc-v-gcc/10.1.0/bin/../lib/gcc/riscv64-unknown-elf/10.1.0/../../../../riscv64-unknown-elf/lib/rv32im/ilp32\libc.a(lib_a-findfp.o)
__seofread                                        d:/program_files/programming/rt-threadstudio/repo/extract/toolchain_support_packages/risc-v/risc-v-gcc/10.1.0/bin/../lib/gcc/riscv64-unknown-elf/10.1.0/../../../../riscv64-unknown-elf/lib/rv32im/ilp32\libc.a(lib_a-stdio.o)
__sflags                                          d:/program_files/programming/rt-threadstudio/repo/extract/toolchain_support_packages/risc-v/risc-v-gcc/10.1.0/bin/../lib/gcc/riscv64-unknown-elf/10.1.0/../../../../riscv64-unknown-elf/lib/rv32im/ilp32\libc.a(lib_a-flags.o)
                                                  d:/program_files/programming/rt-threadstudio/repo/extract/toolchain_support_packages/risc-v/risc-v-gcc/10.1.0/bin/../lib/gcc/riscv64-unknown-elf/10.1.0/../../../../riscv64-unknown-elf/lib/rv32im/ilp32\libc.a(lib_a-fopen.o)
__sflush_r                                        d:/program_files/programming/rt-threadstudio/repo/extract/toolchain_support_packages/risc-v/risc-v-gcc/10.1.0/bin/../lib/gcc/riscv64-unknown-elf/10.1.0/../../../../riscv64-unknown-elf/lib/rv32im/ilp32\libc.a(lib_a-fflush.o)
                                                  d:/program_files/programming/rt-threadstudio/repo/extract/toolchain_support_packages/risc-v/risc-v-gcc/10.1.0/bin/../lib/gcc/riscv64-unknown-elf/10.1.0/../../../../riscv64-unknown-elf/lib/rv32im/ilp32\libc.a(lib_a-refill.o)
                                                  d:/program_files/programming/rt-threadstudio/repo/extract/toolchain_support_packages/risc-v/risc-v-gcc/10.1.0/bin/../lib/gcc/riscv64-unknown-elf/10.1.0/../../../../riscv64-unknown-elf/lib/rv32im/ilp32\libc.a(lib_a-fclose.o)
__sfmoreglue                                      d:/program_files/programming/rt-threadstudio/repo/extract/toolchain_support_packages/risc-v/risc-v-gcc/10.1.0/bin/../lib/gcc/riscv64-unknown-elf/10.1.0/../../../../riscv64-unknown-elf/lib/rv32im/ilp32\libc.a(lib_a-findfp.o)
__sfp                                             d:/program_files/programming/rt-threadstudio/repo/extract/toolchain_support_packages/risc-v/risc-v-gcc/10.1.0/bin/../lib/gcc/riscv64-unknown-elf/10.1.0/../../../../riscv64-unknown-elf/lib/rv32im/ilp32\libc.a(lib_a-findfp.o)
                                                  d:/program_files/programming/rt-threadstudio/repo/extract/toolchain_support_packages/risc-v/risc-v-gcc/10.1.0/bin/../lib/gcc/riscv64-unknown-elf/10.1.0/../../../../riscv64-unknown-elf/lib/rv32im/ilp32\libc.a(lib_a-fopen.o)
__sfp_lock_acquire                                d:/program_files/programming/rt-threadstudio/repo/extract/toolchain_support_packages/risc-v/risc-v-gcc/10.1.0/bin/../lib/gcc/riscv64-unknown-elf/10.1.0/../../../../riscv64-unknown-elf/lib/rv32im/ilp32\libc.a(lib_a-findfp.o)
                                                  d:/program_files/programming/rt-threadstudio/repo/extract/toolchain_support_packages/risc-v/risc-v-gcc/10.1.0/bin/../lib/gcc/riscv64-unknown-elf/10.1.0/../../../../riscv64-unknown-elf/lib/rv32im/ilp32\libc.a(lib_a-fopen.o)
                                                  d:/program_files/programming/rt-threadstudio/repo/extract/toolchain_support_packages/risc-v/risc-v-gcc/10.1.0/bin/../lib/gcc/riscv64-unknown-elf/10.1.0/../../../../riscv64-unknown-elf/lib/rv32im/ilp32\libc.a(lib_a-fclose.o)
__sfp_lock_release                                d:/program_files/programming/rt-threadstudio/repo/extract/toolchain_support_packages/risc-v/risc-v-gcc/10.1.0/bin/../lib/gcc/riscv64-unknown-elf/10.1.0/../../../../riscv64-unknown-elf/lib/rv32im/ilp32\libc.a(lib_a-findfp.o)
                                                  d:/program_files/programming/rt-threadstudio/repo/extract/toolchain_support_packages/risc-v/risc-v-gcc/10.1.0/bin/../lib/gcc/riscv64-unknown-elf/10.1.0/../../../../riscv64-unknown-elf/lib/rv32im/ilp32\libc.a(lib_a-fopen.o)
                                                  d:/program_files/programming/rt-threadstudio/repo/extract/toolchain_support_packages/risc-v/risc-v-gcc/10.1.0/bin/../lib/gcc/riscv64-unknown-elf/10.1.0/../../../../riscv64-unknown-elf/lib/rv32im/ilp32\libc.a(lib_a-fclose.o)
__sfvwrite_r                                      d:/program_files/programming/rt-threadstudio/repo/extract/toolchain_support_packages/risc-v/risc-v-gcc/10.1.0/bin/../lib/gcc/riscv64-unknown-elf/10.1.0/../../../../riscv64-unknown-elf/lib/rv32im/ilp32\libc.a(lib_a-fvwrite.o)
                                                  d:/program_files/programming/rt-threadstudio/repo/extract/toolchain_support_packages/risc-v/risc-v-gcc/10.1.0/bin/../lib/gcc/riscv64-unknown-elf/10.1.0/../../../../riscv64-unknown-elf/lib/rv32im/ilp32\libc.a(lib_a-vfiprintf.o)
__sigtramp                                        d:/program_files/programming/rt-threadstudio/repo/extract/toolchain_support_packages/risc-v/risc-v-gcc/10.1.0/bin/../lib/gcc/riscv64-unknown-elf/10.1.0/../../../../riscv64-unknown-elf/lib/rv32im/ilp32\libc.a(lib_a-signal.o)
__sigtramp_r                                      d:/program_files/programming/rt-threadstudio/repo/extract/toolchain_support_packages/risc-v/risc-v-gcc/10.1.0/bin/../lib/gcc/riscv64-unknown-elf/10.1.0/../../../../riscv64-unknown-elf/lib/rv32im/ilp32\libc.a(lib_a-signal.o)
__sinit                                           d:/program_files/programming/rt-threadstudio/repo/extract/toolchain_support_packages/risc-v/risc-v-gcc/10.1.0/bin/../lib/gcc/riscv64-unknown-elf/10.1.0/../../../../riscv64-unknown-elf/lib/rv32im/ilp32\libc.a(lib_a-findfp.o)
                                                  d:/program_files/programming/rt-threadstudio/repo/extract/toolchain_support_packages/risc-v/risc-v-gcc/10.1.0/bin/../lib/gcc/riscv64-unknown-elf/10.1.0/../../../../riscv64-unknown-elf/lib/rv32im/ilp32\libc.a(lib_a-wbuf.o)
                                                  d:/program_files/programming/rt-threadstudio/repo/extract/toolchain_support_packages/risc-v/risc-v-gcc/10.1.0/bin/../lib/gcc/riscv64-unknown-elf/10.1.0/../../../../riscv64-unknown-elf/lib/rv32im/ilp32\libc.a(lib_a-fputwc.o)
                                                  d:/program_files/programming/rt-threadstudio/repo/extract/toolchain_support_packages/risc-v/risc-v-gcc/10.1.0/bin/../lib/gcc/riscv64-unknown-elf/10.1.0/../../../../riscv64-unknown-elf/lib/rv32im/ilp32\libc.a(lib_a-wsetup.o)
                                                  d:/program_files/programming/rt-threadstudio/repo/extract/toolchain_support_packages/risc-v/risc-v-gcc/10.1.0/bin/../lib/gcc/riscv64-unknown-elf/10.1.0/../../../../riscv64-unknown-elf/lib/rv32im/ilp32\libc.a(lib_a-vfiprintf.o)
                                                  d:/program_files/programming/rt-threadstudio/repo/extract/toolchain_support_packages/risc-v/risc-v-gcc/10.1.0/bin/../lib/gcc/riscv64-unknown-elf/10.1.0/../../../../riscv64-unknown-elf/lib/rv32im/ilp32\libc.a(lib_a-setvbuf.o)
                                                  d:/program_files/programming/rt-threadstudio/repo/extract/toolchain_support_packages/risc-v/risc-v-gcc/10.1.0/bin/../lib/gcc/riscv64-unknown-elf/10.1.0/../../../../riscv64-unknown-elf/lib/rv32im/ilp32\libc.a(lib_a-refill.o)
                                                  d:/program_files/programming/rt-threadstudio/repo/extract/toolchain_support_packages/risc-v/risc-v-gcc/10.1.0/bin/../lib/gcc/riscv64-unknown-elf/10.1.0/../../../../riscv64-unknown-elf/lib/rv32im/ilp32\libc.a(lib_a-ftello.o)
                                                  d:/program_files/programming/rt-threadstudio/repo/extract/toolchain_support_packages/risc-v/risc-v-gcc/10.1.0/bin/../lib/gcc/riscv64-unknown-elf/10.1.0/../../../../riscv64-unknown-elf/lib/rv32im/ilp32\libc.a(lib_a-fseeko.o)
                                                  d:/program_files/programming/rt-threadstudio/repo/extract/toolchain_support_packages/risc-v/risc-v-gcc/10.1.0/bin/../lib/gcc/riscv64-unknown-elf/10.1.0/../../../../riscv64-unknown-elf/lib/rv32im/ilp32\libc.a(lib_a-fileno.o)
                                                  d:/program_files/programming/rt-threadstudio/repo/extract/toolchain_support_packages/risc-v/risc-v-gcc/10.1.0/bin/../lib/gcc/riscv64-unknown-elf/10.1.0/../../../../riscv64-unknown-elf/lib/rv32im/ilp32\libc.a(lib_a-fflush.o)
                                                  d:/program_files/programming/rt-threadstudio/repo/extract/toolchain_support_packages/risc-v/risc-v-gcc/10.1.0/bin/../lib/gcc/riscv64-unknown-elf/10.1.0/../../../../riscv64-unknown-elf/lib/rv32im/ilp32\libc.a(lib_a-fclose.o)
__sinit_lock_acquire                              d:/program_files/programming/rt-threadstudio/repo/extract/toolchain_support_packages/risc-v/risc-v-gcc/10.1.0/bin/../lib/gcc/riscv64-unknown-elf/10.1.0/../../../../riscv64-unknown-elf/lib/rv32im/ilp32\libc.a(lib_a-findfp.o)
__sinit_lock_release                              d:/program_files/programming/rt-threadstudio/repo/extract/toolchain_support_packages/risc-v/risc-v-gcc/10.1.0/bin/../lib/gcc/riscv64-unknown-elf/10.1.0/../../../../riscv64-unknown-elf/lib/rv32im/ilp32\libc.a(lib_a-findfp.o)
__smakebuf_r                                      d:/program_files/programming/rt-threadstudio/repo/extract/toolchain_support_packages/risc-v/risc-v-gcc/10.1.0/bin/../lib/gcc/riscv64-unknown-elf/10.1.0/../../../../riscv64-unknown-elf/lib/rv32im/ilp32\libc.a(lib_a-makebuf.o)
                                                  d:/program_files/programming/rt-threadstudio/repo/extract/toolchain_support_packages/risc-v/risc-v-gcc/10.1.0/bin/../lib/gcc/riscv64-unknown-elf/10.1.0/../../../../riscv64-unknown-elf/lib/rv32im/ilp32\libc.a(lib_a-wsetup.o)
                                                  d:/program_files/programming/rt-threadstudio/repo/extract/toolchain_support_packages/risc-v/risc-v-gcc/10.1.0/bin/../lib/gcc/riscv64-unknown-elf/10.1.0/../../../../riscv64-unknown-elf/lib/rv32im/ilp32\libc.a(lib_a-refill.o)
                                                  d:/program_files/programming/rt-threadstudio/repo/extract/toolchain_support_packages/risc-v/risc-v-gcc/10.1.0/bin/../lib/gcc/riscv64-unknown-elf/10.1.0/../../../../riscv64-unknown-elf/lib/rv32im/ilp32\libc.a(lib_a-fseeko.o)
__sprint_r                                        d:/program_files/programming/rt-threadstudio/repo/extract/toolchain_support_packages/risc-v/risc-v-gcc/10.1.0/bin/../lib/gcc/riscv64-unknown-elf/10.1.0/../../../../riscv64-unknown-elf/lib/rv32im/ilp32\libc.a(lib_a-vfiprintf.o)
__sread                                           d:/program_files/programming/rt-threadstudio/repo/extract/toolchain_support_packages/risc-v/risc-v-gcc/10.1.0/bin/../lib/gcc/riscv64-unknown-elf/10.1.0/../../../../riscv64-unknown-elf/lib/rv32im/ilp32\libc.a(lib_a-stdio.o)
                                                  d:/program_files/programming/rt-threadstudio/repo/extract/toolchain_support_packages/risc-v/risc-v-gcc/10.1.0/bin/../lib/gcc/riscv64-unknown-elf/10.1.0/../../../../riscv64-unknown-elf/lib/rv32im/ilp32\libc.a(lib_a-fopen.o)
                                                  d:/program_files/programming/rt-threadstudio/repo/extract/toolchain_support_packages/risc-v/risc-v-gcc/10.1.0/bin/../lib/gcc/riscv64-unknown-elf/10.1.0/../../../../riscv64-unknown-elf/lib/rv32im/ilp32\libc.a(lib_a-findfp.o)
__srefill_r                                       d:/program_files/programming/rt-threadstudio/repo/extract/toolchain_support_packages/risc-v/risc-v-gcc/10.1.0/bin/../lib/gcc/riscv64-unknown-elf/10.1.0/../../../../riscv64-unknown-elf/lib/rv32im/ilp32\libc.a(lib_a-refill.o)
                                                  d:/program_files/programming/rt-threadstudio/repo/extract/toolchain_support_packages/risc-v/risc-v-gcc/10.1.0/bin/../lib/gcc/riscv64-unknown-elf/10.1.0/../../../../riscv64-unknown-elf/lib/rv32im/ilp32\libc.a(lib_a-fseeko.o)
__sseek                                           d:/program_files/programming/rt-threadstudio/repo/extract/toolchain_support_packages/risc-v/risc-v-gcc/10.1.0/bin/../lib/gcc/riscv64-unknown-elf/10.1.0/../../../../riscv64-unknown-elf/lib/rv32im/ilp32\libc.a(lib_a-stdio.o)
                                                  d:/program_files/programming/rt-threadstudio/repo/extract/toolchain_support_packages/risc-v/risc-v-gcc/10.1.0/bin/../lib/gcc/riscv64-unknown-elf/10.1.0/../../../../riscv64-unknown-elf/lib/rv32im/ilp32\libc.a(lib_a-fseeko.o)
                                                  d:/program_files/programming/rt-threadstudio/repo/extract/toolchain_support_packages/risc-v/risc-v-gcc/10.1.0/bin/../lib/gcc/riscv64-unknown-elf/10.1.0/../../../../riscv64-unknown-elf/lib/rv32im/ilp32\libc.a(lib_a-fopen.o)
                                                  d:/program_files/programming/rt-threadstudio/repo/extract/toolchain_support_packages/risc-v/risc-v-gcc/10.1.0/bin/../lib/gcc/riscv64-unknown-elf/10.1.0/../../../../riscv64-unknown-elf/lib/rv32im/ilp32\libc.a(lib_a-findfp.o)
__ssprint_r                                       d:/program_files/programming/rt-threadstudio/repo/extract/toolchain_support_packages/risc-v/risc-v-gcc/10.1.0/bin/../lib/gcc/riscv64-unknown-elf/10.1.0/../../../../riscv64-unknown-elf/lib/rv32im/ilp32\libc.a(lib_a-svfiprintf.o)
                                                  d:/program_files/programming/rt-threadstudio/repo/extract/toolchain_support_packages/risc-v/risc-v-gcc/10.1.0/bin/../lib/gcc/riscv64-unknown-elf/10.1.0/../../../../riscv64-unknown-elf/lib/rv32im/ilp32\libc.a(lib_a-svfprintf.o)
__subsf3                                          d:/program_files/programming/rt-threadstudio/repo/extract/toolchain_support_packages/risc-v/risc-v-gcc/10.1.0/bin/../lib/gcc/riscv64-unknown-elf/10.1.0/rv32im/ilp32\libgcc.a(subsf3.o)
                                                  build\kernel\components\drivers\hwtimer\hwtimer.o
__subtf3                                          d:/program_files/programming/rt-threadstudio/repo/extract/toolchain_support_packages/risc-v/risc-v-gcc/10.1.0/bin/../lib/gcc/riscv64-unknown-elf/10.1.0/rv32im/ilp32\libgcc.a(subtf3.o)
                                                  d:/program_files/programming/rt-threadstudio/repo/extract/toolchain_support_packages/risc-v/risc-v-gcc/10.1.0/bin/../lib/gcc/riscv64-unknown-elf/10.1.0/../../../../riscv64-unknown-elf/lib/rv32im/ilp32\libc.a(lib_a-svfprintf.o)
__swbuf                                           d:/program_files/programming/rt-threadstudio/repo/extract/toolchain_support_packages/risc-v/risc-v-gcc/10.1.0/bin/../lib/gcc/riscv64-unknown-elf/10.1.0/../../../../riscv64-unknown-elf/lib/rv32im/ilp32\libc.a(lib_a-wbuf.o)
__swbuf_r                                         d:/program_files/programming/rt-threadstudio/repo/extract/toolchain_support_packages/risc-v/risc-v-gcc/10.1.0/bin/../lib/gcc/riscv64-unknown-elf/10.1.0/../../../../riscv64-unknown-elf/lib/rv32im/ilp32\libc.a(lib_a-wbuf.o)
                                                  d:/program_files/programming/rt-threadstudio/repo/extract/toolchain_support_packages/risc-v/risc-v-gcc/10.1.0/bin/../lib/gcc/riscv64-unknown-elf/10.1.0/../../../../riscv64-unknown-elf/lib/rv32im/ilp32\libc.a(lib_a-fputwc.o)
__swhatbuf_r                                      d:/program_files/programming/rt-threadstudio/repo/extract/toolchain_support_packages/risc-v/risc-v-gcc/10.1.0/bin/../lib/gcc/riscv64-unknown-elf/10.1.0/../../../../riscv64-unknown-elf/lib/rv32im/ilp32\libc.a(lib_a-makebuf.o)
                                                  d:/program_files/programming/rt-threadstudio/repo/extract/toolchain_support_packages/risc-v/risc-v-gcc/10.1.0/bin/../lib/gcc/riscv64-unknown-elf/10.1.0/../../../../riscv64-unknown-elf/lib/rv32im/ilp32\libc.a(lib_a-setvbuf.o)
__swrite                                          d:/program_files/programming/rt-threadstudio/repo/extract/toolchain_support_packages/risc-v/risc-v-gcc/10.1.0/bin/../lib/gcc/riscv64-unknown-elf/10.1.0/../../../../riscv64-unknown-elf/lib/rv32im/ilp32\libc.a(lib_a-stdio.o)
                                                  d:/program_files/programming/rt-threadstudio/repo/extract/toolchain_support_packages/risc-v/risc-v-gcc/10.1.0/bin/../lib/gcc/riscv64-unknown-elf/10.1.0/../../../../riscv64-unknown-elf/lib/rv32im/ilp32\libc.a(lib_a-fopen.o)
                                                  d:/program_files/programming/rt-threadstudio/repo/extract/toolchain_support_packages/risc-v/risc-v-gcc/10.1.0/bin/../lib/gcc/riscv64-unknown-elf/10.1.0/../../../../riscv64-unknown-elf/lib/rv32im/ilp32\libc.a(lib_a-findfp.o)
__swsetup_r                                       d:/program_files/programming/rt-threadstudio/repo/extract/toolchain_support_packages/risc-v/risc-v-gcc/10.1.0/bin/../lib/gcc/riscv64-unknown-elf/10.1.0/../../../../riscv64-unknown-elf/lib/rv32im/ilp32\libc.a(lib_a-wsetup.o)
                                                  d:/program_files/programming/rt-threadstudio/repo/extract/toolchain_support_packages/risc-v/risc-v-gcc/10.1.0/bin/../lib/gcc/riscv64-unknown-elf/10.1.0/../../../../riscv64-unknown-elf/lib/rv32im/ilp32\libc.a(lib_a-wbuf.o)
                                                  d:/program_files/programming/rt-threadstudio/repo/extract/toolchain_support_packages/risc-v/risc-v-gcc/10.1.0/bin/../lib/gcc/riscv64-unknown-elf/10.1.0/../../../../riscv64-unknown-elf/lib/rv32im/ilp32\libc.a(lib_a-fvwrite.o)
                                                  d:/program_files/programming/rt-threadstudio/repo/extract/toolchain_support_packages/risc-v/risc-v-gcc/10.1.0/bin/../lib/gcc/riscv64-unknown-elf/10.1.0/../../../../riscv64-unknown-elf/lib/rv32im/ilp32\libc.a(lib_a-vfiprintf.o)
__trunctfdf2                                      d:/program_files/programming/rt-threadstudio/repo/extract/toolchain_support_packages/risc-v/risc-v-gcc/10.1.0/bin/../lib/gcc/riscv64-unknown-elf/10.1.0/rv32im/ilp32\libgcc.a(trunctfdf2.o)
                                                  d:/program_files/programming/rt-threadstudio/repo/extract/toolchain_support_packages/risc-v/risc-v-gcc/10.1.0/bin/../lib/gcc/riscv64-unknown-elf/10.1.0/../../../../riscv64-unknown-elf/lib/rv32im/ilp32\libc.a(lib_a-svfprintf.o)
__udivdi3                                         d:/program_files/programming/rt-threadstudio/repo/extract/toolchain_support_packages/risc-v/risc-v-gcc/10.1.0/bin/../lib/gcc/riscv64-unknown-elf/10.1.0/rv32im/ilp32\libgcc.a(_udivdi3.o)
                                                  d:/program_files/programming/rt-threadstudio/repo/extract/toolchain_support_packages/risc-v/risc-v-gcc/10.1.0/bin/../lib/gcc/riscv64-unknown-elf/10.1.0/../../../../riscv64-unknown-elf/lib/rv32im/ilp32\libc.a(lib_a-vfiprintf.o)
                                                  d:/program_files/programming/rt-threadstudio/repo/extract/toolchain_support_packages/risc-v/risc-v-gcc/10.1.0/bin/../lib/gcc/riscv64-unknown-elf/10.1.0/../../../../riscv64-unknown-elf/lib/rv32im/ilp32\libc.a(lib_a-svfiprintf.o)
                                                  d:/program_files/programming/rt-threadstudio/repo/extract/toolchain_support_packages/risc-v/risc-v-gcc/10.1.0/bin/../lib/gcc/riscv64-unknown-elf/10.1.0/../../../../riscv64-unknown-elf/lib/rv32im/ilp32\libc.a(lib_a-svfprintf.o)
                                                  libraries\hal_drivers\drv_pwm.o
__ulp                                             d:/program_files/programming/rt-threadstudio/repo/extract/toolchain_support_packages/risc-v/risc-v-gcc/10.1.0/bin/../lib/gcc/riscv64-unknown-elf/10.1.0/../../../../riscv64-unknown-elf/lib/rv32im/ilp32\libc.a(lib_a-mprec.o)
__umoddi3                                         d:/program_files/programming/rt-threadstudio/repo/extract/toolchain_support_packages/risc-v/risc-v-gcc/10.1.0/bin/../lib/gcc/riscv64-unknown-elf/10.1.0/rv32im/ilp32\libgcc.a(_umoddi3.o)
                                                  d:/program_files/programming/rt-threadstudio/repo/extract/toolchain_support_packages/risc-v/risc-v-gcc/10.1.0/bin/../lib/gcc/riscv64-unknown-elf/10.1.0/../../../../riscv64-unknown-elf/lib/rv32im/ilp32\libc.a(lib_a-vfiprintf.o)
                                                  d:/program_files/programming/rt-threadstudio/repo/extract/toolchain_support_packages/risc-v/risc-v-gcc/10.1.0/bin/../lib/gcc/riscv64-unknown-elf/10.1.0/../../../../riscv64-unknown-elf/lib/rv32im/ilp32\libc.a(lib_a-svfiprintf.o)
                                                  d:/program_files/programming/rt-threadstudio/repo/extract/toolchain_support_packages/risc-v/risc-v-gcc/10.1.0/bin/../lib/gcc/riscv64-unknown-elf/10.1.0/../../../../riscv64-unknown-elf/lib/rv32im/ilp32\libc.a(lib_a-svfprintf.o)
__vsym_dummy                                      build\kernel\components\finsh\cmd.o
__vsym_dummy_desc                                 build\kernel\components\finsh\cmd.o
__vsym_dummy_name                                 build\kernel\components\finsh\cmd.o
__vsymtab_end                                     build\kernel\components\finsh\shell.o
__vsymtab_start                                   build\kernel\components\finsh\shell.o
__wqueue_default_wake                             build\kernel\components\drivers\src\waitqueue.o
_atoi_r                                           d:/program_files/programming/rt-threadstudio/repo/extract/toolchain_support_packages/risc-v/risc-v-gcc/10.1.0/bin/../lib/gcc/riscv64-unknown-elf/10.1.0/../../../../riscv64-unknown-elf/lib/rv32im/ilp32\libc.a(lib_a-atoi.o)
_cache_cb                                         libraries\hal_libraries\ab32vg1_hal\libhal.a(cache.o)
_calloc_r                                         build\kernel\components\libc\compilers\newlib\syscalls.o
                                                  d:/program_files/programming/rt-threadstudio/repo/extract/toolchain_support_packages/risc-v/risc-v-gcc/10.1.0/bin/../lib/gcc/riscv64-unknown-elf/10.1.0/../../../../riscv64-unknown-elf/lib/rv32im/ilp32\libc.a(lib_a-mprec.o)
_cleanup                                          d:/program_files/programming/rt-threadstudio/repo/extract/toolchain_support_packages/risc-v/risc-v-gcc/10.1.0/bin/../lib/gcc/riscv64-unknown-elf/10.1.0/../../../../riscv64-unknown-elf/lib/rv32im/ilp32\libc.a(lib_a-findfp.o)
_cleanup_r                                        d:/program_files/programming/rt-threadstudio/repo/extract/toolchain_support_packages/risc-v/risc-v-gcc/10.1.0/bin/../lib/gcc/riscv64-unknown-elf/10.1.0/../../../../riscv64-unknown-elf/lib/rv32im/ilp32\libc.a(lib_a-findfp.o)
                                                  d:/program_files/programming/rt-threadstudio/repo/extract/toolchain_support_packages/risc-v/risc-v-gcc/10.1.0/bin/../lib/gcc/riscv64-unknown-elf/10.1.0/../../../../riscv64-unknown-elf/lib/rv32im/ilp32\libc.a(lib_a-makebuf.o)
_close_r                                          build\kernel\components\libc\compilers\newlib\syscalls.o
                                                  d:/program_files/programming/rt-threadstudio/repo/extract/toolchain_support_packages/risc-v/risc-v-gcc/10.1.0/bin/../lib/gcc/riscv64-unknown-elf/10.1.0/../../../../riscv64-unknown-elf/lib/rv32im/ilp32\libc.a(lib_a-stdio.o)
_ctype_                                           d:/program_files/programming/rt-threadstudio/repo/extract/toolchain_support_packages/risc-v/risc-v-gcc/10.1.0/bin/../lib/gcc/riscv64-unknown-elf/10.1.0/../../../../riscv64-unknown-elf/lib/rv32im/ilp32\libc.a(lib_a-ctype_.o)
                                                  d:/program_files/programming/rt-threadstudio/repo/extract/toolchain_support_packages/risc-v/risc-v-gcc/10.1.0/bin/../lib/gcc/riscv64-unknown-elf/10.1.0/../../../../riscv64-unknown-elf/lib/rv32im/ilp32\libc.a(lib_a-locale.o)
                                                  d:/program_files/programming/rt-threadstudio/repo/extract/toolchain_support_packages/risc-v/risc-v-gcc/10.1.0/bin/../lib/gcc/riscv64-unknown-elf/10.1.0/../../../../riscv64-unknown-elf/lib/rv32im/ilp32\libc.a(lib_a-strtol.o)
_execve_r                                         build\kernel\components\libc\compilers\newlib\syscalls.o
_exit                                             build\kernel\components\libc\compilers\newlib\syscalls.o
                                                  d:/program_files/programming/rt-threadstudio/repo/extract/toolchain_support_packages/risc-v/risc-v-gcc/10.1.0/bin/../lib/gcc/riscv64-unknown-elf/10.1.0/../../../../riscv64-unknown-elf/lib/rv32im/ilp32\libc.a(lib_a-abort.o)
_fclose_r                                         d:/program_files/programming/rt-threadstudio/repo/extract/toolchain_support_packages/risc-v/risc-v-gcc/10.1.0/bin/../lib/gcc/riscv64-unknown-elf/10.1.0/../../../../riscv64-unknown-elf/lib/rv32im/ilp32\libc.a(lib_a-fclose.o)
                                                  d:/program_files/programming/rt-threadstudio/repo/extract/toolchain_support_packages/risc-v/risc-v-gcc/10.1.0/bin/../lib/gcc/riscv64-unknown-elf/10.1.0/../../../../riscv64-unknown-elf/lib/rv32im/ilp32\libc.a(lib_a-findfp.o)
_fcntl_r                                          build\kernel\components\libc\compilers\newlib\syscalls.o
_fflush_r                                         d:/program_files/programming/rt-threadstudio/repo/extract/toolchain_support_packages/risc-v/risc-v-gcc/10.1.0/bin/../lib/gcc/riscv64-unknown-elf/10.1.0/../../../../riscv64-unknown-elf/lib/rv32im/ilp32\libc.a(lib_a-fflush.o)
                                                  d:/program_files/programming/rt-threadstudio/repo/extract/toolchain_support_packages/risc-v/risc-v-gcc/10.1.0/bin/../lib/gcc/riscv64-unknown-elf/10.1.0/../../../../riscv64-unknown-elf/lib/rv32im/ilp32\libc.a(lib_a-wbuf.o)
                                                  d:/program_files/programming/rt-threadstudio/repo/extract/toolchain_support_packages/risc-v/risc-v-gcc/10.1.0/bin/../lib/gcc/riscv64-unknown-elf/10.1.0/../../../../riscv64-unknown-elf/lib/rv32im/ilp32\libc.a(lib_a-fvwrite.o)
                                                  d:/program_files/programming/rt-threadstudio/repo/extract/toolchain_support_packages/risc-v/risc-v-gcc/10.1.0/bin/../lib/gcc/riscv64-unknown-elf/10.1.0/../../../../riscv64-unknown-elf/lib/rv32im/ilp32\libc.a(lib_a-vfiprintf.o)
                                                  d:/program_files/programming/rt-threadstudio/repo/extract/toolchain_support_packages/risc-v/risc-v-gcc/10.1.0/bin/../lib/gcc/riscv64-unknown-elf/10.1.0/../../../../riscv64-unknown-elf/lib/rv32im/ilp32\libc.a(lib_a-setvbuf.o)
                                                  d:/program_files/programming/rt-threadstudio/repo/extract/toolchain_support_packages/risc-v/risc-v-gcc/10.1.0/bin/../lib/gcc/riscv64-unknown-elf/10.1.0/../../../../riscv64-unknown-elf/lib/rv32im/ilp32\libc.a(lib_a-refill.o)
                                                  d:/program_files/programming/rt-threadstudio/repo/extract/toolchain_support_packages/risc-v/risc-v-gcc/10.1.0/bin/../lib/gcc/riscv64-unknown-elf/10.1.0/../../../../riscv64-unknown-elf/lib/rv32im/ilp32\libc.a(lib_a-fseeko.o)
_findenv_r                                        d:/program_files/programming/rt-threadstudio/repo/extract/toolchain_support_packages/risc-v/risc-v-gcc/10.1.0/bin/../lib/gcc/riscv64-unknown-elf/10.1.0/../../../../riscv64-unknown-elf/lib/rv32im/ilp32\libc.a(lib_a-getenv_r.o)
                                                  d:/program_files/programming/rt-threadstudio/repo/extract/toolchain_support_packages/risc-v/risc-v-gcc/10.1.0/bin/../lib/gcc/riscv64-unknown-elf/10.1.0/../../../../riscv64-unknown-elf/lib/rv32im/ilp32\libc.a(lib_a-setenv_r.o)
_fiprintf_r                                       d:/program_files/programming/rt-threadstudio/repo/extract/toolchain_support_packages/risc-v/risc-v-gcc/10.1.0/bin/../lib/gcc/riscv64-unknown-elf/10.1.0/../../../../riscv64-unknown-elf/lib/rv32im/ilp32\libc.a(lib_a-fiprintf.o)
_fopen_r                                          d:/program_files/programming/rt-threadstudio/repo/extract/toolchain_support_packages/risc-v/risc-v-gcc/10.1.0/bin/../lib/gcc/riscv64-unknown-elf/10.1.0/../../../../riscv64-unknown-elf/lib/rv32im/ilp32\libc.a(lib_a-fopen.o)
_fork_r                                           build\kernel\components\libc\compilers\newlib\syscalls.o
_fputwc_r                                         d:/program_files/programming/rt-threadstudio/repo/extract/toolchain_support_packages/risc-v/risc-v-gcc/10.1.0/bin/../lib/gcc/riscv64-unknown-elf/10.1.0/../../../../riscv64-unknown-elf/lib/rv32im/ilp32\libc.a(lib_a-fputwc.o)
                                                  d:/program_files/programming/rt-threadstudio/repo/extract/toolchain_support_packages/risc-v/risc-v-gcc/10.1.0/bin/../lib/gcc/riscv64-unknown-elf/10.1.0/../../../../riscv64-unknown-elf/lib/rv32im/ilp32\libc.a(lib_a-vfiprintf.o)
_free_r                                           build\kernel\components\libc\compilers\newlib\syscalls.o
                                                  d:/program_files/programming/rt-threadstudio/repo/extract/toolchain_support_packages/risc-v/risc-v-gcc/10.1.0/bin/../lib/gcc/riscv64-unknown-elf/10.1.0/../../../../riscv64-unknown-elf/lib/rv32im/ilp32\libc.a(lib_a-fvwrite.o)
                                                  d:/program_files/programming/rt-threadstudio/repo/extract/toolchain_support_packages/risc-v/risc-v-gcc/10.1.0/bin/../lib/gcc/riscv64-unknown-elf/10.1.0/../../../../riscv64-unknown-elf/lib/rv32im/ilp32\libc.a(lib_a-wsetup.o)
                                                  d:/program_files/programming/rt-threadstudio/repo/extract/toolchain_support_packages/risc-v/risc-v-gcc/10.1.0/bin/../lib/gcc/riscv64-unknown-elf/10.1.0/../../../../riscv64-unknown-elf/lib/rv32im/ilp32\libc.a(lib_a-svfiprintf.o)
                                                  d:/program_files/programming/rt-threadstudio/repo/extract/toolchain_support_packages/risc-v/risc-v-gcc/10.1.0/bin/../lib/gcc/riscv64-unknown-elf/10.1.0/../../../../riscv64-unknown-elf/lib/rv32im/ilp32\libc.a(lib_a-malloc.o)
                                                  d:/program_files/programming/rt-threadstudio/repo/extract/toolchain_support_packages/risc-v/risc-v-gcc/10.1.0/bin/../lib/gcc/riscv64-unknown-elf/10.1.0/../../../../riscv64-unknown-elf/lib/rv32im/ilp32\libc.a(lib_a-svfprintf.o)
                                                  d:/program_files/programming/rt-threadstudio/repo/extract/toolchain_support_packages/risc-v/risc-v-gcc/10.1.0/bin/../lib/gcc/riscv64-unknown-elf/10.1.0/../../../../riscv64-unknown-elf/lib/rv32im/ilp32\libc.a(lib_a-setvbuf.o)
                                                  d:/program_files/programming/rt-threadstudio/repo/extract/toolchain_support_packages/risc-v/risc-v-gcc/10.1.0/bin/../lib/gcc/riscv64-unknown-elf/10.1.0/../../../../riscv64-unknown-elf/lib/rv32im/ilp32\libc.a(lib_a-refill.o)
                                                  d:/program_files/programming/rt-threadstudio/repo/extract/toolchain_support_packages/risc-v/risc-v-gcc/10.1.0/bin/../lib/gcc/riscv64-unknown-elf/10.1.0/../../../../riscv64-unknown-elf/lib/rv32im/ilp32\libc.a(lib_a-putenv_r.o)
                                                  d:/program_files/programming/rt-threadstudio/repo/extract/toolchain_support_packages/risc-v/risc-v-gcc/10.1.0/bin/../lib/gcc/riscv64-unknown-elf/10.1.0/../../../../riscv64-unknown-elf/lib/rv32im/ilp32\libc.a(lib_a-fseeko.o)
                                                  d:/program_files/programming/rt-threadstudio/repo/extract/toolchain_support_packages/risc-v/risc-v-gcc/10.1.0/bin/../lib/gcc/riscv64-unknown-elf/10.1.0/../../../../riscv64-unknown-elf/lib/rv32im/ilp32\libc.a(lib_a-fflush.o)
                                                  d:/program_files/programming/rt-threadstudio/repo/extract/toolchain_support_packages/risc-v/risc-v-gcc/10.1.0/bin/../lib/gcc/riscv64-unknown-elf/10.1.0/../../../../riscv64-unknown-elf/lib/rv32im/ilp32\libc.a(lib_a-fclose.o)
_fseek_r                                          d:/program_files/programming/rt-threadstudio/repo/extract/toolchain_support_packages/risc-v/risc-v-gcc/10.1.0/bin/../lib/gcc/riscv64-unknown-elf/10.1.0/../../../../riscv64-unknown-elf/lib/rv32im/ilp32\libc.a(lib_a-fseek.o)
                                                  d:/program_files/programming/rt-threadstudio/repo/extract/toolchain_support_packages/risc-v/risc-v-gcc/10.1.0/bin/../lib/gcc/riscv64-unknown-elf/10.1.0/../../../../riscv64-unknown-elf/lib/rv32im/ilp32\libc.a(lib_a-fopen.o)
_fseeko_r                                         d:/program_files/programming/rt-threadstudio/repo/extract/toolchain_support_packages/risc-v/risc-v-gcc/10.1.0/bin/../lib/gcc/riscv64-unknown-elf/10.1.0/../../../../riscv64-unknown-elf/lib/rv32im/ilp32\libc.a(lib_a-fseeko.o)
                                                  d:/program_files/programming/rt-threadstudio/repo/extract/toolchain_support_packages/risc-v/risc-v-gcc/10.1.0/bin/../lib/gcc/riscv64-unknown-elf/10.1.0/../../../../riscv64-unknown-elf/lib/rv32im/ilp32\libc.a(lib_a-fseek.o)
_fstat_r                                          build\kernel\components\libc\compilers\newlib\syscalls.o
                                                  d:/program_files/programming/rt-threadstudio/repo/extract/toolchain_support_packages/risc-v/risc-v-gcc/10.1.0/bin/../lib/gcc/riscv64-unknown-elf/10.1.0/../../../../riscv64-unknown-elf/lib/rv32im/ilp32\libc.a(lib_a-makebuf.o)
                                                  d:/program_files/programming/rt-threadstudio/repo/extract/toolchain_support_packages/risc-v/risc-v-gcc/10.1.0/bin/../lib/gcc/riscv64-unknown-elf/10.1.0/../../../../riscv64-unknown-elf/lib/rv32im/ilp32\libc.a(lib_a-fseeko.o)
_ftello_r                                         d:/program_files/programming/rt-threadstudio/repo/extract/toolchain_support_packages/risc-v/risc-v-gcc/10.1.0/bin/../lib/gcc/riscv64-unknown-elf/10.1.0/../../../../riscv64-unknown-elf/lib/rv32im/ilp32\libc.a(lib_a-ftello.o)
                                                  d:/program_files/programming/rt-threadstudio/repo/extract/toolchain_support_packages/risc-v/risc-v-gcc/10.1.0/bin/../lib/gcc/riscv64-unknown-elf/10.1.0/../../../../riscv64-unknown-elf/lib/rv32im/ilp32\libc.a(lib_a-fseeko.o)
_fwalk                                            d:/program_files/programming/rt-threadstudio/repo/extract/toolchain_support_packages/risc-v/risc-v-gcc/10.1.0/bin/../lib/gcc/riscv64-unknown-elf/10.1.0/../../../../riscv64-unknown-elf/lib/rv32im/ilp32\libc.a(lib_a-fwalk.o)
                                                  d:/program_files/programming/rt-threadstudio/repo/extract/toolchain_support_packages/risc-v/risc-v-gcc/10.1.0/bin/../lib/gcc/riscv64-unknown-elf/10.1.0/../../../../riscv64-unknown-elf/lib/rv32im/ilp32\libc.a(lib_a-refill.o)
                                                  d:/program_files/programming/rt-threadstudio/repo/extract/toolchain_support_packages/risc-v/risc-v-gcc/10.1.0/bin/../lib/gcc/riscv64-unknown-elf/10.1.0/../../../../riscv64-unknown-elf/lib/rv32im/ilp32\libc.a(lib_a-findfp.o)
_fwalk_reent                                      d:/program_files/programming/rt-threadstudio/repo/extract/toolchain_support_packages/risc-v/risc-v-gcc/10.1.0/bin/../lib/gcc/riscv64-unknown-elf/10.1.0/../../../../riscv64-unknown-elf/lib/rv32im/ilp32\libc.a(lib_a-fwalk.o)
                                                  d:/program_files/programming/rt-threadstudio/repo/extract/toolchain_support_packages/risc-v/risc-v-gcc/10.1.0/bin/../lib/gcc/riscv64-unknown-elf/10.1.0/../../../../riscv64-unknown-elf/lib/rv32im/ilp32\libc.a(lib_a-findfp.o)
                                                  d:/program_files/programming/rt-threadstudio/repo/extract/toolchain_support_packages/risc-v/risc-v-gcc/10.1.0/bin/../lib/gcc/riscv64-unknown-elf/10.1.0/../../../../riscv64-unknown-elf/lib/rv32im/ilp32\libc.a(lib_a-fflush.o)
_getenv_r                                         d:/program_files/programming/rt-threadstudio/repo/extract/toolchain_support_packages/risc-v/risc-v-gcc/10.1.0/bin/../lib/gcc/riscv64-unknown-elf/10.1.0/../../../../riscv64-unknown-elf/lib/rv32im/ilp32\libc.a(lib_a-getenv_r.o)
_getpid_r                                         build\kernel\components\libc\compilers\newlib\syscalls.o
                                                  d:/program_files/programming/rt-threadstudio/repo/extract/toolchain_support_packages/risc-v/risc-v-gcc/10.1.0/bin/../lib/gcc/riscv64-unknown-elf/10.1.0/../../../../riscv64-unknown-elf/lib/rv32im/ilp32\libc.a(lib_a-signal.o)
_global_impure_ptr                                d:/program_files/programming/rt-threadstudio/repo/extract/toolchain_support_packages/risc-v/risc-v-gcc/10.1.0/bin/../lib/gcc/riscv64-unknown-elf/10.1.0/../../../../riscv64-unknown-elf/lib/rv32im/ilp32\libc.a(lib_a-impure.o)
                                                  d:/program_files/programming/rt-threadstudio/repo/extract/toolchain_support_packages/risc-v/risc-v-gcc/10.1.0/bin/../lib/gcc/riscv64-unknown-elf/10.1.0/../../../../riscv64-unknown-elf/lib/rv32im/ilp32\libc.a(lib_a-refill.o)
                                                  d:/program_files/programming/rt-threadstudio/repo/extract/toolchain_support_packages/risc-v/risc-v-gcc/10.1.0/bin/../lib/gcc/riscv64-unknown-elf/10.1.0/../../../../riscv64-unknown-elf/lib/rv32im/ilp32\libc.a(lib_a-findfp.o)
                                                  d:/program_files/programming/rt-threadstudio/repo/extract/toolchain_support_packages/risc-v/risc-v-gcc/10.1.0/bin/../lib/gcc/riscv64-unknown-elf/10.1.0/../../../../riscv64-unknown-elf/lib/rv32im/ilp32\libc.a(lib_a-fflush.o)
                                                  build\kernel\components\libc\compilers\newlib\stdio.o
_gp                                               libraries\hal_libraries\ab32vg1_hal\libhal.a(save-restore.o)
                                                  libraries\hal_libraries\bmsis\source\startup.o
_impure_ptr                                       d:/program_files/programming/rt-threadstudio/repo/extract/toolchain_support_packages/risc-v/risc-v-gcc/10.1.0/bin/../lib/gcc/riscv64-unknown-elf/10.1.0/../../../../riscv64-unknown-elf/lib/rv32im/ilp32\libc.a(lib_a-impure.o)
                                                  d:/program_files/programming/rt-threadstudio/repo/extract/toolchain_support_packages/risc-v/risc-v-gcc/10.1.0/bin/../lib/gcc/riscv64-unknown-elf/10.1.0/../../../../riscv64-unknown-elf/lib/rv32im/ilp32\libc.a(lib_a-wcrtomb.o)
                                                  d:/program_files/programming/rt-threadstudio/repo/extract/toolchain_support_packages/risc-v/risc-v-gcc/10.1.0/bin/../lib/gcc/riscv64-unknown-elf/10.1.0/../../../../riscv64-unknown-elf/lib/rv32im/ilp32\libc.a(lib_a-wbuf.o)
                                                  d:/program_files/programming/rt-threadstudio/repo/extract/toolchain_support_packages/risc-v/risc-v-gcc/10.1.0/bin/../lib/gcc/riscv64-unknown-elf/10.1.0/../../../../riscv64-unknown-elf/lib/rv32im/ilp32\libc.a(lib_a-signal.o)
                                                  d:/program_files/programming/rt-threadstudio/repo/extract/toolchain_support_packages/risc-v/risc-v-gcc/10.1.0/bin/../lib/gcc/riscv64-unknown-elf/10.1.0/../../../../riscv64-unknown-elf/lib/rv32im/ilp32\libc.a(lib_a-fputwc.o)
                                                  d:/program_files/programming/rt-threadstudio/repo/extract/toolchain_support_packages/risc-v/risc-v-gcc/10.1.0/bin/../lib/gcc/riscv64-unknown-elf/10.1.0/../../../../riscv64-unknown-elf/lib/rv32im/ilp32\libc.a(lib_a-wsetup.o)
                                                  d:/program_files/programming/rt-threadstudio/repo/extract/toolchain_support_packages/risc-v/risc-v-gcc/10.1.0/bin/../lib/gcc/riscv64-unknown-elf/10.1.0/../../../../riscv64-unknown-elf/lib/rv32im/ilp32\libc.a(lib_a-vfiprintf.o)
                                                  d:/program_files/programming/rt-threadstudio/repo/extract/toolchain_support_packages/risc-v/risc-v-gcc/10.1.0/bin/../lib/gcc/riscv64-unknown-elf/10.1.0/../../../../riscv64-unknown-elf/lib/rv32im/ilp32\libc.a(lib_a-fiprintf.o)
                                                  d:/program_files/programming/rt-threadstudio/repo/extract/toolchain_support_packages/risc-v/risc-v-gcc/10.1.0/bin/../lib/gcc/riscv64-unknown-elf/10.1.0/../../../../riscv64-unknown-elf/lib/rv32im/ilp32\libc.a(lib_a-assert.o)
                                                  d:/program_files/programming/rt-threadstudio/repo/extract/toolchain_support_packages/risc-v/risc-v-gcc/10.1.0/bin/../lib/gcc/riscv64-unknown-elf/10.1.0/../../../../riscv64-unknown-elf/lib/rv32im/ilp32\libc.a(lib_a-sprintf.o)
                                                  d:/program_files/programming/rt-threadstudio/repo/extract/toolchain_support_packages/risc-v/risc-v-gcc/10.1.0/bin/../lib/gcc/riscv64-unknown-elf/10.1.0/../../../../riscv64-unknown-elf/lib/rv32im/ilp32\libc.a(lib_a-malloc.o)
                                                  d:/program_files/programming/rt-threadstudio/repo/extract/toolchain_support_packages/risc-v/risc-v-gcc/10.1.0/bin/../lib/gcc/riscv64-unknown-elf/10.1.0/../../../../riscv64-unknown-elf/lib/rv32im/ilp32\libc.a(lib_a-strtol.o)
                                                  d:/program_files/programming/rt-threadstudio/repo/extract/toolchain_support_packages/risc-v/risc-v-gcc/10.1.0/bin/../lib/gcc/riscv64-unknown-elf/10.1.0/../../../../riscv64-unknown-elf/lib/rv32im/ilp32\libc.a(lib_a-snprintf.o)
                                                  d:/program_files/programming/rt-threadstudio/repo/extract/toolchain_support_packages/risc-v/risc-v-gcc/10.1.0/bin/../lib/gcc/riscv64-unknown-elf/10.1.0/../../../../riscv64-unknown-elf/lib/rv32im/ilp32\libc.a(lib_a-setvbuf.o)
                                                  d:/program_files/programming/rt-threadstudio/repo/extract/toolchain_support_packages/risc-v/risc-v-gcc/10.1.0/bin/../lib/gcc/riscv64-unknown-elf/10.1.0/../../../../riscv64-unknown-elf/lib/rv32im/ilp32\libc.a(lib_a-putenv.o)
                                                  d:/program_files/programming/rt-threadstudio/repo/extract/toolchain_support_packages/risc-v/risc-v-gcc/10.1.0/bin/../lib/gcc/riscv64-unknown-elf/10.1.0/../../../../riscv64-unknown-elf/lib/rv32im/ilp32\libc.a(lib_a-ftello.o)
                                                  d:/program_files/programming/rt-threadstudio/repo/extract/toolchain_support_packages/risc-v/risc-v-gcc/10.1.0/bin/../lib/gcc/riscv64-unknown-elf/10.1.0/../../../../riscv64-unknown-elf/lib/rv32im/ilp32\libc.a(lib_a-fseeko.o)
                                                  d:/program_files/programming/rt-threadstudio/repo/extract/toolchain_support_packages/risc-v/risc-v-gcc/10.1.0/bin/../lib/gcc/riscv64-unknown-elf/10.1.0/../../../../riscv64-unknown-elf/lib/rv32im/ilp32\libc.a(lib_a-fseek.o)
                                                  d:/program_files/programming/rt-threadstudio/repo/extract/toolchain_support_packages/risc-v/risc-v-gcc/10.1.0/bin/../lib/gcc/riscv64-unknown-elf/10.1.0/../../../../riscv64-unknown-elf/lib/rv32im/ilp32\libc.a(lib_a-fopen.o)
                                                  d:/program_files/programming/rt-threadstudio/repo/extract/toolchain_support_packages/risc-v/risc-v-gcc/10.1.0/bin/../lib/gcc/riscv64-unknown-elf/10.1.0/../../../../riscv64-unknown-elf/lib/rv32im/ilp32\libc.a(lib_a-findfp.o)
                                                  d:/program_files/programming/rt-threadstudio/repo/extract/toolchain_support_packages/risc-v/risc-v-gcc/10.1.0/bin/../lib/gcc/riscv64-unknown-elf/10.1.0/../../../../riscv64-unknown-elf/lib/rv32im/ilp32\libc.a(lib_a-fileno.o)
                                                  d:/program_files/programming/rt-threadstudio/repo/extract/toolchain_support_packages/risc-v/risc-v-gcc/10.1.0/bin/../lib/gcc/riscv64-unknown-elf/10.1.0/../../../../riscv64-unknown-elf/lib/rv32im/ilp32\libc.a(lib_a-fflush.o)
                                                  d:/program_files/programming/rt-threadstudio/repo/extract/toolchain_support_packages/risc-v/risc-v-gcc/10.1.0/bin/../lib/gcc/riscv64-unknown-elf/10.1.0/../../../../riscv64-unknown-elf/lib/rv32im/ilp32\libc.a(lib_a-fclose.o)
_init_signal                                      d:/program_files/programming/rt-threadstudio/repo/extract/toolchain_support_packages/risc-v/risc-v-gcc/10.1.0/bin/../lib/gcc/riscv64-unknown-elf/10.1.0/../../../../riscv64-unknown-elf/lib/rv32im/ilp32\libc.a(lib_a-signal.o)
_init_signal_r                                    d:/program_files/programming/rt-threadstudio/repo/extract/toolchain_support_packages/risc-v/risc-v-gcc/10.1.0/bin/../lib/gcc/riscv64-unknown-elf/10.1.0/../../../../riscv64-unknown-elf/lib/rv32im/ilp32\libc.a(lib_a-signal.o)
_isatty_r                                         build\kernel\components\libc\compilers\newlib\syscalls.o
                                                  d:/program_files/programming/rt-threadstudio/repo/extract/toolchain_support_packages/risc-v/risc-v-gcc/10.1.0/bin/../lib/gcc/riscv64-unknown-elf/10.1.0/../../../../riscv64-unknown-elf/lib/rv32im/ilp32\libc.a(lib_a-makebuf.o)
_kill_r                                           build\kernel\components\libc\compilers\newlib\syscalls.o
                                                  d:/program_files/programming/rt-threadstudio/repo/extract/toolchain_support_packages/risc-v/risc-v-gcc/10.1.0/bin/../lib/gcc/riscv64-unknown-elf/10.1.0/../../../../riscv64-unknown-elf/lib/rv32im/ilp32\libc.a(lib_a-signal.o)
_ldcheck                                          d:/program_files/programming/rt-threadstudio/repo/extract/toolchain_support_packages/risc-v/risc-v-gcc/10.1.0/bin/../lib/gcc/riscv64-unknown-elf/10.1.0/../../../../riscv64-unknown-elf/lib/rv32im/ilp32\libc.a(lib_a-ldtoa.o)
                                                  d:/program_files/programming/rt-threadstudio/repo/extract/toolchain_support_packages/risc-v/risc-v-gcc/10.1.0/bin/../lib/gcc/riscv64-unknown-elf/10.1.0/../../../../riscv64-unknown-elf/lib/rv32im/ilp32\libc.a(lib_a-svfprintf.o)
_ldtoa_r                                          d:/program_files/programming/rt-threadstudio/repo/extract/toolchain_support_packages/risc-v/risc-v-gcc/10.1.0/bin/../lib/gcc/riscv64-unknown-elf/10.1.0/../../../../riscv64-unknown-elf/lib/rv32im/ilp32\libc.a(lib_a-ldtoa.o)
                                                  d:/program_files/programming/rt-threadstudio/repo/extract/toolchain_support_packages/risc-v/risc-v-gcc/10.1.0/bin/../lib/gcc/riscv64-unknown-elf/10.1.0/../../../../riscv64-unknown-elf/lib/rv32im/ilp32\libc.a(lib_a-svfprintf.o)
_link_r                                           build\kernel\components\libc\compilers\newlib\syscalls.o
_localeconv_r                                     d:/program_files/programming/rt-threadstudio/repo/extract/toolchain_support_packages/risc-v/risc-v-gcc/10.1.0/bin/../lib/gcc/riscv64-unknown-elf/10.1.0/../../../../riscv64-unknown-elf/lib/rv32im/ilp32\libc.a(lib_a-localeconv.o)
                                                  d:/program_files/programming/rt-threadstudio/repo/extract/toolchain_support_packages/risc-v/risc-v-gcc/10.1.0/bin/../lib/gcc/riscv64-unknown-elf/10.1.0/../../../../riscv64-unknown-elf/lib/rv32im/ilp32\libc.a(lib_a-vfiprintf.o)
                                                  d:/program_files/programming/rt-threadstudio/repo/extract/toolchain_support_packages/risc-v/risc-v-gcc/10.1.0/bin/../lib/gcc/riscv64-unknown-elf/10.1.0/../../../../riscv64-unknown-elf/lib/rv32im/ilp32\libc.a(lib_a-svfiprintf.o)
                                                  d:/program_files/programming/rt-threadstudio/repo/extract/toolchain_support_packages/risc-v/risc-v-gcc/10.1.0/bin/../lib/gcc/riscv64-unknown-elf/10.1.0/../../../../riscv64-unknown-elf/lib/rv32im/ilp32\libc.a(lib_a-svfprintf.o)
_lseek_r                                          build\kernel\components\libc\compilers\newlib\syscalls.o
                                                  d:/program_files/programming/rt-threadstudio/repo/extract/toolchain_support_packages/risc-v/risc-v-gcc/10.1.0/bin/../lib/gcc/riscv64-unknown-elf/10.1.0/../../../../riscv64-unknown-elf/lib/rv32im/ilp32\libc.a(lib_a-stdio.o)
_malloc_r                                         build\kernel\components\libc\compilers\newlib\syscalls.o
                                                  d:/program_files/programming/rt-threadstudio/repo/extract/toolchain_support_packages/risc-v/risc-v-gcc/10.1.0/bin/../lib/gcc/riscv64-unknown-elf/10.1.0/../../../../riscv64-unknown-elf/lib/rv32im/ilp32\libc.a(lib_a-signal.o)
                                                  d:/program_files/programming/rt-threadstudio/repo/extract/toolchain_support_packages/risc-v/risc-v-gcc/10.1.0/bin/../lib/gcc/riscv64-unknown-elf/10.1.0/../../../../riscv64-unknown-elf/lib/rv32im/ilp32\libc.a(lib_a-fvwrite.o)
                                                  d:/program_files/programming/rt-threadstudio/repo/extract/toolchain_support_packages/risc-v/risc-v-gcc/10.1.0/bin/../lib/gcc/riscv64-unknown-elf/10.1.0/../../../../riscv64-unknown-elf/lib/rv32im/ilp32\libc.a(lib_a-svfiprintf.o)
                                                  d:/program_files/programming/rt-threadstudio/repo/extract/toolchain_support_packages/risc-v/risc-v-gcc/10.1.0/bin/../lib/gcc/riscv64-unknown-elf/10.1.0/../../../../riscv64-unknown-elf/lib/rv32im/ilp32\libc.a(lib_a-malloc.o)
                                                  d:/program_files/programming/rt-threadstudio/repo/extract/toolchain_support_packages/risc-v/risc-v-gcc/10.1.0/bin/../lib/gcc/riscv64-unknown-elf/10.1.0/../../../../riscv64-unknown-elf/lib/rv32im/ilp32\libc.a(lib_a-svfprintf.o)
                                                  d:/program_files/programming/rt-threadstudio/repo/extract/toolchain_support_packages/risc-v/risc-v-gcc/10.1.0/bin/../lib/gcc/riscv64-unknown-elf/10.1.0/../../../../riscv64-unknown-elf/lib/rv32im/ilp32\libc.a(lib_a-strdup_r.o)
                                                  d:/program_files/programming/rt-threadstudio/repo/extract/toolchain_support_packages/risc-v/risc-v-gcc/10.1.0/bin/../lib/gcc/riscv64-unknown-elf/10.1.0/../../../../riscv64-unknown-elf/lib/rv32im/ilp32\libc.a(lib_a-setenv_r.o)
                                                  d:/program_files/programming/rt-threadstudio/repo/extract/toolchain_support_packages/risc-v/risc-v-gcc/10.1.0/bin/../lib/gcc/riscv64-unknown-elf/10.1.0/../../../../riscv64-unknown-elf/lib/rv32im/ilp32\libc.a(lib_a-makebuf.o)
                                                  d:/program_files/programming/rt-threadstudio/repo/extract/toolchain_support_packages/risc-v/risc-v-gcc/10.1.0/bin/../lib/gcc/riscv64-unknown-elf/10.1.0/../../../../riscv64-unknown-elf/lib/rv32im/ilp32\libc.a(lib_a-findfp.o)
_mbtowc_r                                         d:/program_files/programming/rt-threadstudio/repo/extract/toolchain_support_packages/risc-v/risc-v-gcc/10.1.0/bin/../lib/gcc/riscv64-unknown-elf/10.1.0/../../../../riscv64-unknown-elf/lib/rv32im/ilp32\libc.a(lib_a-mbtowc_r.o)
_mkdir_r                                          build\kernel\components\libc\compilers\newlib\syscalls.o
_mprec_log10                                      d:/program_files/programming/rt-threadstudio/repo/extract/toolchain_support_packages/risc-v/risc-v-gcc/10.1.0/bin/../lib/gcc/riscv64-unknown-elf/10.1.0/../../../../riscv64-unknown-elf/lib/rv32im/ilp32\libc.a(lib_a-mprec.o)
_open_r                                           build\kernel\components\libc\compilers\newlib\syscalls.o
                                                  d:/program_files/programming/rt-threadstudio/repo/extract/toolchain_support_packages/risc-v/risc-v-gcc/10.1.0/bin/../lib/gcc/riscv64-unknown-elf/10.1.0/../../../../riscv64-unknown-elf/lib/rv32im/ilp32\libc.a(lib_a-fopen.o)
_putenv_r                                         d:/program_files/programming/rt-threadstudio/repo/extract/toolchain_support_packages/risc-v/risc-v-gcc/10.1.0/bin/../lib/gcc/riscv64-unknown-elf/10.1.0/../../../../riscv64-unknown-elf/lib/rv32im/ilp32\libc.a(lib_a-putenv_r.o)
                                                  d:/program_files/programming/rt-threadstudio/repo/extract/toolchain_support_packages/risc-v/risc-v-gcc/10.1.0/bin/../lib/gcc/riscv64-unknown-elf/10.1.0/../../../../riscv64-unknown-elf/lib/rv32im/ilp32\libc.a(lib_a-putenv.o)
_raise_r                                          d:/program_files/programming/rt-threadstudio/repo/extract/toolchain_support_packages/risc-v/risc-v-gcc/10.1.0/bin/../lib/gcc/riscv64-unknown-elf/10.1.0/../../../../riscv64-unknown-elf/lib/rv32im/ilp32\libc.a(lib_a-signal.o)
_read_r                                           build\kernel\components\libc\compilers\newlib\syscalls.o
                                                  d:/program_files/programming/rt-threadstudio/repo/extract/toolchain_support_packages/risc-v/risc-v-gcc/10.1.0/bin/../lib/gcc/riscv64-unknown-elf/10.1.0/../../../../riscv64-unknown-elf/lib/rv32im/ilp32\libc.a(lib_a-stdio.o)
_realloc_r                                        build\kernel\components\libc\compilers\newlib\syscalls.o
                                                  d:/program_files/programming/rt-threadstudio/repo/extract/toolchain_support_packages/risc-v/risc-v-gcc/10.1.0/bin/../lib/gcc/riscv64-unknown-elf/10.1.0/../../../../riscv64-unknown-elf/lib/rv32im/ilp32\libc.a(lib_a-fvwrite.o)
                                                  d:/program_files/programming/rt-threadstudio/repo/extract/toolchain_support_packages/risc-v/risc-v-gcc/10.1.0/bin/../lib/gcc/riscv64-unknown-elf/10.1.0/../../../../riscv64-unknown-elf/lib/rv32im/ilp32\libc.a(lib_a-svfiprintf.o)
                                                  d:/program_files/programming/rt-threadstudio/repo/extract/toolchain_support_packages/risc-v/risc-v-gcc/10.1.0/bin/../lib/gcc/riscv64-unknown-elf/10.1.0/../../../../riscv64-unknown-elf/lib/rv32im/ilp32\libc.a(lib_a-setenv_r.o)
_rename_r                                         build\kernel\components\libc\compilers\newlib\syscalls.o
_rt_errno                                         build\kernel\src\kservice.o
                                                  build\kernel\components\libc\compilers\newlib\syscalls.o
_setenv_r                                         d:/program_files/programming/rt-threadstudio/repo/extract/toolchain_support_packages/risc-v/risc-v-gcc/10.1.0/bin/../lib/gcc/riscv64-unknown-elf/10.1.0/../../../../riscv64-unknown-elf/lib/rv32im/ilp32\libc.a(lib_a-setenv_r.o)
                                                  d:/program_files/programming/rt-threadstudio/repo/extract/toolchain_support_packages/risc-v/risc-v-gcc/10.1.0/bin/../lib/gcc/riscv64-unknown-elf/10.1.0/../../../../riscv64-unknown-elf/lib/rv32im/ilp32\libc.a(lib_a-putenv_r.o)
_setlocale_r                                      d:/program_files/programming/rt-threadstudio/repo/extract/toolchain_support_packages/risc-v/risc-v-gcc/10.1.0/bin/../lib/gcc/riscv64-unknown-elf/10.1.0/../../../../riscv64-unknown-elf/lib/rv32im/ilp32\libc.a(lib_a-locale.o)
_signal_r                                         d:/program_files/programming/rt-threadstudio/repo/extract/toolchain_support_packages/risc-v/risc-v-gcc/10.1.0/bin/../lib/gcc/riscv64-unknown-elf/10.1.0/../../../../riscv64-unknown-elf/lib/rv32im/ilp32\libc.a(lib_a-signal.o)
_snprintf_r                                       d:/program_files/programming/rt-threadstudio/repo/extract/toolchain_support_packages/risc-v/risc-v-gcc/10.1.0/bin/../lib/gcc/riscv64-unknown-elf/10.1.0/../../../../riscv64-unknown-elf/lib/rv32im/ilp32\libc.a(lib_a-snprintf.o)
_sprintf_r                                        d:/program_files/programming/rt-threadstudio/repo/extract/toolchain_support_packages/risc-v/risc-v-gcc/10.1.0/bin/../lib/gcc/riscv64-unknown-elf/10.1.0/../../../../riscv64-unknown-elf/lib/rv32im/ilp32\libc.a(lib_a-sprintf.o)
_start                                            libraries\hal_libraries\bmsis\source\startup.o
_stat_r                                           build\kernel\components\libc\compilers\newlib\syscalls.o
_strdup_r                                         d:/program_files/programming/rt-threadstudio/repo/extract/toolchain_support_packages/risc-v/risc-v-gcc/10.1.0/bin/../lib/gcc/riscv64-unknown-elf/10.1.0/../../../../riscv64-unknown-elf/lib/rv32im/ilp32\libc.a(lib_a-strdup_r.o)
                                                  d:/program_files/programming/rt-threadstudio/repo/extract/toolchain_support_packages/risc-v/risc-v-gcc/10.1.0/bin/../lib/gcc/riscv64-unknown-elf/10.1.0/../../../../riscv64-unknown-elf/lib/rv32im/ilp32\libc.a(lib_a-putenv_r.o)
_strtol_r                                         d:/program_files/programming/rt-threadstudio/repo/extract/toolchain_support_packages/risc-v/risc-v-gcc/10.1.0/bin/../lib/gcc/riscv64-unknown-elf/10.1.0/../../../../riscv64-unknown-elf/lib/rv32im/ilp32\libc.a(lib_a-strtol.o)
                                                  d:/program_files/programming/rt-threadstudio/repo/extract/toolchain_support_packages/risc-v/risc-v-gcc/10.1.0/bin/../lib/gcc/riscv64-unknown-elf/10.1.0/../../../../riscv64-unknown-elf/lib/rv32im/ilp32\libc.a(lib_a-atoi.o)
_svfiprintf_r                                     d:/program_files/programming/rt-threadstudio/repo/extract/toolchain_support_packages/risc-v/risc-v-gcc/10.1.0/bin/../lib/gcc/riscv64-unknown-elf/10.1.0/../../../../riscv64-unknown-elf/lib/rv32im/ilp32\libc.a(lib_a-svfiprintf.o)
_svfprintf_r                                      d:/program_files/programming/rt-threadstudio/repo/extract/toolchain_support_packages/risc-v/risc-v-gcc/10.1.0/bin/../lib/gcc/riscv64-unknown-elf/10.1.0/../../../../riscv64-unknown-elf/lib/rv32im/ilp32\libc.a(lib_a-svfprintf.o)
                                                  d:/program_files/programming/rt-threadstudio/repo/extract/toolchain_support_packages/risc-v/risc-v-gcc/10.1.0/bin/../lib/gcc/riscv64-unknown-elf/10.1.0/../../../../riscv64-unknown-elf/lib/rv32im/ilp32\libc.a(lib_a-sprintf.o)
                                                  d:/program_files/programming/rt-threadstudio/repo/extract/toolchain_support_packages/risc-v/risc-v-gcc/10.1.0/bin/../lib/gcc/riscv64-unknown-elf/10.1.0/../../../../riscv64-unknown-elf/lib/rv32im/ilp32\libc.a(lib_a-snprintf.o)
_syscall_table_begin                              build\kernel\components\finsh\shell.o
                                                  build\kernel\components\finsh\msh.o
                                                  build\kernel\components\finsh\finsh_vm.o
                                                  build\kernel\components\finsh\cmd.o
_syscall_table_end                                build\kernel\components\finsh\shell.o
                                                  build\kernel\components\finsh\msh.o
                                                  build\kernel\components\finsh\finsh_vm.o
                                                  build\kernel\components\finsh\cmd.o
_system                                           build\kernel\components\libc\compilers\newlib\syscalls.o
_sysvar_table_begin                               build\kernel\components\finsh\shell.o
                                                  build\kernel\components\finsh\finsh_var.o
                                                  build\kernel\components\finsh\cmd.o
_sysvar_table_end                                 build\kernel\components\finsh\shell.o
                                                  build\kernel\components\finsh\finsh_var.o
                                                  build\kernel\components\finsh\cmd.o
_tp                                               libraries\hal_libraries\bmsis\source\startup.o
_unlink_r                                         build\kernel\components\libc\compilers\newlib\syscalls.o
_unsetenv_r                                       d:/program_files/programming/rt-threadstudio/repo/extract/toolchain_support_packages/risc-v/risc-v-gcc/10.1.0/bin/../lib/gcc/riscv64-unknown-elf/10.1.0/../../../../riscv64-unknown-elf/lib/rv32im/ilp32\libc.a(lib_a-setenv_r.o)
_vfiprintf_r                                      d:/program_files/programming/rt-threadstudio/repo/extract/toolchain_support_packages/risc-v/risc-v-gcc/10.1.0/bin/../lib/gcc/riscv64-unknown-elf/10.1.0/../../../../riscv64-unknown-elf/lib/rv32im/ilp32\libc.a(lib_a-vfiprintf.o)
                                                  d:/program_files/programming/rt-threadstudio/repo/extract/toolchain_support_packages/risc-v/risc-v-gcc/10.1.0/bin/../lib/gcc/riscv64-unknown-elf/10.1.0/../../../../riscv64-unknown-elf/lib/rv32im/ilp32\libc.a(lib_a-fiprintf.o)
_wait_r                                           build\kernel\components\libc\compilers\newlib\syscalls.o
_wcrtomb_r                                        d:/program_files/programming/rt-threadstudio/repo/extract/toolchain_support_packages/risc-v/risc-v-gcc/10.1.0/bin/../lib/gcc/riscv64-unknown-elf/10.1.0/../../../../riscv64-unknown-elf/lib/rv32im/ilp32\libc.a(lib_a-wcrtomb.o)
                                                  d:/program_files/programming/rt-threadstudio/repo/extract/toolchain_support_packages/risc-v/risc-v-gcc/10.1.0/bin/../lib/gcc/riscv64-unknown-elf/10.1.0/../../../../riscv64-unknown-elf/lib/rv32im/ilp32\libc.a(lib_a-fputwc.o)
_wctomb_r                                         d:/program_files/programming/rt-threadstudio/repo/extract/toolchain_support_packages/risc-v/risc-v-gcc/10.1.0/bin/../lib/gcc/riscv64-unknown-elf/10.1.0/../../../../riscv64-unknown-elf/lib/rv32im/ilp32\libc.a(lib_a-wctomb_r.o)
_write_r                                          build\kernel\components\libc\compilers\newlib\syscalls.o
                                                  d:/program_files/programming/rt-threadstudio/repo/extract/toolchain_support_packages/risc-v/risc-v-gcc/10.1.0/bin/../lib/gcc/riscv64-unknown-elf/10.1.0/../../../../riscv64-unknown-elf/lib/rv32im/ilp32\libc.a(lib_a-stdio.o)
ab32_clr_irkey                                    libraries\hal_drivers\drv_irrx.o
ab32_get_irkey                                    libraries\hal_drivers\drv_irrx.o
ab32_mmcsd_change                                 libraries\hal_drivers\drv_sdio.o
ab32_sdcard_mount                                 build\applications\mnt.o
abort                                             d:/program_files/programming/rt-threadstudio/repo/extract/toolchain_support_packages/risc-v/risc-v-gcc/10.1.0/bin/../lib/gcc/riscv64-unknown-elf/10.1.0/../../../../riscv64-unknown-elf/lib/rv32im/ilp32\libc.a(lib_a-abort.o)
                                                  d:/program_files/programming/rt-threadstudio/repo/extract/toolchain_support_packages/risc-v/risc-v-gcc/10.1.0/bin/../lib/gcc/riscv64-unknown-elf/10.1.0/../../../../riscv64-unknown-elf/lib/rv32im/ilp32\libc.a(lib_a-assert.o)
access                                            build\kernel\components\dfs\src\dfs_posix.o
adpll_init                                        build\board\ports\audio\drv_sound.o
asctime                                           build\kernel\components\libc\compilers\common\time.o
asctime_r                                         build\kernel\components\libc\compilers\common\time.o
atoi                                              d:/program_files/programming/rt-threadstudio/repo/extract/toolchain_support_packages/risc-v/risc-v-gcc/10.1.0/bin/../lib/gcc/riscv64-unknown-elf/10.1.0/../../../../riscv64-unknown-elf/lib/rv32im/ilp32\libc.a(lib_a-atoi.o)
                                                  build\kernel\components\finsh\finsh_token.o
                                                  build\kernel\components\drivers\rtc\rtc.o
                                                  build\kernel\components\drivers\misc\rt_drv_pwm.o
                                                  build\kernel\components\drivers\misc\adc.o
audio_sem_pend                                    build\board\ports\audio\drv_sound.o
audio_sem_post                                    build\board\ports\audio\drv_sound.o
bitset_cnt                                        libraries\hal_libraries\ab32vg1_hal\libhal.a(platform.o)
cache_cb                                          libraries\hal_libraries\ab32vg1_hal\libhal.a(cache.o)
                                                  libraries\hal_libraries\ab32vg1_hal\libhal.a(s_cache.o)
cache_init                                        build\board\board.o
                                                  libraries\hal_libraries\bmsis\source\startup.o
cat                                               build\kernel\components\dfs\src\dfs_file.o
                                                  build\kernel\components\finsh\msh_file.o
chdir                                             build\kernel\components\dfs\src\dfs_posix.o
                                                  build\kernel\components\finsh\msh_file.o
clock                                             build\kernel\components\libc\compilers\common\time.o
close                                             build\kernel\components\dfs\src\dfs_posix.o
                                                  build\kernel\components\libc\compilers\newlib\syscalls.o
                                                  build\kernel\components\finsh\msh_file.o
closedir                                          build\kernel\components\dfs\src\dfs_posix.o
                                                  build\kernel\components\finsh\msh.o
                                                  build\kernel\components\finsh\msh_file.o
cmd_cat                                           build\kernel\components\finsh\msh_file.o
cmd_cd                                            build\kernel\components\finsh\msh_file.o
cmd_cp                                            build\kernel\components\finsh\msh_file.o
cmd_df                                            build\kernel\components\finsh\msh_file.o
cmd_echo                                          build\kernel\components\finsh\msh_file.o
cmd_free                                          build\kernel\components\finsh\msh.o
cmd_ls                                            build\kernel\components\finsh\msh_file.o
cmd_mkdir                                         build\kernel\components\finsh\msh_file.o
cmd_mkfs                                          build\kernel\components\finsh\msh_file.o
cmd_mount                                         build\kernel\components\finsh\msh_file.o
cmd_mv                                            build\kernel\components\finsh\msh_file.o
cmd_ps                                            build\kernel\components\finsh\msh.o
cmd_pwd                                           build\kernel\components\finsh\msh_file.o
cmd_rm                                            build\kernel\components\finsh\msh_file.o
cmd_umount                                        build\kernel\components\finsh\msh_file.o
copy                                              build\kernel\components\dfs\src\dfs_file.o
                                                  build\kernel\components\finsh\msh_file.o
cpu_irq_comm                                      libraries\hal_libraries\bmsis\source\startup.o
                                                  build\board\board.o
cpu_irq_comm_do                                   libcpu\cpu\interrupt.o
                                                  libraries\hal_libraries\bmsis\source\startup.o
cpu_irq_comm_hook                                 libcpu\cpu\interrupt.o
                                                  libcpu\cpu\context_gcc.o
ctime                                             build\kernel\components\libc\compilers\common\time.o
                                                  build\kernel\components\drivers\rtc\rtc.o
ctime_r                                           build\kernel\components\libc\compilers\common\time.o
dac_start                                         build\board\ports\audio\drv_sound.o
debug_dump_err_str_1                              libraries\hal_libraries\ab32vg1_hal\libhal.a(debug.o)
debug_dump_info                                   libraries\hal_libraries\ab32vg1_hal\libhal.a(debug.o)
                                                  libraries\hal_libraries\ab32vg1_hal\libhal.a(cache.o)
debug_set                                         libraries\hal_libraries\ab32vg1_hal\libhal.a(debug.o)
devfs_init                                        build\kernel\components\dfs\filesystems\devfs\devfs.o
                                                  build\kernel\components\dfs\src\dfs.o
df                                                build\kernel\components\dfs\src\dfs_fs.o
                                                  build\kernel\components\finsh\msh_file.o
dfs_device_fs_close                               build\kernel\components\dfs\filesystems\devfs\devfs.o
dfs_device_fs_getdents                            build\kernel\components\dfs\filesystems\devfs\devfs.o
dfs_device_fs_ioctl                               build\kernel\components\dfs\filesystems\devfs\devfs.o
dfs_device_fs_mount                               build\kernel\components\dfs\filesystems\devfs\devfs.o
dfs_device_fs_open                                build\kernel\components\dfs\filesystems\devfs\devfs.o
dfs_device_fs_read                                build\kernel\components\dfs\filesystems\devfs\devfs.o
dfs_device_fs_stat                                build\kernel\components\dfs\filesystems\devfs\devfs.o
dfs_device_fs_write                               build\kernel\components\dfs\filesystems\devfs\devfs.o
dfs_elm_close                                     build\kernel\components\dfs\filesystems\elmfat\dfs_elm.o
dfs_elm_flush                                     build\kernel\components\dfs\filesystems\elmfat\dfs_elm.o
dfs_elm_getdents                                  build\kernel\components\dfs\filesystems\elmfat\dfs_elm.o
dfs_elm_ioctl                                     build\kernel\components\dfs\filesystems\elmfat\dfs_elm.o
dfs_elm_lseek                                     build\kernel\components\dfs\filesystems\elmfat\dfs_elm.o
dfs_elm_mkfs                                      build\kernel\components\dfs\filesystems\elmfat\dfs_elm.o
dfs_elm_mount                                     build\kernel\components\dfs\filesystems\elmfat\dfs_elm.o
dfs_elm_open                                      build\kernel\components\dfs\filesystems\elmfat\dfs_elm.o
dfs_elm_read                                      build\kernel\components\dfs\filesystems\elmfat\dfs_elm.o
dfs_elm_rename                                    build\kernel\components\dfs\filesystems\elmfat\dfs_elm.o
dfs_elm_stat                                      build\kernel\components\dfs\filesystems\elmfat\dfs_elm.o
dfs_elm_statfs                                    build\kernel\components\dfs\filesystems\elmfat\dfs_elm.o
dfs_elm_unlink                                    build\kernel\components\dfs\filesystems\elmfat\dfs_elm.o
dfs_elm_unmount                                   build\kernel\components\dfs\filesystems\elmfat\dfs_elm.o
dfs_elm_write                                     build\kernel\components\dfs\filesystems\elmfat\dfs_elm.o
dfs_fdtable_get                                   build\kernel\components\dfs\src\dfs.o
dfs_file_close                                    build\kernel\components\dfs\src\dfs_file.o
                                                  build\kernel\components\dfs\src\dfs_fs.o
                                                  build\kernel\components\dfs\src\dfs_posix.o
dfs_file_flush                                    build\kernel\components\dfs\src\dfs_file.o
                                                  build\kernel\components\dfs\src\dfs_posix.o
dfs_file_ftruncate                                build\kernel\components\dfs\src\dfs_file.o
                                                  build\kernel\components\dfs\src\dfs_posix.o
dfs_file_getdents                                 build\kernel\components\dfs\src\dfs_file.o
                                                  build\kernel\components\dfs\src\dfs_posix.o
dfs_file_ioctl                                    build\kernel\components\dfs\src\dfs_file.o
                                                  build\kernel\components\dfs\src\dfs_posix.o
dfs_file_lseek                                    build\kernel\components\dfs\src\dfs_file.o
                                                  build\kernel\components\dfs\src\dfs_posix.o
dfs_file_open                                     build\kernel\components\dfs\src\dfs_file.o
                                                  build\kernel\components\dfs\src\dfs_fs.o
                                                  build\kernel\components\dfs\src\dfs_posix.o
dfs_file_read                                     build\kernel\components\dfs\src\dfs_file.o
                                                  build\kernel\components\dfs\src\dfs_posix.o
dfs_file_rename                                   build\kernel\components\dfs\src\dfs_file.o
                                                  build\kernel\components\dfs\src\dfs_posix.o
dfs_file_stat                                     build\kernel\components\dfs\src\dfs_file.o
                                                  build\kernel\components\dfs\src\dfs_posix.o
dfs_file_unlink                                   build\kernel\components\dfs\src\dfs_file.o
                                                  build\kernel\components\dfs\src\dfs_posix.o
dfs_file_write                                    build\kernel\components\dfs\src\dfs_file.o
                                                  build\kernel\components\dfs\src\dfs_posix.o
dfs_filesystem_get_mounted_path                   build\kernel\components\dfs\src\dfs_fs.o
                                                  build\kernel\components\drivers\sdio\block_dev.o
dfs_filesystem_get_partition                      build\kernel\components\dfs\src\dfs_fs.o
                                                  build\kernel\components\drivers\sdio\block_dev.o
dfs_filesystem_lookup                             build\kernel\components\dfs\src\dfs_fs.o
                                                  build\kernel\components\dfs\src\dfs_file.o
                                                  build\kernel\components\dfs\src\dfs.o
dfs_init                                          build\kernel\components\dfs\src\dfs.o
dfs_lock                                          build\kernel\components\dfs\src\dfs.o
                                                  build\kernel\components\dfs\src\dfs_fs.o
                                                  build\kernel\components\dfs\src\dfs_posix.o
dfs_mkfs                                          build\kernel\components\dfs\src\dfs_fs.o
                                                  build\kernel\components\finsh\msh_file.o
dfs_mount                                         build\kernel\components\dfs\src\dfs_fs.o
                                                  build\kernel\components\finsh\msh_file.o
                                                  build\kernel\components\dfs\src\dfs.o
                                                  build\applications\mnt.o
dfs_normalize_path                                build\kernel\components\dfs\src\dfs.o
                                                  build\kernel\components\dfs\src\dfs_file.o
                                                  build\kernel\components\dfs\src\dfs_fs.o
                                                  build\kernel\components\dfs\src\dfs_posix.o
dfs_register                                      build\kernel\components\dfs\src\dfs_fs.o
                                                  build\kernel\components\dfs\filesystems\elmfat\dfs_elm.o
                                                  build\kernel\components\dfs\filesystems\devfs\devfs.o
dfs_statfs                                        build\kernel\components\dfs\src\dfs_fs.o
                                                  build\kernel\components\dfs\src\dfs_posix.o
dfs_subdir                                        build\kernel\components\dfs\src\dfs.o
                                                  build\kernel\components\dfs\src\dfs_file.o
dfs_unlock                                        build\kernel\components\dfs\src\dfs.o
                                                  build\kernel\components\dfs\src\dfs_fs.o
                                                  build\kernel\components\dfs\src\dfs_posix.o
dfs_unmount                                       build\kernel\components\dfs\src\dfs_fs.o
                                                  build\kernel\components\finsh\msh_file.o
                                                  build\kernel\components\drivers\sdio\block_dev.o
disk_initialize                                   build\kernel\components\dfs\filesystems\elmfat\dfs_elm.o
                                                  build\kernel\components\dfs\filesystems\elmfat\ff.o
disk_ioctl                                        build\kernel\components\dfs\filesystems\elmfat\dfs_elm.o
                                                  build\kernel\components\dfs\filesystems\elmfat\ff.o
disk_read                                         build\kernel\components\dfs\filesystems\elmfat\dfs_elm.o
                                                  build\kernel\components\dfs\filesystems\elmfat\ff.o
disk_status                                       build\kernel\components\dfs\filesystems\elmfat\dfs_elm.o
                                                  build\kernel\components\dfs\filesystems\elmfat\ff.o
disk_write                                        build\kernel\components\dfs\filesystems\elmfat\dfs_elm.o
                                                  build\kernel\components\dfs\filesystems\elmfat\ff.o
dummy_dump                                        libraries\hal_libraries\ab32vg1_hal\libhal.a(platform.o)
                                                  libraries\hal_libraries\ab32vg1_hal\libhal.a(debug.o)
dummy_func                                        libraries\hal_libraries\ab32vg1_hal\libhal.a(platform.o)
dump_err                                          libraries\hal_libraries\ab32vg1_hal\libhal.a(debug.o)
dump_info                                         libraries\hal_libraries\ab32vg1_hal\libhal.a(debug.o)
elm_get_vol                                       build\kernel\components\dfs\filesystems\elmfat\ff.o
                                                  build\kernel\components\dfs\filesystems\elmfat\dfs_elm.o
elm_init                                          build\kernel\components\dfs\filesystems\elmfat\dfs_elm.o
entry                                             build\kernel\src\components.o
                                                  libraries\hal_libraries\bmsis\source\startup.o
environ                                           d:/program_files/programming/rt-threadstudio/repo/extract/toolchain_support_packages/risc-v/risc-v-gcc/10.1.0/bin/../lib/gcc/riscv64-unknown-elf/10.1.0/../../../../riscv64-unknown-elf/lib/rv32im/ilp32\libc.a(lib_a-environ.o)
                                                  d:/program_files/programming/rt-threadstudio/repo/extract/toolchain_support_packages/risc-v/risc-v-gcc/10.1.0/bin/../lib/gcc/riscv64-unknown-elf/10.1.0/../../../../riscv64-unknown-elf/lib/rv32im/ilp32\libc.a(lib_a-getenv_r.o)
                                                  d:/program_files/programming/rt-threadstudio/repo/extract/toolchain_support_packages/risc-v/risc-v-gcc/10.1.0/bin/../lib/gcc/riscv64-unknown-elf/10.1.0/../../../../riscv64-unknown-elf/lib/rv32im/ilp32\libc.a(lib_a-setenv_r.o)
exception_isr                                     build\board\board.o
                                                  libraries\hal_libraries\bmsis\source\startup.o
f_close                                           build\kernel\components\dfs\filesystems\elmfat\ff.o
                                                  build\kernel\components\dfs\filesystems\elmfat\dfs_elm.o
f_closedir                                        build\kernel\components\dfs\filesystems\elmfat\ff.o
f_getfree                                         build\kernel\components\dfs\filesystems\elmfat\ff.o
                                                  build\kernel\components\dfs\filesystems\elmfat\dfs_elm.o
f_lseek                                           build\kernel\components\dfs\filesystems\elmfat\ff.o
                                                  build\kernel\components\dfs\filesystems\elmfat\dfs_elm.o
f_mkdir                                           build\kernel\components\dfs\filesystems\elmfat\ff.o
                                                  build\kernel\components\dfs\filesystems\elmfat\dfs_elm.o
f_mkfs                                            build\kernel\components\dfs\filesystems\elmfat\ff.o
                                                  build\kernel\components\dfs\filesystems\elmfat\dfs_elm.o
f_mount                                           build\kernel\components\dfs\filesystems\elmfat\ff.o
                                                  build\kernel\components\dfs\filesystems\elmfat\dfs_elm.o
f_open                                            build\kernel\components\dfs\filesystems\elmfat\ff.o
                                                  build\kernel\components\dfs\filesystems\elmfat\dfs_elm.o
f_opendir                                         build\kernel\components\dfs\filesystems\elmfat\ff.o
                                                  build\kernel\components\dfs\filesystems\elmfat\dfs_elm.o
f_read                                            build\kernel\components\dfs\filesystems\elmfat\ff.o
                                                  build\kernel\components\dfs\filesystems\elmfat\dfs_elm.o
f_readdir                                         build\kernel\components\dfs\filesystems\elmfat\ff.o
                                                  build\kernel\components\dfs\filesystems\elmfat\dfs_elm.o
f_rename                                          build\kernel\components\dfs\filesystems\elmfat\ff.o
                                                  build\kernel\components\dfs\filesystems\elmfat\dfs_elm.o
f_seekdir                                         build\kernel\components\dfs\filesystems\elmfat\ff.o
                                                  build\kernel\components\dfs\filesystems\elmfat\dfs_elm.o
f_stat                                            build\kernel\components\dfs\filesystems\elmfat\ff.o
                                                  build\kernel\components\dfs\filesystems\elmfat\dfs_elm.o
f_sync                                            build\kernel\components\dfs\filesystems\elmfat\ff.o
                                                  build\kernel\components\dfs\filesystems\elmfat\dfs_elm.o
f_truncate                                        build\kernel\components\dfs\filesystems\elmfat\ff.o
                                                  build\kernel\components\dfs\filesystems\elmfat\dfs_elm.o
f_unlink                                          build\kernel\components\dfs\filesystems\elmfat\ff.o
                                                  build\kernel\components\dfs\filesystems\elmfat\dfs_elm.o
f_write                                           build\kernel\components\dfs\filesystems\elmfat\ff.o
                                                  build\kernel\components\dfs\filesystems\elmfat\dfs_elm.o
fclose                                            d:/program_files/programming/rt-threadstudio/repo/extract/toolchain_support_packages/risc-v/risc-v-gcc/10.1.0/bin/../lib/gcc/riscv64-unknown-elf/10.1.0/../../../../riscv64-unknown-elf/lib/rv32im/ilp32\libc.a(lib_a-fclose.o)
                                                  build\kernel\components\libc\compilers\newlib\stdio.o
fcntl                                             build\kernel\components\dfs\src\dfs_posix.o
fd_get                                            build\kernel\components\dfs\src\dfs.o
                                                  build\kernel\components\dfs\src\dfs_posix.o
fd_is_open                                        build\kernel\components\dfs\src\dfs.o
                                                  build\kernel\components\dfs\src\dfs_file.o
fd_new                                            build\kernel\components\dfs\src\dfs.o
                                                  build\kernel\components\dfs\src\dfs_posix.o
fd_put                                            build\kernel\components\dfs\src\dfs.o
                                                  build\kernel\components\dfs\src\dfs_posix.o
ff_cre_syncobj                                    build\kernel\components\dfs\filesystems\elmfat\dfs_elm.o
                                                  build\kernel\components\dfs\filesystems\elmfat\ff.o
ff_del_syncobj                                    build\kernel\components\dfs\filesystems\elmfat\dfs_elm.o
                                                  build\kernel\components\dfs\filesystems\elmfat\ff.o
ff_memalloc                                       build\kernel\components\dfs\filesystems\elmfat\dfs_elm.o
                                                  build\kernel\components\dfs\filesystems\elmfat\ff.o
ff_memfree                                        build\kernel\components\dfs\filesystems\elmfat\dfs_elm.o
                                                  build\kernel\components\dfs\filesystems\elmfat\ff.o
ff_oem2uni                                        build\kernel\components\dfs\filesystems\elmfat\ffunicode.o
                                                  build\kernel\components\dfs\filesystems\elmfat\ff.o
ff_rel_grant                                      build\kernel\components\dfs\filesystems\elmfat\dfs_elm.o
                                                  build\kernel\components\dfs\filesystems\elmfat\ff.o
ff_req_grant                                      build\kernel\components\dfs\filesystems\elmfat\dfs_elm.o
                                                  build\kernel\components\dfs\filesystems\elmfat\ff.o
ff_uni2oem                                        build\kernel\components\dfs\filesystems\elmfat\ffunicode.o
                                                  build\kernel\components\dfs\filesystems\elmfat\ff.o
ff_wtoupper                                       build\kernel\components\dfs\filesystems\elmfat\ffunicode.o
                                                  build\kernel\components\dfs\filesystems\elmfat\ff.o
fflush                                            d:/program_files/programming/rt-threadstudio/repo/extract/toolchain_support_packages/risc-v/risc-v-gcc/10.1.0/bin/../lib/gcc/riscv64-unknown-elf/10.1.0/../../../../riscv64-unknown-elf/lib/rv32im/ilp32\libc.a(lib_a-fflush.o)
                                                  d:/program_files/programming/rt-threadstudio/repo/extract/toolchain_support_packages/risc-v/risc-v-gcc/10.1.0/bin/../lib/gcc/riscv64-unknown-elf/10.1.0/../../../../riscv64-unknown-elf/lib/rv32im/ilp32\libc.a(lib_a-refill.o)
fileno                                            d:/program_files/programming/rt-threadstudio/repo/extract/toolchain_support_packages/risc-v/risc-v-gcc/10.1.0/bin/../lib/gcc/riscv64-unknown-elf/10.1.0/../../../../riscv64-unknown-elf/lib/rv32im/ilp32\libc.a(lib_a-fileno.o)
                                                  build\kernel\components\libc\compilers\newlib\stdio.o
filesystem_operation_table                        build\kernel\components\dfs\src\dfs.o
                                                  build\kernel\components\dfs\src\dfs_fs.o
filesystem_table                                  build\kernel\components\dfs\src\dfs.o
                                                  build\kernel\components\finsh\msh_file.o
                                                  build\kernel\components\dfs\src\dfs_fs.o
finsh_compile_pc                                  build\kernel\components\finsh\finsh_compiler.o
finsh_compile_sp                                  build\kernel\components\finsh\finsh_compiler.o
finsh_compiler_run                                build\kernel\components\finsh\finsh_compiler.o
                                                  build\kernel\components\finsh\shell.o
finsh_errno                                       build\kernel\components\finsh\finsh_error.o
                                                  build\kernel\components\finsh\shell.o
finsh_error_init                                  build\kernel\components\finsh\finsh_error.o
                                                  build\kernel\components\finsh\finsh_init.o
finsh_error_set                                   build\kernel\components\finsh\finsh_error.o
                                                  build\kernel\components\finsh\finsh_token.o
                                                  build\kernel\components\finsh\finsh_compiler.o
                                                  build\kernel\components\finsh\finsh_parser.o
                                                  build\kernel\components\finsh\finsh_node.o
finsh_error_string                                build\kernel\components\finsh\finsh_error.o
                                                  build\kernel\components\finsh\shell.o
finsh_flush                                       build\kernel\components\finsh\finsh_init.o
                                                  build\kernel\components\finsh\shell.o
finsh_get_device                                  build\kernel\components\finsh\shell.o
finsh_get_echo                                    build\kernel\components\finsh\shell.o
finsh_get_prompt                                  build\kernel\components\finsh\shell.o
finsh_get_prompt_mode                             build\kernel\components\finsh\shell.o
finsh_heap                                        build\kernel\components\finsh\finsh_heap.o
finsh_heap_allocate                               build\kernel\components\finsh\finsh_heap.o
                                                  build\kernel\components\finsh\finsh_node.o
finsh_heap_free                                   build\kernel\components\finsh\finsh_heap.o
finsh_heap_init                                   build\kernel\components\finsh\finsh_heap.o
                                                  build\kernel\components\finsh\finsh_init.o
finsh_init                                        build\kernel\components\finsh\finsh_init.o
                                                  build\kernel\components\finsh\shell.o
finsh_node_allocate                               build\kernel\components\finsh\finsh_node.o
                                                  build\kernel\components\finsh\finsh_parser.o
finsh_node_init                                   build\kernel\components\finsh\finsh_node.o
                                                  build\kernel\components\finsh\finsh_init.o
finsh_node_new_char                               build\kernel\components\finsh\finsh_node.o
                                                  build\kernel\components\finsh\finsh_parser.o
finsh_node_new_id                                 build\kernel\components\finsh\finsh_node.o
                                                  build\kernel\components\finsh\finsh_parser.o
finsh_node_new_int                                build\kernel\components\finsh\finsh_node.o
                                                  build\kernel\components\finsh\finsh_parser.o
finsh_node_new_long                               build\kernel\components\finsh\finsh_node.o
                                                  build\kernel\components\finsh\finsh_parser.o
finsh_node_new_ptr                                build\kernel\components\finsh\finsh_node.o
                                                  build\kernel\components\finsh\finsh_parser.o
finsh_node_new_string                             build\kernel\components\finsh\finsh_node.o
                                                  build\kernel\components\finsh\finsh_parser.o
finsh_parser_init                                 build\kernel\components\finsh\finsh_parser.o
                                                  build\kernel\components\finsh\finsh_init.o
finsh_parser_run                                  build\kernel\components\finsh\finsh_parser.o
                                                  build\kernel\components\finsh\shell.o
finsh_pc                                          build\kernel\components\finsh\finsh_vm.o
                                                  build\kernel\components\finsh\finsh_ops.o
finsh_reset                                       build\kernel\components\finsh\finsh_init.o
finsh_run_line                                    build\kernel\components\finsh\shell.o
finsh_set_device                                  build\kernel\components\finsh\shell.o
finsh_set_echo                                    build\kernel\components\finsh\shell.o
finsh_set_prompt                                  build\kernel\components\finsh\shell.o
finsh_set_prompt_mode                             build\kernel\components\finsh\shell.o
finsh_sp                                          build\kernel\components\finsh\finsh_vm.o
                                                  build\kernel\components\finsh\finsh_ops.o
finsh_stack_bottom                                build\kernel\components\finsh\finsh_init.o
                                                  build\kernel\components\finsh\shell.o
finsh_syscall_append                              build\kernel\components\finsh\finsh_vm.o
finsh_syscall_lookup                              build\kernel\components\finsh\finsh_vm.o
                                                  build\kernel\components\finsh\finsh_node.o
finsh_system_function_init                        build\kernel\components\finsh\shell.o
finsh_system_init                                 build\kernel\components\finsh\shell.o
finsh_system_var_init                             build\kernel\components\finsh\shell.o
finsh_sysvar_append                               build\kernel\components\finsh\finsh_var.o
finsh_sysvar_lookup                               build\kernel\components\finsh\finsh_var.o
                                                  build\kernel\components\finsh\finsh_node.o
finsh_thread_entry                                build\kernel\components\finsh\shell.o
finsh_token_get_token                             build\kernel\components\finsh\finsh_token.o
finsh_token_init                                  build\kernel\components\finsh\finsh_token.o
                                                  build\kernel\components\finsh\finsh_parser.o
finsh_token_token                                 build\kernel\components\finsh\finsh_token.o
                                                  build\kernel\components\finsh\finsh_parser.o
finsh_var_delete                                  build\kernel\components\finsh\finsh_var.o
finsh_var_init                                    build\kernel\components\finsh\finsh_var.o
                                                  build\kernel\components\finsh\finsh_init.o
finsh_var_insert                                  build\kernel\components\finsh\finsh_var.o
                                                  build\kernel\components\finsh\finsh_parser.o
finsh_var_lookup                                  build\kernel\components\finsh\finsh_var.o
                                                  build\kernel\components\finsh\finsh_node.o
finsh_vm_run                                      build\kernel\components\finsh\finsh_vm.o
                                                  build\kernel\components\finsh\shell.o
finsh_vm_stack                                    build\kernel\components\finsh\finsh_vm.o
                                                  build\kernel\components\finsh\finsh_init.o
                                                  build\kernel\components\finsh\finsh_compiler.o
fiprintf                                          d:/program_files/programming/rt-threadstudio/repo/extract/toolchain_support_packages/risc-v/risc-v-gcc/10.1.0/bin/../lib/gcc/riscv64-unknown-elf/10.1.0/../../../../riscv64-unknown-elf/lib/rv32im/ilp32\libc.a(lib_a-fiprintf.o)
                                                  d:/program_files/programming/rt-threadstudio/repo/extract/toolchain_support_packages/risc-v/risc-v-gcc/10.1.0/bin/../lib/gcc/riscv64-unknown-elf/10.1.0/../../../../riscv64-unknown-elf/lib/rv32im/ilp32\libc.a(lib_a-assert.o)
flock                                             build\kernel\components\libc\compilers\newlib\syscalls.o
fopen                                             d:/program_files/programming/rt-threadstudio/repo/extract/toolchain_support_packages/risc-v/risc-v-gcc/10.1.0/bin/../lib/gcc/riscv64-unknown-elf/10.1.0/../../../../riscv64-unknown-elf/lib/rv32im/ilp32\libc.a(lib_a-fopen.o)
                                                  build\kernel\components\libc\compilers\newlib\stdio.o
fputwc                                            d:/program_files/programming/rt-threadstudio/repo/extract/toolchain_support_packages/risc-v/risc-v-gcc/10.1.0/bin/../lib/gcc/riscv64-unknown-elf/10.1.0/../../../../riscv64-unknown-elf/lib/rv32im/ilp32\libc.a(lib_a-fputwc.o)
free                                              d:/program_files/programming/rt-threadstudio/repo/extract/toolchain_support_packages/risc-v/risc-v-gcc/10.1.0/bin/../lib/gcc/riscv64-unknown-elf/10.1.0/../../../../riscv64-unknown-elf/lib/rv32im/ilp32\libc.a(lib_a-malloc.o)
frexp                                             d:/program_files/programming/rt-threadstudio/repo/extract/toolchain_support_packages/risc-v/risc-v-gcc/10.1.0/bin/../lib/gcc/riscv64-unknown-elf/10.1.0/../../../../riscv64-unknown-elf/lib/rv32im/ilp32\libc.a(lib_a-s_frexp.o)
                                                  d:/program_files/programming/rt-threadstudio/repo/extract/toolchain_support_packages/risc-v/risc-v-gcc/10.1.0/bin/../lib/gcc/riscv64-unknown-elf/10.1.0/../../../../riscv64-unknown-elf/lib/rv32im/ilp32\libc.a(lib_a-svfprintf.o)
fseek                                             d:/program_files/programming/rt-threadstudio/repo/extract/toolchain_support_packages/risc-v/risc-v-gcc/10.1.0/bin/../lib/gcc/riscv64-unknown-elf/10.1.0/../../../../riscv64-unknown-elf/lib/rv32im/ilp32\libc.a(lib_a-fseek.o)
fseeko                                            d:/program_files/programming/rt-threadstudio/repo/extract/toolchain_support_packages/risc-v/risc-v-gcc/10.1.0/bin/../lib/gcc/riscv64-unknown-elf/10.1.0/../../../../riscv64-unknown-elf/lib/rv32im/ilp32\libc.a(lib_a-fseeko.o)
fstat                                             build\kernel\components\dfs\src\dfs_posix.o
fsync                                             build\kernel\components\dfs\src\dfs_posix.o
ftello                                            d:/program_files/programming/rt-threadstudio/repo/extract/toolchain_support_packages/risc-v/risc-v-gcc/10.1.0/bin/../lib/gcc/riscv64-unknown-elf/10.1.0/../../../../riscv64-unknown-elf/lib/rv32im/ilp32\libc.a(lib_a-ftello.o)
ftruncate                                         build\kernel\components\dfs\src\dfs_posix.o
get_be16                                          libraries\hal_libraries\ab32vg1_hal\libhal.a(platform.o)
get_be32                                          libraries\hal_libraries\ab32vg1_hal\libhal.a(platform.o)
get_clksel_val                                    libraries\hal_libraries\bmsis\source\system_ab32vgx.o
get_cur_sysclk                                    libraries\hal_libraries\bmsis\source\system_ab32vgx.o
get_fattime                                       build\kernel\components\dfs\filesystems\elmfat\dfs_elm.o
                                                  build\kernel\components\dfs\filesystems\elmfat\ff.o
get_sd_rate                                       libraries\hal_libraries\bmsis\source\system_ab32vgx.o
get_sysclk_nhz                                    libraries\hal_libraries\bmsis\source\system_ab32vgx.o
                                                  libraries\hal_drivers\drv_hwtimer.o
                                                  libraries\hal_drivers\drv_pwm.o
                                                  libraries\hal_drivers\drv_sdio.o
                                                  build\board\board.o
get_weekday                                       libraries\hal_drivers\drv_rtc.o
getcwd                                            build\kernel\components\dfs\src\dfs_posix.o
                                                  build\kernel\components\finsh\msh.o
                                                  build\kernel\components\finsh\shell.o
gettimeofday                                      build\kernel\components\libc\compilers\common\time.o
global_errno                                      build\kernel\components\finsh\finsh_error.o
global_node_table                                 build\kernel\components\finsh\finsh_node.o
global_syscall_list                               build\kernel\components\finsh\finsh_vm.o
                                                  build\kernel\components\finsh\cmd.o
global_sysvar_list                                build\kernel\components\finsh\finsh_var.o
                                                  build\kernel\components\finsh\cmd.o
global_variable                                   build\kernel\components\finsh\finsh_var.o
                                                  build\kernel\components\finsh\finsh_heap.o
gmtime                                            build\kernel\components\libc\compilers\common\time.o
gmtime_r                                          build\kernel\components\libc\compilers\common\time.o
gpio_afinit                                       libraries\hal_libraries\ab32vg1_hal\source\ab32vg1_hal_gpio.o
hal_adc_enable                                    libraries\hal_libraries\ab32vg1_hal\libhal.a(ab32vg1_hal_adc.o)
                                                  libraries\hal_drivers\drv_adc.o
hal_adc_poll_for_conversion                       libraries\hal_libraries\ab32vg1_hal\libhal.a(ab32vg1_hal_adc.o)
                                                  libraries\hal_drivers\drv_adc.o
hal_adc_start                                     libraries\hal_libraries\ab32vg1_hal\libhal.a(ab32vg1_hal_adc.o)
                                                  libraries\hal_drivers\drv_adc.o
hal_gpio_init                                     libraries\hal_libraries\ab32vg1_hal\source\ab32vg1_hal_gpio.o
                                                  libraries\hal_drivers\drv_gpio.o
                                                  build\board\ab32vg1_hal_msp.o
hal_gpio_read                                     libraries\hal_libraries\ab32vg1_hal\source\ab32vg1_hal_gpio.o
                                                  libraries\hal_drivers\drv_gpio.o
hal_gpio_toggle                                   libraries\hal_libraries\ab32vg1_hal\source\ab32vg1_hal_gpio.o
hal_gpio_write                                    libraries\hal_libraries\ab32vg1_hal\source\ab32vg1_hal_gpio.o
                                                  libraries\hal_drivers\drv_gpio.o
hal_mdelay                                        build\board\board.o
                                                  libraries\hal_libraries\ab32vg1_hal\libhal.a(ab32vg1_hal_adc.o)
                                                  libraries\hal_libraries\ab32vg1_hal\source\ab32vg1_hal_sd.o
                                                  libraries\hal_drivers\drv_sdio.o
                                                  build\board\ports\audio\drv_sound.o
hal_printf                                        build\board\board.o
                                                  libraries\hal_libraries\ab32vg1_hal\source\ab32vg1_hal_sd.o
hal_pwm_mspinit                                   build\board\ab32vg1_hal_msp.o
                                                  libraries\hal_drivers\drv_pwm.o
hal_rcu_periph_clk_disable                        libraries\hal_libraries\ab32vg1_hal\source\ab32vg1_hal_rcu.o
hal_rcu_periph_clk_enable                         libraries\hal_libraries\ab32vg1_hal\source\ab32vg1_hal_rcu.o
                                                  libraries\hal_libraries\ab32vg1_hal\source\ab32vg1_hal_uart.o
                                                  libraries\hal_drivers\drv_sdio.o
hal_rtc_init                                      libraries\hal_drivers\drv_rtc.o
hal_sd_deinit                                     libraries\hal_libraries\ab32vg1_hal\source\ab32vg1_hal_sd.o
hal_sd_init                                       libraries\hal_libraries\ab32vg1_hal\source\ab32vg1_hal_sd.o
hal_sd_initcard                                   libraries\hal_libraries\ab32vg1_hal\source\ab32vg1_hal_sd.o
hal_sd_mspinit                                    build\board\ab32vg1_hal_msp.o
                                                  libraries\hal_drivers\drv_sdio.o
hal_sd_read                                       libraries\hal_libraries\ab32vg1_hal\source\ab32vg1_hal_sd.o
hal_set_tick_hook                                 libraries\hal_libraries\ab32vg1_hal\source\ab32vg1_hal.o
                                                  build\board\board.o
hal_set_ticks                                     libraries\hal_libraries\ab32vg1_hal\source\ab32vg1_hal.o
                                                  build\board\board.o
hal_uart_clrflag                                  libraries\hal_libraries\ab32vg1_hal\source\ab32vg1_hal_uart.o
                                                  libraries\hal_drivers\drv_usart.o
hal_uart_control                                  libraries\hal_libraries\ab32vg1_hal\source\ab32vg1_hal_uart.o
                                                  libraries\hal_drivers\drv_usart.o
hal_uart_deinit                                   libraries\hal_libraries\ab32vg1_hal\source\ab32vg1_hal_uart.o
                                                  libraries\hal_drivers\drv_usart.o
hal_uart_getflag                                  libraries\hal_libraries\ab32vg1_hal\source\ab32vg1_hal_uart.o
                                                  libraries\hal_drivers\drv_usart.o
hal_uart_init                                     libraries\hal_libraries\ab32vg1_hal\source\ab32vg1_hal_uart.o
                                                  libraries\hal_drivers\drv_usart.o
hal_uart_mspinit                                  build\board\ab32vg1_hal_msp.o
                                                  libraries\hal_libraries\ab32vg1_hal\source\ab32vg1_hal_uart.o
hal_uart_read                                     libraries\hal_libraries\ab32vg1_hal\source\ab32vg1_hal_uart.o
                                                  libraries\hal_drivers\drv_usart.o
hal_uart_setbaud                                  libraries\hal_libraries\ab32vg1_hal\source\ab32vg1_hal_uart.o
hal_uart_setparam                                 libraries\hal_libraries\ab32vg1_hal\source\ab32vg1_hal_uart.o
hal_uart_write                                    libraries\hal_libraries\ab32vg1_hal\source\ab32vg1_hal_uart.o
                                                  libraries\hal_drivers\drv_usart.o
hal_udelay                                        libraries\hal_libraries\ab32vg1_hal\source\ab32vg1_hal.o
                                                  libraries\hal_libraries\ab32vg1_hal\source\ab32vg1_hal_sd.o
hello                                             build\kernel\components\finsh\cmd.o
init_mmc                                          build\kernel\components\drivers\sdio\mmc.o
                                                  build\kernel\components\drivers\sdio\mmcsd_core.o
init_sd                                           build\kernel\components\drivers\sdio\sd.o
                                                  build\kernel\components\drivers\sdio\mmcsd_core.o
init_sdio                                         build\kernel\components\drivers\sdio\sdio.o
                                                  build\kernel\components\drivers\sdio\mmcsd_core.o
ioctl                                             build\kernel\components\dfs\src\dfs_posix.o
irq_mask                                          libcpu\cpu\interrupt.o
irtc_read                                         libraries\hal_drivers\drv_rtc.o
irtc_sfr_read                                     libraries\hal_drivers\drv_rtc.o
irtc_sfr_write                                    libraries\hal_drivers\drv_rtc.o
irtc_time_read                                    libraries\hal_drivers\drv_rtc.o
irtc_time_write                                   libraries\hal_drivers\drv_rtc.o
irtc_write                                        libraries\hal_drivers\drv_rtc.o
isr_cache                                         libraries\hal_libraries\ab32vg1_hal\libhal.a(s_cache.o)
                                                  libraries\hal_libraries\bmsis\source\startup.o
libc_stdio_get_console                            build\kernel\components\libc\compilers\newlib\stdio.o
libc_stdio_set_console                            build\kernel\components\libc\compilers\newlib\stdio.o
                                                  build\kernel\components\libc\compilers\newlib\libc.o
libc_system_init                                  build\kernel\components\libc\compilers\newlib\libc.o
list                                              build\kernel\components\finsh\cmd.o
list_date                                         build\kernel\components\drivers\rtc\rtc.o
list_device                                       build\kernel\components\finsh\cmd.o
list_event                                        build\kernel\components\finsh\cmd.o
list_fd                                           build\kernel\components\dfs\src\dfs.o
list_mailbox                                      build\kernel\components\finsh\cmd.o
list_mem                                          build\kernel\src\mem.o
                                                  build\kernel\components\finsh\msh.o
list_memheap                                      build\kernel\components\finsh\cmd.o
                                                  build\kernel\src\memheap.o
list_mempool                                      build\kernel\components\finsh\cmd.o
list_msgqueue                                     build\kernel\components\finsh\cmd.o
list_mutex                                        build\kernel\components\finsh\cmd.o
list_prefix                                       build\kernel\components\finsh\cmd.o
                                                  build\kernel\components\finsh\shell.o
list_sem                                          build\kernel\components\finsh\cmd.o
list_thread                                       build\kernel\components\finsh\cmd.o
                                                  build\kernel\components\finsh\msh.o
list_timer                                        build\kernel\components\finsh\cmd.o
load_bank                                         libraries\hal_libraries\ab32vg1_hal\libhal.a(cache.o)
load_cache                                        libraries\hal_libraries\ab32vg1_hal\libhal.a(s_cache.o)
                                                  libraries\hal_libraries\ab32vg1_hal\libhal.a(cache.o)
load_cache_execute                                libraries\hal_libraries\ab32vg1_hal\libhal.a(cache.o)
                                                  libraries\hal_libraries\ab32vg1_hal\libhal.a(s_cache.o)
localeconv                                        d:/program_files/programming/rt-threadstudio/repo/extract/toolchain_support_packages/risc-v/risc-v-gcc/10.1.0/bin/../lib/gcc/riscv64-unknown-elf/10.1.0/../../../../riscv64-unknown-elf/lib/rv32im/ilp32\libc.a(lib_a-localeconv.o)
localtime                                         build\kernel\components\libc\compilers\common\time.o
                                                  build\kernel\components\drivers\rtc\rtc.o
localtime_r                                       build\kernel\components\libc\compilers\common\time.o
low_prio_irq                                      libcpu\cpu\context_gcc.o
                                                  libraries\hal_libraries\bmsis\source\startup.o
ls                                                build\kernel\components\dfs\src\dfs_file.o
                                                  build\kernel\components\finsh\msh_file.o
lseek                                             build\kernel\components\dfs\src\dfs_posix.o
                                                  build\kernel\components\libc\compilers\newlib\syscalls.o
main                                              build\applications\main.o
                                                  build\kernel\src\components.o
main_thread_entry                                 build\kernel\src\components.o
malloc                                            d:/program_files/programming/rt-threadstudio/repo/extract/toolchain_support_packages/risc-v/risc-v-gcc/10.1.0/bin/../lib/gcc/riscv64-unknown-elf/10.1.0/../../../../riscv64-unknown-elf/lib/rv32im/ilp32\libc.a(lib_a-malloc.o)
                                                  d:/program_files/programming/rt-threadstudio/repo/extract/toolchain_support_packages/risc-v/risc-v-gcc/10.1.0/bin/../lib/gcc/riscv64-unknown-elf/10.1.0/../../../../riscv64-unknown-elf/lib/rv32im/ilp32\libc.a(lib_a-setvbuf.o)
memchr                                            d:/program_files/programming/rt-threadstudio/repo/extract/toolchain_support_packages/risc-v/risc-v-gcc/10.1.0/bin/../lib/gcc/riscv64-unknown-elf/10.1.0/../../../../riscv64-unknown-elf/lib/rv32im/ilp32\libc.a(lib_a-memchr.o)
                                                  d:/program_files/programming/rt-threadstudio/repo/extract/toolchain_support_packages/risc-v/risc-v-gcc/10.1.0/bin/../lib/gcc/riscv64-unknown-elf/10.1.0/../../../../riscv64-unknown-elf/lib/rv32im/ilp32\libc.a(lib_a-fvwrite.o)
                                                  d:/program_files/programming/rt-threadstudio/repo/extract/toolchain_support_packages/risc-v/risc-v-gcc/10.1.0/bin/../lib/gcc/riscv64-unknown-elf/10.1.0/../../../../riscv64-unknown-elf/lib/rv32im/ilp32\libc.a(lib_a-vfiprintf.o)
                                                  d:/program_files/programming/rt-threadstudio/repo/extract/toolchain_support_packages/risc-v/risc-v-gcc/10.1.0/bin/../lib/gcc/riscv64-unknown-elf/10.1.0/../../../../riscv64-unknown-elf/lib/rv32im/ilp32\libc.a(lib_a-svfiprintf.o)
                                                  d:/program_files/programming/rt-threadstudio/repo/extract/toolchain_support_packages/risc-v/risc-v-gcc/10.1.0/bin/../lib/gcc/riscv64-unknown-elf/10.1.0/../../../../riscv64-unknown-elf/lib/rv32im/ilp32\libc.a(lib_a-svfprintf.o)
memcmp                                            d:/program_files/programming/rt-threadstudio/repo/extract/toolchain_support_packages/risc-v/risc-v-gcc/10.1.0/bin/../lib/gcc/riscv64-unknown-elf/10.1.0/../../../../riscv64-unknown-elf/lib/rv32im/ilp32\libc.a(lib_a-memcmp.o)
                                                  d:/program_files/programming/rt-threadstudio/repo/extract/toolchain_support_packages/risc-v/risc-v-gcc/10.1.0/bin/../lib/gcc/riscv64-unknown-elf/10.1.0/../../../../riscv64-unknown-elf/lib/rv32im/ilp32\libc.a(lib_a-strstr.o)
                                                  build\kernel\components\finsh\shell.o
memcpy                                            d:/program_files/programming/rt-threadstudio/repo/extract/toolchain_support_packages/risc-v/risc-v-gcc/10.1.0/bin/../lib/gcc/riscv64-unknown-elf/10.1.0/../../../../riscv64-unknown-elf/lib/rv32im/ilp32\libc.a(lib_a-memcpy.o)
                                                  libraries\hal_libraries\ab32vg1_hal\libhal.a(cache.o)
                                                  d:/program_files/programming/rt-threadstudio/repo/extract/toolchain_support_packages/risc-v/risc-v-gcc/10.1.0/bin/../lib/gcc/riscv64-unknown-elf/10.1.0/../../../../riscv64-unknown-elf/lib/rv32im/ilp32\libc.a(lib_a-fvwrite.o)
                                                  d:/program_files/programming/rt-threadstudio/repo/extract/toolchain_support_packages/risc-v/risc-v-gcc/10.1.0/bin/../lib/gcc/riscv64-unknown-elf/10.1.0/../../../../riscv64-unknown-elf/lib/rv32im/ilp32\libc.a(lib_a-svfiprintf.o)
                                                  d:/program_files/programming/rt-threadstudio/repo/extract/toolchain_support_packages/risc-v/risc-v-gcc/10.1.0/bin/../lib/gcc/riscv64-unknown-elf/10.1.0/../../../../riscv64-unknown-elf/lib/rv32im/ilp32\libc.a(lib_a-mprec.o)
                                                  d:/program_files/programming/rt-threadstudio/repo/extract/toolchain_support_packages/risc-v/risc-v-gcc/10.1.0/bin/../lib/gcc/riscv64-unknown-elf/10.1.0/../../../../riscv64-unknown-elf/lib/rv32im/ilp32\libc.a(lib_a-strdup_r.o)
                                                  d:/program_files/programming/rt-threadstudio/repo/extract/toolchain_support_packages/risc-v/risc-v-gcc/10.1.0/bin/../lib/gcc/riscv64-unknown-elf/10.1.0/../../../../riscv64-unknown-elf/lib/rv32im/ilp32\libc.a(lib_a-setenv_r.o)
                                                  libraries\hal_drivers\drv_soft_i2c.o
                                                  build\kernel\components\finsh\msh.o
                                                  build\kernel\components\finsh\shell.o
                                                  build\kernel\components\finsh\msh_file.o
                                                  build\kernel\components\drivers\src\ringbuffer.o
                                                  build\kernel\components\drivers\hwtimer\hwtimer.o
                                                  build\kernel\components\drivers\audio\audio.o
memheaptrace                                      build\kernel\src\memheap.o
memmove                                           d:/program_files/programming/rt-threadstudio/repo/extract/toolchain_support_packages/risc-v/risc-v-gcc/10.1.0/bin/../lib/gcc/riscv64-unknown-elf/10.1.0/../../../../riscv64-unknown-elf/lib/rv32im/ilp32\libc.a(lib_a-memmove-stub.o)
                                                  d:/program_files/programming/rt-threadstudio/repo/extract/toolchain_support_packages/risc-v/risc-v-gcc/10.1.0/bin/../lib/gcc/riscv64-unknown-elf/10.1.0/../../../../riscv64-unknown-elf/lib/rv32im/ilp32\libc.a(lib_a-fvwrite.o)
                                                  d:/program_files/programming/rt-threadstudio/repo/extract/toolchain_support_packages/risc-v/risc-v-gcc/10.1.0/bin/../lib/gcc/riscv64-unknown-elf/10.1.0/../../../../riscv64-unknown-elf/lib/rv32im/ilp32\libc.a(lib_a-svfiprintf.o)
memset                                            d:/program_files/programming/rt-threadstudio/repo/extract/toolchain_support_packages/risc-v/risc-v-gcc/10.1.0/bin/../lib/gcc/riscv64-unknown-elf/10.1.0/../../../../riscv64-unknown-elf/lib/rv32im/ilp32\libc.a(lib_a-memset.o)
                                                  d:/program_files/programming/rt-threadstudio/repo/extract/toolchain_support_packages/risc-v/risc-v-gcc/10.1.0/bin/../lib/gcc/riscv64-unknown-elf/10.1.0/rv32im/ilp32\libgcc.a(trunctfdf2.o)
                                                  d:/program_files/programming/rt-threadstudio/repo/extract/toolchain_support_packages/risc-v/risc-v-gcc/10.1.0/bin/../lib/gcc/riscv64-unknown-elf/10.1.0/rv32im/ilp32\libgcc.a(extenddftf2.o)
                                                  d:/program_files/programming/rt-threadstudio/repo/extract/toolchain_support_packages/risc-v/risc-v-gcc/10.1.0/bin/../lib/gcc/riscv64-unknown-elf/10.1.0/rv32im/ilp32\libgcc.a(floatsitf.o)
                                                  d:/program_files/programming/rt-threadstudio/repo/extract/toolchain_support_packages/risc-v/risc-v-gcc/10.1.0/bin/../lib/gcc/riscv64-unknown-elf/10.1.0/rv32im/ilp32\libgcc.a(subtf3.o)
                                                  d:/program_files/programming/rt-threadstudio/repo/extract/toolchain_support_packages/risc-v/risc-v-gcc/10.1.0/bin/../lib/gcc/riscv64-unknown-elf/10.1.0/rv32im/ilp32\libgcc.a(multf3.o)
                                                  d:/program_files/programming/rt-threadstudio/repo/extract/toolchain_support_packages/risc-v/risc-v-gcc/10.1.0/bin/../lib/gcc/riscv64-unknown-elf/10.1.0/../../../../riscv64-unknown-elf/lib/rv32im/ilp32\libc.a(lib_a-strstr.o)
                                                  d:/program_files/programming/rt-threadstudio/repo/extract/toolchain_support_packages/risc-v/risc-v-gcc/10.1.0/bin/../lib/gcc/riscv64-unknown-elf/10.1.0/../../../../riscv64-unknown-elf/lib/rv32im/ilp32\libc.a(lib_a-fseeko.o)
                                                  d:/program_files/programming/rt-threadstudio/repo/extract/toolchain_support_packages/risc-v/risc-v-gcc/10.1.0/bin/../lib/gcc/riscv64-unknown-elf/10.1.0/../../../../riscv64-unknown-elf/lib/rv32im/ilp32\libc.a(lib_a-findfp.o)
                                                  libraries\hal_drivers\drv_sdio.o
                                                  libraries\hal_drivers\drv_rtc.o
                                                  build\kernel\components\finsh\finsh_token.o
                                                  build\kernel\components\finsh\msh.o
                                                  build\kernel\components\finsh\finsh_heap.o
                                                  build\kernel\components\finsh\finsh_compiler.o
                                                  build\kernel\components\finsh\finsh_var.o
                                                  build\kernel\components\finsh\shell.o
                                                  build\kernel\components\finsh\finsh_parser.o
                                                  build\kernel\components\finsh\finsh_node.o
                                                  build\kernel\components\drivers\sdio\sd.o
                                                  build\kernel\components\drivers\sdio\mmc.o
                                                  build\kernel\components\drivers\misc\rt_drv_pwm.o
                                                  build\kernel\components\drivers\audio\audio.o
                                                  build\kernel\components\dfs\src\dfs_file.o
                                                  build\kernel\components\dfs\src\dfs.o
                                                  build\kernel\components\dfs\src\dfs_posix.o
                                                  build\kernel\src\kservice.o
mkdir                                             build\kernel\components\dfs\src\dfs_posix.o
                                                  build\kernel\components\libc\compilers\newlib\syscalls.o
                                                  build\kernel\components\finsh\msh_file.o
                                                  build\kernel\components\dfs\src\dfs_file.o
mkfs                                              build\kernel\components\dfs\src\dfs_fs.o
mktime                                            build\kernel\components\libc\compilers\common\time.o
                                                  build\kernel\components\drivers\rtc\rtc.o
mmc_send_op_cond                                  build\kernel\components\drivers\sdio\mmc.o
                                                  build\kernel\components\drivers\sdio\mmcsd_core.o
mmcsd_all_get_cid                                 build\kernel\components\drivers\sdio\mmcsd_core.o
                                                  build\kernel\components\drivers\sdio\sd.o
                                                  build\kernel\components\drivers\sdio\mmc.o
mmcsd_alloc_host                                  build\kernel\components\drivers\sdio\mmcsd_core.o
                                                  libraries\hal_drivers\drv_sdio.o
mmcsd_app_set_bus_width                           build\kernel\components\drivers\sdio\sd.o
mmcsd_change                                      build\kernel\components\drivers\sdio\mmcsd_core.o
                                                  libraries\hal_drivers\drv_sdio.o
mmcsd_deselect_cards                              build\kernel\components\drivers\sdio\mmcsd_core.o
mmcsd_detect                                      build\kernel\components\drivers\sdio\mmcsd_core.o
mmcsd_free_host                                   build\kernel\components\drivers\sdio\mmcsd_core.o
mmcsd_get_card_addr                               build\kernel\components\drivers\sdio\sd.o
                                                  build\kernel\components\drivers\sdio\sdio.o
mmcsd_get_cid                                     build\kernel\components\drivers\sdio\mmcsd_core.o
                                                  build\kernel\components\drivers\sdio\sd.o
                                                  build\kernel\components\drivers\sdio\mmc.o
mmcsd_get_csd                                     build\kernel\components\drivers\sdio\mmcsd_core.o
                                                  build\kernel\components\drivers\sdio\sd.o
                                                  build\kernel\components\drivers\sdio\mmc.o
mmcsd_get_scr                                     build\kernel\components\drivers\sdio\sd.o
mmcsd_go_idle                                     build\kernel\components\drivers\sdio\mmcsd_core.o
                                                  build\kernel\components\drivers\sdio\sd.o
                                                  build\kernel\components\drivers\sdio\mmc.o
mmcsd_host_lock                                   build\kernel\components\drivers\sdio\mmcsd_core.o
                                                  build\kernel\components\drivers\sdio\sdio.o
                                                  build\kernel\components\drivers\sdio\block_dev.o
                                                  build\kernel\components\drivers\sdio\sd.o
                                                  build\kernel\components\drivers\sdio\mmc.o
mmcsd_host_unlock                                 build\kernel\components\drivers\sdio\mmcsd_core.o
                                                  build\kernel\components\drivers\sdio\sdio.o
                                                  build\kernel\components\drivers\sdio\block_dev.o
                                                  build\kernel\components\drivers\sdio\sd.o
                                                  build\kernel\components\drivers\sdio\mmc.o
mmcsd_num_wr_blocks                               build\kernel\components\drivers\sdio\block_dev.o
mmcsd_req_complete                                build\kernel\components\drivers\sdio\mmcsd_core.o
                                                  libraries\hal_drivers\drv_sdio.o
mmcsd_select_card                                 build\kernel\components\drivers\sdio\mmcsd_core.o
                                                  build\kernel\components\drivers\sdio\sdio.o
                                                  build\kernel\components\drivers\sdio\sd.o
                                                  build\kernel\components\drivers\sdio\mmc.o
mmcsd_select_voltage                              build\kernel\components\drivers\sdio\mmcsd_core.o
                                                  build\kernel\components\drivers\sdio\sdio.o
                                                  build\kernel\components\drivers\sdio\sd.o
                                                  build\kernel\components\drivers\sdio\mmc.o
mmcsd_send_app_cmd                                build\kernel\components\drivers\sdio\sd.o
mmcsd_send_app_op_cond                            build\kernel\components\drivers\sdio\sd.o
                                                  build\kernel\components\drivers\sdio\mmcsd_core.o
mmcsd_send_cmd                                    build\kernel\components\drivers\sdio\mmcsd_core.o
                                                  build\kernel\components\drivers\sdio\sdio.o
                                                  build\kernel\components\drivers\sdio\block_dev.o
                                                  build\kernel\components\drivers\sdio\sd.o
                                                  build\kernel\components\drivers\sdio\mmc.o
mmcsd_send_if_cond                                build\kernel\components\drivers\sdio\sd.o
                                                  build\kernel\components\drivers\sdio\mmcsd_core.o
mmcsd_send_request                                build\kernel\components\drivers\sdio\mmcsd_core.o
                                                  build\kernel\components\drivers\sdio\sdio.o
                                                  build\kernel\components\drivers\sdio\block_dev.o
                                                  build\kernel\components\drivers\sdio\sd.o
                                                  build\kernel\components\drivers\sdio\mmc.o
mmcsd_set_bus_mode                                build\kernel\components\drivers\sdio\mmcsd_core.o
                                                  build\kernel\components\drivers\sdio\sdio.o
                                                  build\kernel\components\drivers\sdio\sd.o
                                                  build\kernel\components\drivers\sdio\mmc.o
mmcsd_set_bus_width                               build\kernel\components\drivers\sdio\mmcsd_core.o
                                                  build\kernel\components\drivers\sdio\sdio.o
                                                  build\kernel\components\drivers\sdio\sd.o
                                                  build\kernel\components\drivers\sdio\mmc.o
mmcsd_set_chip_select                             build\kernel\components\drivers\sdio\mmcsd_core.o
mmcsd_set_clock                                   build\kernel\components\drivers\sdio\mmcsd_core.o
                                                  build\kernel\components\drivers\sdio\sdio.o
                                                  build\kernel\components\drivers\sdio\sd.o
                                                  build\kernel\components\drivers\sdio\mmc.o
mmcsd_set_data_timeout                            build\kernel\components\drivers\sdio\mmcsd_core.o
                                                  build\kernel\components\drivers\sdio\sdio.o
                                                  build\kernel\components\drivers\sdio\block_dev.o
                                                  build\kernel\components\drivers\sdio\sd.o
mmcsd_spi_read_ocr                                build\kernel\components\drivers\sdio\mmcsd_core.o
                                                  build\kernel\components\drivers\sdio\sd.o
                                                  build\kernel\components\drivers\sdio\mmc.o
mmcsd_spi_use_crc                                 build\kernel\components\drivers\sdio\mmcsd_core.o
                                                  build\kernel\components\drivers\sdio\sdio.o
                                                  build\kernel\components\drivers\sdio\sd.o
                                                  build\kernel\components\drivers\sdio\mmc.o
mmcsd_wait_cd_changed                             build\kernel\components\drivers\sdio\mmcsd_core.o
msh_auto_complete                                 build\kernel\components\finsh\msh.o
                                                  build\kernel\components\finsh\shell.o
msh_auto_complete_path                            build\kernel\components\finsh\msh.o
msh_exec                                          build\kernel\components\finsh\msh.o
                                                  build\kernel\components\finsh\shell.o
                                                  build\kernel\components\finsh\msh_file.o
msh_exec_script                                   build\kernel\components\finsh\msh_file.o
                                                  build\kernel\components\finsh\msh.o
msh_help                                          build\kernel\components\finsh\msh.o
msh_is_used                                       build\kernel\components\finsh\msh.o
                                                  build\kernel\components\finsh\shell.o
my_print_r                                        libraries\hal_libraries\ab32vg1_hal\libhal.a(rom_fun.o)
                                                  libraries\hal_libraries\ab32vg1_hal\libhal.a(debug.o)
my_printf                                         libraries\hal_libraries\ab32vg1_hal\libhal.a(rom_fun.o)
                                                  libraries\hal_libraries\ab32vg1_hal\libhal.a(debug.o)
                                                  build\board\board.o
op_table                                          build\kernel\components\finsh\finsh_ops.o
                                                  build\kernel\components\finsh\finsh_vm.o
open                                              build\kernel\components\dfs\src\dfs_posix.o
                                                  build\kernel\components\libc\compilers\newlib\syscalls.o
                                                  build\kernel\components\finsh\msh_file.o
opendir                                           build\kernel\components\dfs\src\dfs_posix.o
                                                  build\kernel\components\finsh\msh.o
                                                  build\kernel\components\finsh\msh_file.o
os_cache_init                                     libraries\hal_libraries\ab32vg1_hal\libhal.a(cache.o)
                                                  build\board\board.o
os_cache_lock                                     build\board\board.o
os_cache_setfunc                                  libraries\hal_libraries\ab32vg1_hal\libhal.a(cache.o)
os_cache_unlock                                   build\board\board.o
os_get_interrupt_nest                             libraries\hal_libraries\ab32vg1_hal\libhal.a(debug.o)
os_spiflash_erase                                 libraries\hal_libraries\ab32vg1_hal\libhal.a(spiflash.o)
os_spiflash_lock                                  build\board\board.o
                                                  libraries\hal_libraries\ab32vg1_hal\libhal.a(spiflash.o)
                                                  libraries\hal_libraries\ab32vg1_hal\libhal.a(s_cache.o)
os_spiflash_program                               libraries\hal_libraries\ab32vg1_hal\libhal.a(spiflash.o)
os_spiflash_read                                  libraries\hal_libraries\ab32vg1_hal\libhal.a(spiflash.o)
os_spiflash_unlock                                build\board\board.o
                                                  libraries\hal_libraries\ab32vg1_hal\libhal.a(spiflash.o)
                                                  libraries\hal_libraries\ab32vg1_hal\libhal.a(s_cache.o)
put_be16                                          libraries\hal_libraries\ab32vg1_hal\libhal.a(platform.o)
put_be32                                          libraries\hal_libraries\ab32vg1_hal\libhal.a(platform.o)
putenv                                            d:/program_files/programming/rt-threadstudio/repo/extract/toolchain_support_packages/risc-v/risc-v-gcc/10.1.0/bin/../lib/gcc/riscv64-unknown-elf/10.1.0/../../../../riscv64-unknown-elf/lib/rv32im/ilp32\libc.a(lib_a-putenv.o)
                                                  build\kernel\components\libc\compilers\newlib\libc.o
raise                                             d:/program_files/programming/rt-threadstudio/repo/extract/toolchain_support_packages/risc-v/risc-v-gcc/10.1.0/bin/../lib/gcc/riscv64-unknown-elf/10.1.0/../../../../riscv64-unknown-elf/lib/rv32im/ilp32\libc.a(lib_a-signal.o)
                                                  d:/program_files/programming/rt-threadstudio/repo/extract/toolchain_support_packages/risc-v/risc-v-gcc/10.1.0/bin/../lib/gcc/riscv64-unknown-elf/10.1.0/../../../../riscv64-unknown-elf/lib/rv32im/ilp32\libc.a(lib_a-abort.o)
read                                              build\kernel\components\dfs\src\dfs_posix.o
                                                  build\kernel\components\libc\compilers\newlib\syscalls.o
                                                  build\kernel\components\finsh\msh_file.o
readdir                                           build\kernel\components\dfs\src\dfs_posix.o
                                                  build\kernel\components\finsh\msh.o
                                                  build\kernel\components\finsh\msh_file.o
rename                                            build\kernel\components\dfs\src\dfs_posix.o
                                                  build\kernel\components\libc\compilers\newlib\syscalls.o
                                                  build\kernel\components\finsh\msh_file.o
rewinddir                                         build\kernel\components\dfs\src\dfs_posix.o
                                                  build\kernel\components\finsh\msh.o
rm                                                build\kernel\components\dfs\src\dfs_file.o
rmdir                                             build\kernel\components\dfs\src\dfs_posix.o
rt_adc_disable                                    build\kernel\components\drivers\misc\adc.o
rt_adc_enable                                     build\kernel\components\drivers\misc\adc.o
rt_adc_read                                       build\kernel\components\drivers\misc\adc.o
rt_application_init                               build\kernel\src\components.o
rt_assert_handler                                 build\kernel\src\kservice.o
                                                  libcpu\cpu\cpuport.o
                                                  libraries\hal_drivers\drv_hwtimer.o
                                                  libraries\hal_drivers\drv_usart.o
                                                  libraries\hal_drivers\drv_adc.o
                                                  libraries\hal_drivers\drv_sdio.o
                                                  libraries\hal_drivers\drv_soft_i2c.o
                                                  libraries\hal_drivers\drv_rtc.o
                                                  build\kernel\components\finsh\shell.o
                                                  build\kernel\components\drivers\watchdog\watchdog.o
                                                  build\kernel\components\drivers\src\waitqueue.o
                                                  build\kernel\components\drivers\src\ringblk_buf.o
                                                  build\kernel\components\drivers\src\ringbuffer.o
                                                  build\kernel\components\drivers\src\completion.o
                                                  build\kernel\components\drivers\src\pipe.o
                                                  build\kernel\components\drivers\src\dataqueue.o
                                                  build\kernel\components\drivers\src\workqueue.o
                                                  build\kernel\components\drivers\serial\serial.o
                                                  build\kernel\components\drivers\sdio\mmcsd_core.o
                                                  build\kernel\components\drivers\sdio\sdio.o
                                                  build\kernel\components\drivers\misc\pin.o
                                                  build\kernel\components\drivers\misc\adc.o
                                                  build\kernel\components\drivers\i2c\i2c_dev.o
                                                  build\kernel\components\drivers\i2c\i2c_core.o
                                                  build\kernel\components\drivers\hwtimer\hwtimer.o
                                                  build\kernel\components\drivers\audio\audio_pipe.o
                                                  build\kernel\components\drivers\audio\audio.o
                                                  build\kernel\components\dfs\filesystems\elmfat\dfs_elm.o
                                                  build\kernel\components\dfs\filesystems\devfs\devfs.o
                                                  build\kernel\components\dfs\src\dfs.o
                                                  build\kernel\components\dfs\src\dfs_fs.o
                                                  build\kernel\src\components.o
                                                  build\kernel\src\scheduler.o
                                                  build\kernel\src\object.o
                                                  build\kernel\src\mem.o
                                                  build\kernel\src\device.o
                                                  build\kernel\src\mempool.o
                                                  build\kernel\src\timer.o
                                                  build\kernel\src\idle.o
                                                  build\kernel\src\thread.o
                                                  build\kernel\src\ipc.o
                                                  build\kernel\src\memheap.o
                                                  build\board\ports\audio\drv_sound.o
rt_assert_hook                                    build\kernel\src\kservice.o
rt_assert_set_hook                                build\kernel\src\kservice.o
rt_audio_pipe_create                              build\kernel\components\drivers\audio\audio_pipe.o
rt_audio_pipe_destroy                             build\kernel\components\drivers\audio\audio_pipe.o
rt_audio_pipe_detach                              build\kernel\components\drivers\audio\audio_pipe.o
rt_audio_pipe_init                                build\kernel\components\drivers\audio\audio_pipe.o
                                                  build\kernel\components\drivers\audio\audio.o
rt_audio_register                                 build\kernel\components\drivers\audio\audio.o
                                                  build\board\ports\audio\drv_sound.o
rt_audio_rx_done                                  build\kernel\components\drivers\audio\audio.o
rt_audio_samplerate_to_speed                      build\kernel\components\drivers\audio\audio.o
rt_audio_tx_complete                              build\kernel\components\drivers\audio\audio.o
                                                  build\board\ports\audio\drv_sound.o
rt_calloc                                         build\kernel\src\mem.o
                                                  build\kernel\components\libc\compilers\newlib\syscalls.o
                                                  build\kernel\components\finsh\shell.o
                                                  build\kernel\components\drivers\sdio\block_dev.o
                                                  build\kernel\components\drivers\audio\audio_pipe.o
                                                  build\kernel\components\dfs\src\dfs.o
                                                  build\board\ports\audio\drv_sound.o
rt_completion_done                                build\kernel\components\drivers\src\completion.o
                                                  build\kernel\components\drivers\serial\serial.o
                                                  build\kernel\components\drivers\audio\audio.o
rt_completion_init                                build\kernel\components\drivers\src\completion.o
                                                  build\kernel\components\drivers\serial\serial.o
                                                  build\kernel\components\drivers\audio\audio.o
rt_completion_wait                                build\kernel\components\drivers\src\completion.o
                                                  build\kernel\components\drivers\serial\serial.o
                                                  build\kernel\components\drivers\audio\audio.o
rt_components_board_init                          build\kernel\src\components.o
                                                  build\board\board.o
rt_components_init                                build\kernel\src\components.o
rt_console_get_device                             build\kernel\src\kservice.o
                                                  build\kernel\components\libc\compilers\newlib\libc.o
                                                  build\kernel\components\finsh\shell.o
                                                  build\board\board.o
rt_console_set_device                             build\kernel\src\kservice.o
                                                  build\board\board.o
rt_critical_level                                 build\kernel\src\scheduler.o
rt_cur_thread_sp                                  libcpu\cpu\cpuport.o
                                                  libcpu\cpu\context_gcc.o
rt_current_priority                               build\kernel\src\scheduler.o
rt_current_thread                                 build\kernel\src\scheduler.o
                                                  build\kernel\src\thread.o
rt_data_queue_deinit                              build\kernel\components\drivers\src\dataqueue.o
rt_data_queue_init                                build\kernel\components\drivers\src\dataqueue.o
                                                  build\kernel\components\drivers\audio\audio.o
rt_data_queue_len                                 build\kernel\components\drivers\src\dataqueue.o
rt_data_queue_peek                                build\kernel\components\drivers\src\dataqueue.o
                                                  build\kernel\components\drivers\audio\audio.o
rt_data_queue_pop                                 build\kernel\components\drivers\src\dataqueue.o
                                                  build\kernel\components\drivers\audio\audio.o
rt_data_queue_push                                build\kernel\components\drivers\src\dataqueue.o
                                                  build\kernel\components\drivers\audio\audio.o
rt_data_queue_reset                               build\kernel\components\drivers\src\dataqueue.o
rt_delayed_work_init                              build\kernel\components\drivers\src\workqueue.o
rt_device_close                                   build\kernel\src\device.o
                                                  build\kernel\components\libc\compilers\common\time.o
                                                  build\kernel\components\finsh\shell.o
                                                  build\kernel\components\drivers\audio\audio.o
                                                  build\kernel\components\dfs\filesystems\elmfat\dfs_elm.o
                                                  build\kernel\components\dfs\filesystems\devfs\devfs.o
                                                  build\kernel\components\dfs\src\dfs_fs.o
                                                  build\kernel\src\kservice.o
rt_device_control                                 build\kernel\src\device.o
                                                  build\kernel\components\libc\compilers\common\time.o
                                                  build\kernel\components\drivers\rtc\rtc.o
                                                  build\kernel\components\drivers\misc\rt_drv_pwm.o
                                                  build\kernel\components\dfs\filesystems\elmfat\dfs_elm.o
                                                  build\kernel\components\dfs\filesystems\devfs\devfs.o
rt_device_create                                  build\kernel\src\device.o
rt_device_destroy                                 build\kernel\src\device.o
rt_device_find                                    build\kernel\src\device.o
                                                  build\kernel\components\libc\compilers\common\time.o
                                                  build\kernel\components\finsh\shell.o
                                                  build\kernel\components\drivers\src\pipe.o
                                                  build\kernel\components\drivers\rtc\rtc.o
                                                  build\kernel\components\drivers\misc\rt_drv_pwm.o
                                                  build\kernel\components\drivers\misc\adc.o
                                                  build\kernel\components\drivers\i2c\i2c_core.o
                                                  build\kernel\components\dfs\filesystems\devfs\devfs.o
                                                  build\kernel\components\dfs\src\dfs_fs.o
                                                  build\kernel\src\kservice.o
                                                  build\applications\mnt.o
rt_device_hwtimer_isr                             build\kernel\components\drivers\hwtimer\hwtimer.o
rt_device_hwtimer_register                        build\kernel\components\drivers\hwtimer\hwtimer.o
                                                  libraries\hal_drivers\drv_hwtimer.o
rt_device_init                                    build\kernel\src\device.o
                                                  build\kernel\components\drivers\audio\audio.o
rt_device_open                                    build\kernel\src\device.o
                                                  build\kernel\components\libc\compilers\common\time.o
                                                  build\kernel\components\finsh\shell.o
                                                  build\kernel\components\drivers\audio\audio.o
                                                  build\kernel\components\dfs\filesystems\elmfat\dfs_elm.o
                                                  build\kernel\components\dfs\filesystems\devfs\devfs.o
                                                  build\kernel\components\dfs\src\dfs_fs.o
                                                  build\kernel\src\kservice.o
rt_device_pin_register                            build\kernel\components\drivers\misc\pin.o
                                                  libraries\hal_drivers\drv_gpio.o
rt_device_pwm_register                            build\kernel\components\drivers\misc\rt_drv_pwm.o
                                                  libraries\hal_drivers\drv_pwm.o
rt_device_read                                    build\kernel\src\device.o
                                                  build\kernel\components\finsh\shell.o
                                                  build\kernel\components\drivers\audio\audio.o
                                                  build\kernel\components\dfs\filesystems\elmfat\dfs_elm.o
                                                  build\kernel\components\dfs\filesystems\devfs\devfs.o
rt_device_register                                build\kernel\src\device.o
                                                  libraries\hal_drivers\drv_rtc.o
                                                  build\kernel\components\drivers\watchdog\watchdog.o
                                                  build\kernel\components\drivers\src\pipe.o
                                                  build\kernel\components\drivers\serial\serial.o
                                                  build\kernel\components\drivers\sdio\block_dev.o
                                                  build\kernel\components\drivers\misc\pin.o
                                                  build\kernel\components\drivers\misc\rt_drv_pwm.o
                                                  build\kernel\components\drivers\misc\adc.o
                                                  build\kernel\components\drivers\i2c\i2c_dev.o
                                                  build\kernel\components\drivers\hwtimer\hwtimer.o
                                                  build\kernel\components\drivers\audio\audio_pipe.o
                                                  build\kernel\components\drivers\audio\audio.o
rt_device_set_rx_indicate                         build\kernel\src\device.o
                                                  build\kernel\components\finsh\shell.o
rt_device_set_tx_complete                         build\kernel\src\device.o
rt_device_unregister                              build\kernel\src\device.o
                                                  build\kernel\components\drivers\src\pipe.o
                                                  build\kernel\components\drivers\sdio\block_dev.o
                                                  build\kernel\components\drivers\audio\audio_pipe.o
rt_device_write                                   build\kernel\src\device.o
                                                  build\kernel\components\drivers\audio\audio.o
                                                  build\kernel\components\dfs\filesystems\elmfat\dfs_elm.o
                                                  build\kernel\components\dfs\filesystems\devfs\devfs.o
                                                  build\kernel\src\kservice.o
                                                  build\board\board.o
rt_enter_critical                                 build\kernel\src\scheduler.o
                                                  build\kernel\components\drivers\src\dataqueue.o
                                                  build\kernel\components\drivers\src\workqueue.o
                                                  build\kernel\components\drivers\rtc\rtc.o
                                                  build\kernel\components\dfs\filesystems\devfs\devfs.o
                                                  build\kernel\components\dfs\src\dfs.o
                                                  build\kernel\src\object.o
rt_event_control                                  build\kernel\src\ipc.o
rt_event_create                                   build\kernel\src\ipc.o
rt_event_delete                                   build\kernel\src\ipc.o
rt_event_detach                                   build\kernel\src\ipc.o
rt_event_init                                     build\kernel\src\ipc.o
                                                  libraries\hal_drivers\drv_sdio.o
rt_event_recv                                     build\kernel\src\ipc.o
                                                  libraries\hal_drivers\drv_sdio.o
rt_event_send                                     build\kernel\src\ipc.o
                                                  libraries\hal_drivers\drv_sdio.o
rt_exit_critical                                  build\kernel\src\scheduler.o
                                                  build\kernel\components\drivers\src\dataqueue.o
                                                  build\kernel\components\drivers\src\workqueue.o
                                                  build\kernel\components\drivers\rtc\rtc.o
                                                  build\kernel\components\dfs\filesystems\devfs\devfs.o
                                                  build\kernel\components\dfs\src\dfs.o
                                                  build\kernel\src\object.o
rt_free                                           build\kernel\src\mem.o
                                                  libraries\hal_drivers\drv_sdio.o
                                                  build\kernel\components\libc\compilers\newlib\syscalls.o
                                                  build\kernel\components\finsh\msh.o
                                                  build\kernel\components\finsh\shell.o
                                                  build\kernel\components\finsh\msh_file.o
                                                  build\kernel\components\drivers\src\ringblk_buf.o
                                                  build\kernel\components\drivers\src\ringbuffer.o
                                                  build\kernel\components\drivers\src\pipe.o
                                                  build\kernel\components\drivers\src\dataqueue.o
                                                  build\kernel\components\drivers\src\workqueue.o
                                                  build\kernel\components\drivers\serial\serial.o
                                                  build\kernel\components\drivers\sdio\mmcsd_core.o
                                                  build\kernel\components\drivers\sdio\sdio.o
                                                  build\kernel\components\drivers\sdio\block_dev.o
                                                  build\kernel\components\drivers\sdio\sd.o
                                                  build\kernel\components\drivers\sdio\mmc.o
                                                  build\kernel\components\drivers\audio\audio_pipe.o
                                                  build\kernel\components\drivers\audio\audio.o
                                                  build\kernel\components\dfs\filesystems\elmfat\dfs_elm.o
                                                  build\kernel\components\dfs\filesystems\devfs\devfs.o
                                                  build\kernel\components\dfs\src\dfs_file.o
                                                  build\kernel\components\dfs\src\dfs.o
                                                  build\kernel\components\dfs\src\dfs_fs.o
                                                  build\kernel\components\dfs\src\dfs_posix.o
                                                  build\kernel\src\object.o
                                                  build\kernel\src\device.o
                                                  build\kernel\src\mempool.o
                                                  build\kernel\src\idle.o
                                                  build\kernel\src\kservice.o
                                                  build\kernel\src\ipc.o
                                                  build\kernel\src\memheap.o
rt_free_align                                     build\kernel\src\kservice.o
rt_free_sethook                                   build\kernel\src\mem.o
rt_get_errno                                      build\kernel\src\kservice.o
rt_hw_adc_register                                build\kernel\components\drivers\misc\adc.o
                                                  libraries\hal_drivers\drv_adc.o
rt_hw_board_init                                  build\board\board.o
                                                  build\kernel\src\components.o
rt_hw_console_output                              build\board\board.o
rt_hw_context_switch                              libcpu\cpu\context_gcc.o
                                                  build\kernel\src\scheduler.o
rt_hw_context_switch_interrupt                    libcpu\cpu\context_gcc.o
                                                  build\kernel\src\scheduler.o
rt_hw_context_switch_to                           libcpu\cpu\context_gcc.o
                                                  build\kernel\src\scheduler.o
rt_hw_cpu_shutdown                                libcpu\cpu\cpuport.o
rt_hw_i2c_init                                    libraries\hal_drivers\drv_soft_i2c.o
rt_hw_interrupt_disable                           libcpu\cpu\context_gcc.o
                                                  libcpu\cpu\cpuport.o
                                                  libraries\hal_drivers\drv_usart.o
                                                  build\kernel\components\finsh\cmd.o
                                                  build\kernel\components\drivers\src\waitqueue.o
                                                  build\kernel\components\drivers\src\ringblk_buf.o
                                                  build\kernel\components\drivers\src\completion.o
                                                  build\kernel\components\drivers\src\dataqueue.o
                                                  build\kernel\components\drivers\src\workqueue.o
                                                  build\kernel\components\drivers\serial\serial.o
                                                  build\kernel\components\drivers\hwtimer\hwtimer.o
                                                  build\kernel\components\drivers\audio\audio_pipe.o
                                                  build\kernel\src\components.o
                                                  build\kernel\src\scheduler.o
                                                  build\kernel\src\object.o
                                                  build\kernel\src\mem.o
                                                  build\kernel\src\mempool.o
                                                  build\kernel\src\timer.o
                                                  build\kernel\src\idle.o
                                                  build\kernel\src\irq.o
                                                  build\kernel\src\thread.o
                                                  build\kernel\src\ipc.o
                                                  build\kernel\src\clock.o
rt_hw_interrupt_enable                            libcpu\cpu\context_gcc.o
                                                  libraries\hal_drivers\drv_usart.o
                                                  build\kernel\components\finsh\cmd.o
                                                  build\kernel\components\drivers\src\waitqueue.o
                                                  build\kernel\components\drivers\src\ringblk_buf.o
                                                  build\kernel\components\drivers\src\completion.o
                                                  build\kernel\components\drivers\src\dataqueue.o
                                                  build\kernel\components\drivers\src\workqueue.o
                                                  build\kernel\components\drivers\serial\serial.o
                                                  build\kernel\components\drivers\hwtimer\hwtimer.o
                                                  build\kernel\components\drivers\audio\audio_pipe.o
                                                  build\kernel\src\scheduler.o
                                                  build\kernel\src\object.o
                                                  build\kernel\src\mem.o
                                                  build\kernel\src\mempool.o
                                                  build\kernel\src\timer.o
                                                  build\kernel\src\idle.o
                                                  build\kernel\src\irq.o
                                                  build\kernel\src\thread.o
                                                  build\kernel\src\ipc.o
                                                  build\kernel\src\clock.o
rt_hw_interrupt_init                              libcpu\cpu\interrupt.o
rt_hw_interrupt_install                           libcpu\cpu\interrupt.o
                                                  libraries\hal_drivers\drv_hwtimer.o
                                                  libraries\hal_drivers\drv_usart.o
                                                  libraries\hal_drivers\drv_irrx.o
                                                  libraries\hal_drivers\drv_sdio.o
                                                  build\board\board.o
                                                  build\board\ports\audio\drv_sound.o
rt_hw_irq_disable                                 libcpu\cpu\interrupt.o
                                                  libraries\hal_drivers\drv_sdio.o
rt_hw_irq_enable                                  libcpu\cpu\interrupt.o
                                                  libraries\hal_drivers\drv_sdio.o
rt_hw_pin_init                                    libraries\hal_drivers\drv_gpio.o
                                                  build\board\board.o
rt_hw_rtc_init                                    libraries\hal_drivers\drv_rtc.o
rt_hw_sdio_init                                   libraries\hal_drivers\drv_sdio.o
rt_hw_serial_isr                                  build\kernel\components\drivers\serial\serial.o
rt_hw_serial_register                             build\kernel\components\drivers\serial\serial.o
                                                  libraries\hal_drivers\drv_usart.o
rt_hw_stack_init                                  libcpu\cpu\cpuport.o
                                                  build\kernel\src\thread.o
rt_hw_systick_init                                build\board\board.o
rt_hw_us_delay                                    build\board\board.o
rt_hw_usart_init                                  libraries\hal_drivers\drv_usart.o
                                                  build\board\board.o
rt_hw_watchdog_register                           build\kernel\components\drivers\watchdog\watchdog.o
                                                  libraries\hal_drivers\drv_wdt.o
rt_i2c_bit_add_bus                                build\kernel\components\drivers\i2c\i2c-bit-ops.o
                                                  libraries\hal_drivers\drv_soft_i2c.o
rt_i2c_bus_device_device_init                     build\kernel\components\drivers\i2c\i2c_dev.o
                                                  build\kernel\components\drivers\i2c\i2c_core.o
rt_i2c_bus_device_find                            build\kernel\components\drivers\i2c\i2c_core.o
rt_i2c_bus_device_register                        build\kernel\components\drivers\i2c\i2c_core.o
                                                  build\kernel\components\drivers\i2c\i2c-bit-ops.o
rt_i2c_core_init                                  build\kernel\components\drivers\i2c\i2c_core.o
rt_i2c_master_recv                                build\kernel\components\drivers\i2c\i2c_core.o
                                                  build\kernel\components\drivers\i2c\i2c_dev.o
rt_i2c_master_send                                build\kernel\components\drivers\i2c\i2c_core.o
                                                  build\kernel\components\drivers\i2c\i2c_dev.o
rt_i2c_transfer                                   build\kernel\components\drivers\i2c\i2c_core.o
                                                  build\kernel\components\drivers\i2c\i2c_dev.o
rt_interrupt_enter                                build\kernel\src\irq.o
                                                  libraries\hal_drivers\drv_hwtimer.o
                                                  libraries\hal_drivers\drv_usart.o
                                                  libraries\hal_drivers\drv_irrx.o
                                                  libraries\hal_drivers\drv_sdio.o
                                                  build\board\board.o
                                                  build\board\ports\audio\drv_sound.o
rt_interrupt_enter_sethook                        build\kernel\src\irq.o
rt_interrupt_from_thread                          libcpu\cpu\cpuport.o
                                                  libcpu\cpu\context_gcc.o
rt_interrupt_get_nest                             build\kernel\src\irq.o
                                                  build\kernel\components\drivers\src\waitqueue.o
                                                  build\kernel\components\drivers\src\completion.o
                                                  build\kernel\components\drivers\src\dataqueue.o
                                                  build\kernel\components\drivers\audio\audio_pipe.o
                                                  build\kernel\src\object.o
                                                  build\kernel\src\mem.o
                                                  build\kernel\src\mempool.o
                                                  build\kernel\src\idle.o
                                                  build\kernel\src\kservice.o
                                                  build\kernel\src\ipc.o
rt_interrupt_leave                                build\kernel\src\irq.o
                                                  libraries\hal_drivers\drv_hwtimer.o
                                                  libraries\hal_drivers\drv_usart.o
                                                  libraries\hal_drivers\drv_irrx.o
                                                  libraries\hal_drivers\drv_sdio.o
                                                  build\board\board.o
                                                  build\board\ports\audio\drv_sound.o
rt_interrupt_leave_sethook                        build\kernel\src\irq.o
rt_interrupt_nest                                 build\kernel\src\irq.o
                                                  libcpu\cpu\context_gcc.o
                                                  build\kernel\src\scheduler.o
                                                  build\board\board.o
rt_interrupt_to_thread                            libcpu\cpu\cpuport.o
                                                  libcpu\cpu\context_gcc.o
rt_ipc_get_highest_priority                       build\kernel\src\ipc.o
rt_kprintf                                        build\kernel\src\kservice.o
                                                  libcpu\cpu\cpuport.o
                                                  libraries\hal_drivers\drv_hwtimer.o
                                                  libraries\hal_drivers\drv_pwm.o
                                                  libraries\hal_drivers\drv_adc.o
                                                  libraries\hal_drivers\drv_sdio.o
                                                  libraries\hal_drivers\drv_wdt.o
                                                  libraries\hal_drivers\drv_rtc.o
                                                  build\kernel\components\libc\compilers\common\stdlib.o
                                                  build\kernel\components\finsh\msh.o
                                                  build\kernel\components\finsh\shell.o
                                                  build\kernel\components\finsh\msh_file.o
                                                  build\kernel\components\finsh\cmd.o
                                                  build\kernel\components\drivers\watchdog\watchdog.o
                                                  build\kernel\components\drivers\src\waitqueue.o
                                                  build\kernel\components\drivers\src\completion.o
                                                  build\kernel\components\drivers\src\dataqueue.o
                                                  build\kernel\components\drivers\serial\serial.o
                                                  build\kernel\components\drivers\sdio\mmcsd_core.o
                                                  build\kernel\components\drivers\sdio\sdio.o
                                                  build\kernel\components\drivers\sdio\block_dev.o
                                                  build\kernel\components\drivers\sdio\sd.o
                                                  build\kernel\components\drivers\sdio\mmc.o
                                                  build\kernel\components\drivers\rtc\rtc.o
                                                  build\kernel\components\drivers\misc\rt_drv_pwm.o
                                                  build\kernel\components\drivers\misc\adc.o
                                                  build\kernel\components\drivers\i2c\i2c-bit-ops.o
                                                  build\kernel\components\drivers\i2c\i2c_core.o
                                                  build\kernel\components\drivers\audio\audio_pipe.o
                                                  build\kernel\components\drivers\audio\audio.o
                                                  build\kernel\components\dfs\filesystems\elmfat\dfs_elm.o
                                                  build\kernel\components\dfs\src\dfs_file.o
                                                  build\kernel\components\dfs\src\dfs.o
                                                  build\kernel\components\dfs\src\dfs_fs.o
                                                  build\kernel\components\dfs\src\dfs_posix.o
                                                  build\kernel\src\scheduler.o
                                                  build\kernel\src\object.o
                                                  build\kernel\src\mem.o
                                                  build\kernel\src\device.o
                                                  build\kernel\src\mempool.o
                                                  build\kernel\src\idle.o
                                                  build\kernel\src\ipc.o
                                                  build\kernel\src\memheap.o
                                                  build\board\board.o
                                                  build\applications\mnt.o
                                                  build\applications\main.o
rt_kputs                                          build\kernel\src\kservice.o
rt_malloc                                         build\kernel\src\mem.o
                                                  libraries\hal_drivers\drv_sdio.o
                                                  build\kernel\components\libc\compilers\newlib\syscalls.o
                                                  build\kernel\components\finsh\msh.o
                                                  build\kernel\components\finsh\finsh_var.o
                                                  build\kernel\components\finsh\shell.o
                                                  build\kernel\components\finsh\msh_file.o
                                                  build\kernel\components\finsh\finsh_vm.o
                                                  build\kernel\components\drivers\src\ringblk_buf.o
                                                  build\kernel\components\drivers\src\ringbuffer.o
                                                  build\kernel\components\drivers\src\pipe.o
                                                  build\kernel\components\drivers\src\dataqueue.o
                                                  build\kernel\components\drivers\src\workqueue.o
                                                  build\kernel\components\drivers\serial\serial.o
                                                  build\kernel\components\drivers\sdio\mmcsd_core.o
                                                  build\kernel\components\drivers\sdio\sdio.o
                                                  build\kernel\components\drivers\sdio\block_dev.o
                                                  build\kernel\components\drivers\sdio\sd.o
                                                  build\kernel\components\drivers\sdio\mmc.o
                                                  build\kernel\components\drivers\audio\audio_pipe.o
                                                  build\kernel\components\drivers\audio\audio.o
                                                  build\kernel\components\dfs\filesystems\elmfat\dfs_elm.o
                                                  build\kernel\components\dfs\filesystems\devfs\devfs.o
                                                  build\kernel\components\dfs\src\dfs_file.o
                                                  build\kernel\components\dfs\src\dfs.o
                                                  build\kernel\components\dfs\src\dfs_posix.o
                                                  build\kernel\src\object.o
                                                  build\kernel\src\device.o
                                                  build\kernel\src\mempool.o
                                                  build\kernel\src\thread.o
                                                  build\kernel\src\kservice.o
                                                  build\kernel\src\ipc.o
                                                  build\kernel\src\memheap.o
rt_malloc_align                                   build\kernel\src\kservice.o
rt_malloc_sethook                                 build\kernel\src\mem.o
rt_mb_control                                     build\kernel\src\ipc.o
rt_mb_create                                      build\kernel\src\ipc.o
rt_mb_delete                                      build\kernel\src\ipc.o
rt_mb_detach                                      build\kernel\src\ipc.o
rt_mb_init                                        build\kernel\src\ipc.o
                                                  build\kernel\components\drivers\sdio\mmcsd_core.o
rt_mb_recv                                        build\kernel\src\ipc.o
                                                  build\kernel\components\drivers\sdio\mmcsd_core.o
rt_mb_send                                        build\kernel\src\ipc.o
                                                  build\kernel\components\drivers\sdio\mmcsd_core.o
rt_mb_send_wait                                   build\kernel\src\ipc.o
rt_mb_urgent                                      build\kernel\src\ipc.o
rt_memcmp                                         build\kernel\src\kservice.o
rt_memcpy                                         build\kernel\src\kservice.o
                                                  libraries\hal_drivers\drv_sdio.o
                                                  build\kernel\components\drivers\sdio\mmcsd_core.o
                                                  build\kernel\components\drivers\sdio\block_dev.o
                                                  build\kernel\components\drivers\sdio\sd.o
                                                  build\kernel\components\drivers\sdio\mmc.o
                                                  build\kernel\components\drivers\rtc\rtc.o
                                                  build\kernel\components\drivers\hwtimer\hwtimer.o
                                                  build\kernel\src\mem.o
                                                  build\kernel\src\ipc.o
                                                  build\kernel\src\memheap.o
rt_memheap_alloc                                  build\kernel\src\memheap.o
rt_memheap_detach                                 build\kernel\src\memheap.o
rt_memheap_dump                                   build\kernel\src\memheap.o
rt_memheap_free                                   build\kernel\src\memheap.o
rt_memheap_init                                   build\kernel\src\memheap.o
rt_memheap_realloc                                build\kernel\src\memheap.o
rt_memmove                                        build\kernel\src\kservice.o
                                                  build\kernel\components\finsh\shell.o
rt_memory_info                                    build\kernel\src\mem.o
rt_memset                                         build\kernel\src\kservice.o
                                                  libraries\hal_drivers\drv_irrx.o
                                                  libraries\hal_drivers\drv_sdio.o
                                                  build\kernel\components\drivers\src\pipe.o
                                                  build\kernel\components\drivers\serial\serial.o
                                                  build\kernel\components\drivers\sdio\mmcsd_core.o
                                                  build\kernel\components\drivers\sdio\sdio.o
                                                  build\kernel\components\drivers\sdio\block_dev.o
                                                  build\kernel\components\drivers\sdio\sd.o
                                                  build\kernel\components\drivers\sdio\mmc.o
                                                  build\kernel\components\dfs\filesystems\elmfat\dfs_elm.o
                                                  build\kernel\src\object.o
                                                  build\kernel\src\mem.o
                                                  build\kernel\src\device.o
                                                  build\kernel\src\thread.o
rt_mmcsd_blk_init                                 build\kernel\components\drivers\sdio\block_dev.o
rt_mmcsd_blk_probe                                build\kernel\components\drivers\sdio\block_dev.o
                                                  build\kernel\components\drivers\sdio\sd.o
                                                  build\kernel\components\drivers\sdio\mmc.o
rt_mmcsd_blk_remove                               build\kernel\components\drivers\sdio\block_dev.o
                                                  build\kernel\components\drivers\sdio\mmcsd_core.o
                                                  build\kernel\components\drivers\sdio\sd.o
                                                  build\kernel\components\drivers\sdio\mmc.o
rt_mmcsd_core_init                                build\kernel\components\drivers\sdio\mmcsd_core.o
rt_mp_alloc                                       build\kernel\src\mempool.o
                                                  build\kernel\components\drivers\audio\audio.o
rt_mp_alloc_sethook                               build\kernel\src\mempool.o
rt_mp_create                                      build\kernel\src\mempool.o
                                                  build\kernel\components\drivers\audio\audio.o
rt_mp_delete                                      build\kernel\src\mempool.o
rt_mp_detach                                      build\kernel\src\mempool.o
rt_mp_free                                        build\kernel\src\mempool.o
                                                  build\kernel\components\drivers\audio\audio.o
rt_mp_free_sethook                                build\kernel\src\mempool.o
rt_mp_init                                        build\kernel\src\mempool.o
rt_mq_control                                     build\kernel\src\ipc.o
rt_mq_create                                      build\kernel\src\ipc.o
rt_mq_delete                                      build\kernel\src\ipc.o
rt_mq_detach                                      build\kernel\src\ipc.o
rt_mq_init                                        build\kernel\src\ipc.o
rt_mq_recv                                        build\kernel\src\ipc.o
rt_mq_send                                        build\kernel\src\ipc.o
rt_mq_send_wait                                   build\kernel\src\ipc.o
rt_mq_urgent                                      build\kernel\src\ipc.o
rt_mutex_control                                  build\kernel\src\ipc.o
rt_mutex_create                                   build\kernel\src\ipc.o
                                                  build\kernel\components\dfs\filesystems\elmfat\dfs_elm.o
rt_mutex_delete                                   build\kernel\src\ipc.o
                                                  build\kernel\components\dfs\filesystems\elmfat\dfs_elm.o
rt_mutex_detach                                   build\kernel\src\ipc.o
                                                  build\kernel\components\drivers\src\pipe.o
                                                  build\kernel\components\drivers\sdio\mmcsd_core.o
rt_mutex_init                                     build\kernel\src\ipc.o
                                                  libraries\hal_drivers\drv_sdio.o
                                                  build\kernel\components\drivers\src\pipe.o
                                                  build\kernel\components\drivers\sdio\mmcsd_core.o
                                                  build\kernel\components\drivers\i2c\i2c_core.o
                                                  build\kernel\components\drivers\audio\audio.o
                                                  build\kernel\components\dfs\src\dfs.o
                                                  build\board\board.o
rt_mutex_release                                  build\kernel\src\ipc.o
                                                  libraries\hal_drivers\drv_sdio.o
                                                  build\kernel\components\drivers\src\pipe.o
                                                  build\kernel\components\drivers\sdio\mmcsd_core.o
                                                  build\kernel\components\drivers\i2c\i2c_core.o
                                                  build\kernel\components\drivers\audio\audio.o
                                                  build\kernel\components\dfs\filesystems\elmfat\dfs_elm.o
                                                  build\kernel\components\dfs\src\dfs.o
                                                  build\board\board.o
rt_mutex_take                                     build\kernel\src\ipc.o
                                                  libraries\hal_drivers\drv_sdio.o
                                                  build\kernel\components\drivers\src\pipe.o
                                                  build\kernel\components\drivers\sdio\mmcsd_core.o
                                                  build\kernel\components\drivers\i2c\i2c_core.o
                                                  build\kernel\components\drivers\audio\audio.o
                                                  build\kernel\components\dfs\filesystems\elmfat\dfs_elm.o
                                                  build\kernel\components\dfs\src\dfs.o
                                                  build\board\board.o
rt_object_allocate                                build\kernel\src\object.o
                                                  build\kernel\src\mempool.o
                                                  build\kernel\src\timer.o
                                                  build\kernel\src\thread.o
                                                  build\kernel\src\ipc.o
rt_object_attach_sethook                          build\kernel\src\object.o
rt_object_delete                                  build\kernel\src\object.o
                                                  build\kernel\src\mempool.o
                                                  build\kernel\src\timer.o
                                                  build\kernel\src\idle.o
                                                  build\kernel\src\thread.o
                                                  build\kernel\src\ipc.o
rt_object_detach                                  build\kernel\src\object.o
                                                  build\kernel\src\device.o
                                                  build\kernel\src\mempool.o
                                                  build\kernel\src\timer.o
                                                  build\kernel\src\thread.o
                                                  build\kernel\src\ipc.o
                                                  build\kernel\src\memheap.o
rt_object_detach_sethook                          build\kernel\src\object.o
rt_object_find                                    build\kernel\src\object.o
                                                  build\kernel\src\device.o
                                                  build\kernel\src\thread.o
rt_object_get_information                         build\kernel\src\object.o
                                                  build\kernel\components\finsh\cmd.o
                                                  build\kernel\components\dfs\filesystems\devfs\devfs.o
rt_object_get_length                              build\kernel\src\object.o
                                                  build\kernel\src\memheap.o
rt_object_get_pointers                            build\kernel\src\object.o
                                                  build\kernel\src\memheap.o
rt_object_get_type                                build\kernel\src\object.o
                                                  build\kernel\src\device.o
                                                  build\kernel\src\mempool.o
                                                  build\kernel\src\timer.o
                                                  build\kernel\src\thread.o
                                                  build\kernel\src\ipc.o
                                                  build\kernel\src\memheap.o
rt_object_init                                    build\kernel\src\object.o
                                                  build\kernel\src\device.o
                                                  build\kernel\src\mempool.o
                                                  build\kernel\src\timer.o
                                                  build\kernel\src\thread.o
                                                  build\kernel\src\ipc.o
                                                  build\kernel\src\memheap.o
rt_object_is_systemobject                         build\kernel\src\object.o
                                                  build\kernel\src\device.o
                                                  build\kernel\src\mempool.o
                                                  build\kernel\src\timer.o
                                                  build\kernel\src\thread.o
                                                  build\kernel\src\ipc.o
                                                  build\kernel\src\memheap.o
rt_object_put_hook                                build\kernel\src\object.o
                                                  build\kernel\src\timer.o
                                                  build\kernel\src\ipc.o
rt_object_put_sethook                             build\kernel\src\object.o
rt_object_take_hook                               build\kernel\src\object.o
                                                  build\kernel\src\timer.o
                                                  build\kernel\src\ipc.o
rt_object_take_sethook                            build\kernel\src\object.o
rt_object_trytake_hook                            build\kernel\src\object.o
                                                  build\kernel\src\ipc.o
rt_object_trytake_sethook                         build\kernel\src\object.o
rt_pin_attach_irq                                 build\kernel\components\drivers\misc\pin.o
rt_pin_detach_irq                                 build\kernel\components\drivers\misc\pin.o
rt_pin_get                                        build\kernel\components\drivers\misc\pin.o
                                                  build\applications\main.o
rt_pin_irq_enable                                 build\kernel\components\drivers\misc\pin.o
rt_pin_mode                                       build\kernel\components\drivers\misc\pin.o
                                                  libraries\hal_drivers\drv_soft_i2c.o
                                                  build\applications\main.o
rt_pin_read                                       build\kernel\components\drivers\misc\pin.o
                                                  libraries\hal_drivers\drv_soft_i2c.o
rt_pin_write                                      build\kernel\components\drivers\misc\pin.o
                                                  libraries\hal_drivers\drv_soft_i2c.o
                                                  build\applications\main.o
rt_pipe_close                                     build\kernel\components\drivers\src\pipe.o
rt_pipe_control                                   build\kernel\components\drivers\src\pipe.o
rt_pipe_create                                    build\kernel\components\drivers\src\pipe.o
rt_pipe_delete                                    build\kernel\components\drivers\src\pipe.o
rt_pipe_open                                      build\kernel\components\drivers\src\pipe.o
rt_pipe_read                                      build\kernel\components\drivers\src\pipe.o
rt_pipe_write                                     build\kernel\components\drivers\src\pipe.o
rt_pwm_disable                                    build\kernel\components\drivers\misc\rt_drv_pwm.o
rt_pwm_enable                                     build\kernel\components\drivers\misc\rt_drv_pwm.o
rt_pwm_get                                        build\kernel\components\drivers\misc\rt_drv_pwm.o
rt_pwm_set                                        build\kernel\components\drivers\misc\rt_drv_pwm.o
rt_rbb_blk_alloc                                  build\kernel\components\drivers\src\ringblk_buf.o
rt_rbb_blk_buf                                    build\kernel\components\drivers\src\ringblk_buf.o
rt_rbb_blk_free                                   build\kernel\components\drivers\src\ringblk_buf.o
rt_rbb_blk_get                                    build\kernel\components\drivers\src\ringblk_buf.o
rt_rbb_blk_put                                    build\kernel\components\drivers\src\ringblk_buf.o
rt_rbb_blk_queue_buf                              build\kernel\components\drivers\src\ringblk_buf.o
rt_rbb_blk_queue_free                             build\kernel\components\drivers\src\ringblk_buf.o
rt_rbb_blk_queue_get                              build\kernel\components\drivers\src\ringblk_buf.o
rt_rbb_blk_queue_len                              build\kernel\components\drivers\src\ringblk_buf.o
rt_rbb_blk_size                                   build\kernel\components\drivers\src\ringblk_buf.o
rt_rbb_create                                     build\kernel\components\drivers\src\ringblk_buf.o
rt_rbb_destroy                                    build\kernel\components\drivers\src\ringblk_buf.o
rt_rbb_get_buf_size                               build\kernel\components\drivers\src\ringblk_buf.o
rt_rbb_init                                       build\kernel\components\drivers\src\ringblk_buf.o
rt_rbb_next_blk_queue_len                         build\kernel\components\drivers\src\ringblk_buf.o
rt_realloc                                        build\kernel\src\mem.o
                                                  build\kernel\components\libc\compilers\newlib\syscalls.o
                                                  build\kernel\components\dfs\src\dfs.o
rt_ringbuffer_create                              build\kernel\components\drivers\src\ringbuffer.o
                                                  build\kernel\components\drivers\src\pipe.o
rt_ringbuffer_data_len                            build\kernel\components\drivers\src\ringbuffer.o
                                                  build\kernel\components\drivers\audio\audio_pipe.o
rt_ringbuffer_destroy                             build\kernel\components\drivers\src\ringbuffer.o
                                                  build\kernel\components\drivers\src\pipe.o
rt_ringbuffer_get                                 build\kernel\components\drivers\src\ringbuffer.o
                                                  build\kernel\components\drivers\src\pipe.o
                                                  build\kernel\components\drivers\audio\audio_pipe.o
rt_ringbuffer_getchar                             build\kernel\components\drivers\src\ringbuffer.o
rt_ringbuffer_init                                build\kernel\components\drivers\src\ringbuffer.o
                                                  build\kernel\components\drivers\audio\audio_pipe.o
rt_ringbuffer_peak                                build\kernel\components\drivers\src\ringbuffer.o
rt_ringbuffer_put                                 build\kernel\components\drivers\src\ringbuffer.o
                                                  build\kernel\components\drivers\src\pipe.o
                                                  build\kernel\components\drivers\audio\audio_pipe.o
rt_ringbuffer_put_force                           build\kernel\components\drivers\src\ringbuffer.o
                                                  build\kernel\components\drivers\audio\audio_pipe.o
rt_ringbuffer_putchar                             build\kernel\components\drivers\src\ringbuffer.o
rt_ringbuffer_putchar_force                       build\kernel\components\drivers\src\ringbuffer.o
rt_ringbuffer_reset                               build\kernel\components\drivers\src\ringbuffer.o
rt_schedule                                       build\kernel\src\scheduler.o
                                                  build\kernel\components\drivers\src\waitqueue.o
                                                  build\kernel\components\drivers\src\completion.o
                                                  build\kernel\components\drivers\src\dataqueue.o
                                                  build\kernel\components\drivers\src\workqueue.o
                                                  build\kernel\components\drivers\audio\audio_pipe.o
                                                  build\kernel\src\mempool.o
                                                  build\kernel\src\timer.o
                                                  build\kernel\src\thread.o
                                                  build\kernel\src\ipc.o
                                                  build\kernel\src\clock.o
rt_schedule_insert_thread                         build\kernel\src\scheduler.o
                                                  build\kernel\src\thread.o
rt_schedule_remove_thread                         build\kernel\src\scheduler.o
                                                  build\kernel\src\thread.o
rt_scheduler_sethook                              build\kernel\src\scheduler.o
rt_sdio_init                                      build\kernel\components\drivers\sdio\sdio.o
                                                  build\kernel\components\drivers\sdio\mmcsd_core.o
rt_sem_control                                    build\kernel\src\ipc.o
rt_sem_create                                     build\kernel\src\ipc.o
                                                  build\kernel\components\drivers\sdio\sdio.o
                                                  build\kernel\components\drivers\sdio\block_dev.o
                                                  build\board\ports\audio\drv_sound.o
rt_sem_delete                                     build\kernel\src\ipc.o
                                                  build\kernel\components\drivers\sdio\sdio.o
                                                  build\kernel\components\drivers\sdio\block_dev.o
rt_sem_detach                                     build\kernel\src\ipc.o
                                                  build\kernel\components\drivers\src\workqueue.o
                                                  build\kernel\components\drivers\sdio\mmcsd_core.o
                                                  build\kernel\src\memheap.o
rt_sem_init                                       build\kernel\src\ipc.o
                                                  build\kernel\components\finsh\shell.o
                                                  build\kernel\components\drivers\src\workqueue.o
                                                  build\kernel\components\drivers\sdio\mmcsd_core.o
                                                  build\kernel\src\mem.o
                                                  build\kernel\src\memheap.o
rt_sem_release                                    build\kernel\src\ipc.o
                                                  libraries\hal_drivers\drv_usart.o
                                                  build\kernel\components\finsh\shell.o
                                                  build\kernel\components\drivers\src\workqueue.o
                                                  build\kernel\components\drivers\sdio\mmcsd_core.o
                                                  build\kernel\components\drivers\sdio\sdio.o
                                                  build\kernel\components\drivers\sdio\block_dev.o
                                                  build\kernel\src\mem.o
                                                  build\kernel\src\memheap.o
                                                  build\board\ports\audio\drv_sound.o
rt_sem_take                                       build\kernel\src\ipc.o
                                                  build\kernel\components\finsh\shell.o
                                                  build\kernel\components\drivers\src\workqueue.o
                                                  build\kernel\components\drivers\sdio\mmcsd_core.o
                                                  build\kernel\components\drivers\sdio\sdio.o
                                                  build\kernel\components\drivers\sdio\block_dev.o
                                                  build\kernel\src\mem.o
                                                  build\kernel\src\memheap.o
                                                  build\board\ports\audio\drv_sound.o
rt_sem_trytake                                    build\kernel\src\ipc.o
                                                  build\kernel\components\drivers\src\workqueue.o
rt_set_errno                                      build\kernel\src\kservice.o
                                                  build\kernel\components\drivers\src\pipe.o
                                                  build\kernel\components\drivers\sdio\block_dev.o
                                                  build\kernel\components\dfs\src\dfs_fs.o
                                                  build\kernel\components\dfs\src\dfs_posix.o
                                                  build\kernel\src\device.o
                                                  build\kernel\src\mempool.o
                                                  build\kernel\src\memheap.o
rt_show_version                                   build\kernel\src\kservice.o
                                                  build\kernel\components\finsh\cmd.o
                                                  build\kernel\src\components.o
rt_snprintf                                       build\kernel\src\kservice.o
                                                  build\kernel\components\finsh\msh_file.o
                                                  build\kernel\components\drivers\sdio\block_dev.o
                                                  build\kernel\components\dfs\filesystems\elmfat\dfs_elm.o
                                                  build\kernel\components\dfs\src\dfs.o
rt_soft_isr                                       libcpu\cpu\context_gcc.o
                                                  build\board\board.o
rt_soft_timer_check                               build\kernel\src\timer.o
rt_sprintf                                        build\kernel\src\kservice.o
                                                  build\kernel\components\finsh\msh_file.o
                                                  build\kernel\src\idle.o
rt_strcasecmp                                     build\kernel\src\kservice.o
rt_strcmp                                         build\kernel\src\kservice.o
                                                  build\kernel\components\finsh\msh_file.o
rt_strdup                                         build\kernel\src\kservice.o
                                                  build\kernel\components\finsh\finsh_var.o
                                                  build\kernel\components\finsh\finsh_vm.o
                                                  build\kernel\components\dfs\src\dfs_file.o
                                                  build\kernel\components\dfs\src\dfs.o
rt_strlen                                         build\kernel\src\kservice.o
                                                  libraries\hal_drivers\drv_gpio.o
                                                  build\kernel\components\finsh\msh.o
                                                  build\kernel\components\finsh\shell.o
                                                  build\kernel\components\finsh\msh_file.o
                                                  build\kernel\components\dfs\filesystems\elmfat\dfs_elm.o
rt_strncmp                                        build\kernel\src\kservice.o
                                                  build\kernel\src\object.o
rt_strncpy                                        build\kernel\src\kservice.o
                                                  build\kernel\components\finsh\msh.o
                                                  build\kernel\components\finsh\cmd.o
                                                  build\kernel\components\dfs\filesystems\elmfat\dfs_elm.o
                                                  build\kernel\components\dfs\filesystems\devfs\devfs.o
                                                  build\kernel\src\object.o
rt_strnlen                                        build\kernel\src\kservice.o
rt_strstr                                         build\kernel\src\kservice.o
rt_switch_to_thread                               libcpu\cpu\context_gcc.o
rt_system_heap_init                               build\kernel\src\mem.o
                                                  build\board\board.o
rt_system_scheduler_init                          build\kernel\src\scheduler.o
                                                  build\kernel\src\components.o
rt_system_scheduler_start                         build\kernel\src\scheduler.o
                                                  build\kernel\src\components.o
rt_system_timer_init                              build\kernel\src\timer.o
                                                  build\kernel\src\components.o
rt_system_timer_thread_init                       build\kernel\src\timer.o
                                                  build\kernel\src\components.o
rt_thread_control                                 build\kernel\src\thread.o
                                                  build\kernel\components\libc\compilers\common\stdlib.o
                                                  build\kernel\src\ipc.o
rt_thread_create                                  build\kernel\src\thread.o
                                                  build\kernel\components\finsh\shell.o
                                                  build\kernel\components\drivers\src\workqueue.o
                                                  build\kernel\components\drivers\sdio\sdio.o
                                                  build\kernel\src\components.o
                                                  build\board\ports\audio\drv_sound.o
                                                  build\applications\mnt.o
rt_thread_defunct                                 build\kernel\src\scheduler.o
                                                  build\kernel\src\idle.o
                                                  build\kernel\src\thread.o
rt_thread_delay                                   build\kernel\src\thread.o
                                                  build\kernel\components\drivers\sdio\mmcsd_core.o
                                                  build\kernel\components\drivers\sdio\sdio.o
                                                  build\kernel\components\drivers\sdio\sd.o
                                                  build\kernel\components\drivers\sdio\mmc.o
                                                  build\kernel\components\drivers\i2c\i2c-bit-ops.o
                                                  build\kernel\src\timer.o
rt_thread_delay_until                             build\kernel\src\thread.o
rt_thread_delete                                  build\kernel\src\thread.o
                                                  build\kernel\components\drivers\src\workqueue.o
                                                  build\kernel\components\drivers\sdio\sdio.o
rt_thread_detach                                  build\kernel\src\thread.o
rt_thread_exit                                    build\kernel\src\thread.o
rt_thread_find                                    build\kernel\src\thread.o
rt_thread_idle_delhook                            build\kernel\src\idle.o
rt_thread_idle_excute                             build\kernel\src\idle.o
rt_thread_idle_gethandler                         build\kernel\src\idle.o
rt_thread_idle_init                               build\kernel\src\idle.o
                                                  build\kernel\src\components.o
rt_thread_idle_sethook                            build\kernel\src\idle.o
rt_thread_init                                    build\kernel\src\thread.o
                                                  build\kernel\components\drivers\sdio\mmcsd_core.o
                                                  build\kernel\src\timer.o
                                                  build\kernel\src\idle.o
rt_thread_inited_sethook                          build\kernel\src\thread.o
rt_thread_mdelay                                  build\kernel\src\thread.o
                                                  libraries\hal_drivers\drv_sdio.o
                                                  build\board\board.o
                                                  build\board\ports\audio\drv_sound.o
                                                  build\applications\mnt.o
                                                  build\applications\main.o
rt_thread_priority_table                          build\kernel\src\scheduler.o
rt_thread_ready_priority_group                    build\kernel\src\scheduler.o
rt_thread_resume                                  build\kernel\src\thread.o
                                                  build\kernel\components\drivers\src\waitqueue.o
                                                  build\kernel\components\drivers\src\completion.o
                                                  build\kernel\components\drivers\src\dataqueue.o
                                                  build\kernel\components\drivers\src\workqueue.o
                                                  build\kernel\components\drivers\audio\audio_pipe.o
                                                  build\kernel\src\mempool.o
                                                  build\kernel\src\timer.o
                                                  build\kernel\src\ipc.o
rt_thread_resume_sethook                          build\kernel\src\thread.o
rt_thread_self                                    build\kernel\src\thread.o
                                                  libraries\hal_libraries\ab32vg1_hal\libhal.a(debug.o)
                                                  build\kernel\components\libc\compilers\common\stdlib.o
                                                  build\kernel\components\drivers\src\waitqueue.o
                                                  build\kernel\components\drivers\src\completion.o
                                                  build\kernel\components\drivers\src\dataqueue.o
                                                  build\kernel\components\drivers\src\workqueue.o
                                                  build\kernel\components\drivers\audio\audio_pipe.o
                                                  build\kernel\src\mempool.o
                                                  build\kernel\src\timer.o
                                                  build\kernel\src\kservice.o
                                                  build\kernel\src\ipc.o
                                                  build\kernel\src\clock.o
                                                  build\board\board.o
rt_thread_sleep                                   build\kernel\src\thread.o
rt_thread_startup                                 build\kernel\src\thread.o
                                                  build\kernel\components\finsh\shell.o
                                                  build\kernel\components\drivers\src\workqueue.o
                                                  build\kernel\components\drivers\sdio\mmcsd_core.o
                                                  build\kernel\components\drivers\sdio\sdio.o
                                                  build\kernel\src\components.o
                                                  build\kernel\src\timer.o
                                                  build\kernel\src\idle.o
                                                  build\board\ports\audio\drv_sound.o
                                                  build\applications\mnt.o
rt_thread_suspend                                 build\kernel\src\thread.o
                                                  build\kernel\components\drivers\src\waitqueue.o
                                                  build\kernel\components\drivers\src\completion.o
                                                  build\kernel\components\drivers\src\dataqueue.o
                                                  build\kernel\components\drivers\src\workqueue.o
                                                  build\kernel\components\drivers\audio\audio_pipe.o
                                                  build\kernel\src\mempool.o
                                                  build\kernel\src\timer.o
                                                  build\kernel\src\ipc.o
rt_thread_suspend_sethook                         build\kernel\src\thread.o
rt_thread_switch_interrupt_flag                   libcpu\cpu\cpuport.o
                                                  libcpu\cpu\context_gcc.o
rt_thread_timeout                                 build\kernel\src\thread.o
rt_thread_yield                                   build\kernel\src\thread.o
rt_tick_from_millisecond                          build\kernel\src\clock.o
                                                  libraries\hal_drivers\drv_sdio.o
                                                  build\kernel\components\drivers\src\waitqueue.o
                                                  build\kernel\src\thread.o
rt_tick_get                                       build\kernel\src\clock.o
                                                  build\kernel\components\libc\compilers\common\time.o
                                                  build\kernel\components\finsh\cmd.o
                                                  build\kernel\components\drivers\sdio\sdio.o
                                                  build\kernel\components\drivers\i2c\i2c-bit-ops.o
                                                  build\kernel\src\mempool.o
                                                  build\kernel\src\timer.o
                                                  build\kernel\src\thread.o
                                                  build\kernel\src\ipc.o
rt_tick_get_millisecond                           build\kernel\src\clock.o
rt_tick_increase                                  build\kernel\src\clock.o
                                                  build\board\board.o
rt_tick_set                                       build\kernel\src\clock.o
rt_timer_check                                    build\kernel\src\timer.o
                                                  build\kernel\src\clock.o
rt_timer_control                                  build\kernel\src\timer.o
                                                  build\kernel\components\drivers\src\waitqueue.o
                                                  build\kernel\components\drivers\src\completion.o
                                                  build\kernel\components\drivers\src\dataqueue.o
                                                  build\kernel\components\drivers\src\workqueue.o
                                                  build\kernel\src\mempool.o
                                                  build\kernel\src\thread.o
                                                  build\kernel\src\ipc.o
rt_timer_create                                   build\kernel\src\timer.o
rt_timer_delete                                   build\kernel\src\timer.o
rt_timer_detach                                   build\kernel\src\timer.o
                                                  build\kernel\components\drivers\src\workqueue.o
                                                  build\kernel\src\thread.o
rt_timer_enter_sethook                            build\kernel\src\timer.o
rt_timer_exit_sethook                             build\kernel\src\timer.o
rt_timer_init                                     build\kernel\src\timer.o
                                                  build\kernel\components\drivers\src\workqueue.o
                                                  build\kernel\src\thread.o
rt_timer_next_timeout_tick                        build\kernel\src\timer.o
rt_timer_start                                    build\kernel\src\timer.o
                                                  build\kernel\components\drivers\src\waitqueue.o
                                                  build\kernel\components\drivers\src\completion.o
                                                  build\kernel\components\drivers\src\dataqueue.o
                                                  build\kernel\components\drivers\src\workqueue.o
                                                  build\kernel\src\mempool.o
                                                  build\kernel\src\thread.o
                                                  build\kernel\src\ipc.o
rt_timer_stop                                     build\kernel\src\timer.o
                                                  build\kernel\components\drivers\src\workqueue.o
                                                  build\kernel\src\thread.o
rt_vsnprintf                                      build\kernel\src\kservice.o
                                                  build\board\board.o
rt_vsprintf                                       build\kernel\src\kservice.o
rt_wdt_init                                       libraries\hal_drivers\drv_wdt.o
rt_workqueue_cancel_all_work                      build\kernel\components\drivers\src\workqueue.o
rt_workqueue_cancel_work                          build\kernel\components\drivers\src\workqueue.o
rt_workqueue_cancel_work_sync                     build\kernel\components\drivers\src\workqueue.o
rt_workqueue_create                               build\kernel\components\drivers\src\workqueue.o
rt_workqueue_critical_work                        build\kernel\components\drivers\src\workqueue.o
rt_workqueue_destroy                              build\kernel\components\drivers\src\workqueue.o
rt_workqueue_dowork                               build\kernel\components\drivers\src\workqueue.o
rt_workqueue_submit_work                          build\kernel\components\drivers\src\workqueue.o
rt_wqueue_add                                     build\kernel\components\drivers\src\waitqueue.o
rt_wqueue_remove                                  build\kernel\components\drivers\src\waitqueue.o
rt_wqueue_wait                                    build\kernel\components\drivers\src\waitqueue.o
rt_wqueue_wakeup                                  build\kernel\components\drivers\src\waitqueue.o
rthw_sdio_irq_process                             libraries\hal_drivers\drv_sdio.o
rthw_sdio_irq_update                              libraries\hal_drivers\drv_sdio.o
rtthread_startup                                  build\kernel\src\components.o
saia_channels_set                                 build\board\ports\audio\drv_sound.o
saia_frequency_set                                build\board\ports\audio\drv_sound.o
saia_volume_get                                   build\board\ports\audio\drv_sound.o
saia_volume_set                                   build\board\ports\audio\drv_sound.o
sd_mount                                          build\applications\mnt.o
sdio_attach_irq                                   build\kernel\components\drivers\sdio\sdio.o
sdio_check_finish                                 libraries\hal_libraries\ab32vg1_hal\source\ab32vg1_hal_sd.o
sdio_check_rsp                                    libraries\hal_libraries\ab32vg1_hal\source\ab32vg1_hal_sd.o
sdio_detach_irq                                   build\kernel\components\drivers\sdio\sdio.o
sdio_disable_func                                 build\kernel\components\drivers\sdio\sdio.o
sdio_enable_func                                  build\kernel\components\drivers\sdio\sdio.o
sdio_free_cis                                     build\kernel\components\drivers\sdio\sdio.o
sdio_get_cmd_rsp                                  libraries\hal_libraries\ab32vg1_hal\source\ab32vg1_hal_sd.o
sdio_get_drvdata                                  build\kernel\components\drivers\sdio\sdio.o
sdio_get_rsp                                      libraries\hal_libraries\ab32vg1_hal\source\ab32vg1_hal_sd.o
sdio_host_create                                  libraries\hal_drivers\drv_sdio.o
sdio_init                                         libraries\hal_libraries\ab32vg1_hal\source\ab32vg1_hal_sd.o
sdio_io_read_multi_fifo_b                         build\kernel\components\drivers\sdio\sdio.o
sdio_io_read_multi_incr_b                         build\kernel\components\drivers\sdio\sdio.o
sdio_io_readb                                     build\kernel\components\drivers\sdio\sdio.o
sdio_io_readl                                     build\kernel\components\drivers\sdio\sdio.o
sdio_io_readw                                     build\kernel\components\drivers\sdio\sdio.o
sdio_io_rw_direct                                 build\kernel\components\drivers\sdio\sdio.o
sdio_io_rw_extended                               build\kernel\components\drivers\sdio\sdio.o
sdio_io_rw_extended_block                         build\kernel\components\drivers\sdio\sdio.o
sdio_io_send_op_cond                              build\kernel\components\drivers\sdio\sdio.o
                                                  build\kernel\components\drivers\sdio\mmcsd_core.o
sdio_io_write_multi_fifo_b                        build\kernel\components\drivers\sdio\sdio.o
sdio_io_write_multi_incr_b                        build\kernel\components\drivers\sdio\sdio.o
sdio_io_writeb                                    build\kernel\components\drivers\sdio\sdio.o
sdio_io_writel                                    build\kernel\components\drivers\sdio\sdio.o
sdio_io_writew                                    build\kernel\components\drivers\sdio\sdio.o
sdio_irq_wakeup                                   build\kernel\components\drivers\sdio\sdio.o
sdio_isbusy                                       libraries\hal_libraries\ab32vg1_hal\source\ab32vg1_hal_sd.o
sdio_isr                                          libraries\hal_drivers\drv_sdio.o
sdio_read_kick                                    libraries\hal_libraries\ab32vg1_hal\source\ab32vg1_hal_sd.o
sdio_register_driver                              build\kernel\components\drivers\sdio\sdio.o
sdio_send_cmd                                     libraries\hal_libraries\ab32vg1_hal\source\ab32vg1_hal_sd.o
sdio_set_block_size                               build\kernel\components\drivers\sdio\sdio.o
sdio_set_drvdata                                  build\kernel\components\drivers\sdio\sdio.o
sdio_setbaud                                      libraries\hal_libraries\ab32vg1_hal\source\ab32vg1_hal_sd.o
sdio_unregister_driver                            build\kernel\components\drivers\sdio\sdio.o
sdio_write_kick                                   libraries\hal_libraries\ab32vg1_hal\source\ab32vg1_hal_sd.o
sdmmc_acmd_op_cond                                libraries\hal_libraries\ab32vg1_hal\source\ab32vg1_hal_sd.o
sdmmc_cmd_all_send_cid                            libraries\hal_libraries\ab32vg1_hal\source\ab32vg1_hal_sd.o
sdmmc_cmd_app                                     libraries\hal_libraries\ab32vg1_hal\source\ab32vg1_hal_sd.o
sdmmc_cmd_go_idle_state                           libraries\hal_libraries\ab32vg1_hal\source\ab32vg1_hal_sd.o
sdmmc_cmd_read_multiblock                         libraries\hal_libraries\ab32vg1_hal\source\ab32vg1_hal_sd.o
sdmmc_cmd_select_card                             libraries\hal_libraries\ab32vg1_hal\source\ab32vg1_hal_sd.o
sdmmc_cmd_send_csd                                libraries\hal_libraries\ab32vg1_hal\source\ab32vg1_hal_sd.o
sdmmc_cmd_send_if_cond                            libraries\hal_libraries\ab32vg1_hal\source\ab32vg1_hal_sd.o
sdmmc_cmd_set_rel_addr                            libraries\hal_libraries\ab32vg1_hal\source\ab32vg1_hal_sd.o
seekdir                                           build\kernel\components\dfs\src\dfs_posix.o
set_cpu_irq_comm                                  libcpu\cpu\interrupt.o
                                                  build\board\board.o
set_date                                          build\kernel\components\drivers\rtc\rtc.o
set_dump                                          libraries\hal_libraries\ab32vg1_hal\libhal.a(debug.o)
set_peripherals_clkdiv                            libraries\hal_libraries\bmsis\source\system_ab32vgx.o
set_peripherals_clkdiv_safety                     libraries\hal_libraries\bmsis\source\system_ab32vgx.o
set_sd_baud                                       libraries\hal_libraries\bmsis\source\system_ab32vgx.o
set_sys_uart0baud                                 libraries\hal_libraries\bmsis\source\system_ab32vgx.o
set_sysclk                                        libraries\hal_libraries\bmsis\source\system_ab32vgx.o
                                                  build\board\board.o
set_time                                          build\kernel\components\drivers\rtc\rtc.o
setlocale                                         d:/program_files/programming/rt-threadstudio/repo/extract/toolchain_support_packages/risc-v/risc-v-gcc/10.1.0/bin/../lib/gcc/riscv64-unknown-elf/10.1.0/../../../../riscv64-unknown-elf/lib/rv32im/ilp32\libc.a(lib_a-locale.o)
settimeofday                                      build\kernel\components\libc\compilers\common\time.o
setvbuf                                           d:/program_files/programming/rt-threadstudio/repo/extract/toolchain_support_packages/risc-v/risc-v-gcc/10.1.0/bin/../lib/gcc/riscv64-unknown-elf/10.1.0/../../../../riscv64-unknown-elf/lib/rv32im/ilp32\libc.a(lib_a-setvbuf.o)
                                                  build\kernel\components\libc\compilers\newlib\stdio.o
shell                                             build\kernel\components\finsh\shell.o
                                                  libraries\hal_drivers\drv_usart.o
signal                                            d:/program_files/programming/rt-threadstudio/repo/extract/toolchain_support_packages/risc-v/risc-v-gcc/10.1.0/bin/../lib/gcc/riscv64-unknown-elf/10.1.0/../../../../riscv64-unknown-elf/lib/rv32im/ilp32\libc.a(lib_a-signal.o)
snprintf                                          d:/program_files/programming/rt-threadstudio/repo/extract/toolchain_support_packages/risc-v/risc-v-gcc/10.1.0/bin/../lib/gcc/riscv64-unknown-elf/10.1.0/../../../../riscv64-unknown-elf/lib/rv32im/ilp32\libc.a(lib_a-snprintf.o)
                                                  build\kernel\components\libc\compilers\newlib\stdio.o
sound_transmit                                    build\board\ports\audio\drv_sound.o
spi_dummy_byte                                    libraries\hal_libraries\ab32vg1_hal\libhal.a(spiflash.o)
spiflash_read                                     libraries\hal_libraries\ab32vg1_hal\libhal.a(spiflash.o)
                                                  libraries\hal_libraries\ab32vg1_hal\libhal.a(cache.o)
sprintf                                           d:/program_files/programming/rt-threadstudio/repo/extract/toolchain_support_packages/risc-v/risc-v-gcc/10.1.0/bin/../lib/gcc/riscv64-unknown-elf/10.1.0/../../../../riscv64-unknown-elf/lib/rv32im/ilp32\libc.a(lib_a-sprintf.o)
                                                  d:/program_files/programming/rt-threadstudio/repo/extract/toolchain_support_packages/risc-v/risc-v-gcc/10.1.0/bin/../lib/gcc/riscv64-unknown-elf/10.1.0/../../../../riscv64-unknown-elf/lib/rv32im/ilp32\libc.a(lib_a-ldtoa.o)
stat                                              build\kernel\components\dfs\src\dfs_posix.o
                                                  build\kernel\components\libc\compilers\newlib\syscalls.o
                                                  build\kernel\components\finsh\msh_file.o
statfs                                            build\kernel\components\dfs\src\dfs_posix.o
stime                                             build\kernel\components\libc\compilers\common\time.o
strcat                                            d:/program_files/programming/rt-threadstudio/repo/extract/toolchain_support_packages/risc-v/risc-v-gcc/10.1.0/bin/../lib/gcc/riscv64-unknown-elf/10.1.0/../../../../riscv64-unknown-elf/lib/rv32im/ilp32\libc.a(lib_a-strcat.o)
                                                  build\kernel\components\finsh\msh.o
                                                  build\kernel\components\finsh\shell.o
strchr                                            d:/program_files/programming/rt-threadstudio/repo/extract/toolchain_support_packages/risc-v/risc-v-gcc/10.1.0/bin/../lib/gcc/riscv64-unknown-elf/10.1.0/../../../../riscv64-unknown-elf/lib/rv32im/ilp32\libc.a(lib_a-strchr.o)
                                                  d:/program_files/programming/rt-threadstudio/repo/extract/toolchain_support_packages/risc-v/risc-v-gcc/10.1.0/bin/../lib/gcc/riscv64-unknown-elf/10.1.0/../../../../riscv64-unknown-elf/lib/rv32im/ilp32\libc.a(lib_a-strstr.o)
                                                  d:/program_files/programming/rt-threadstudio/repo/extract/toolchain_support_packages/risc-v/risc-v-gcc/10.1.0/bin/../lib/gcc/riscv64-unknown-elf/10.1.0/../../../../riscv64-unknown-elf/lib/rv32im/ilp32\libc.a(lib_a-strrchr.o)
                                                  d:/program_files/programming/rt-threadstudio/repo/extract/toolchain_support_packages/risc-v/risc-v-gcc/10.1.0/bin/../lib/gcc/riscv64-unknown-elf/10.1.0/../../../../riscv64-unknown-elf/lib/rv32im/ilp32\libc.a(lib_a-setenv_r.o)
                                                  d:/program_files/programming/rt-threadstudio/repo/extract/toolchain_support_packages/risc-v/risc-v-gcc/10.1.0/bin/../lib/gcc/riscv64-unknown-elf/10.1.0/../../../../riscv64-unknown-elf/lib/rv32im/ilp32\libc.a(lib_a-putenv_r.o)
strcmp                                            d:/program_files/programming/rt-threadstudio/repo/extract/toolchain_support_packages/risc-v/risc-v-gcc/10.1.0/bin/../lib/gcc/riscv64-unknown-elf/10.1.0/../../../../riscv64-unknown-elf/lib/rv32im/ilp32\libc.a(lib_a-strcmp.o)
                                                  d:/program_files/programming/rt-threadstudio/repo/extract/toolchain_support_packages/risc-v/risc-v-gcc/10.1.0/bin/../lib/gcc/riscv64-unknown-elf/10.1.0/../../../../riscv64-unknown-elf/lib/rv32im/ilp32\libc.a(lib_a-locale.o)
                                                  build\kernel\components\finsh\finsh_token.o
                                                  build\kernel\components\finsh\finsh_var.o
                                                  build\kernel\components\finsh\msh_file.o
                                                  build\kernel\components\finsh\finsh_vm.o
                                                  build\kernel\components\drivers\misc\adc.o
                                                  build\kernel\components\dfs\src\dfs_file.o
                                                  build\kernel\components\dfs\src\dfs.o
                                                  build\kernel\components\dfs\src\dfs_fs.o
strcpy                                            d:/program_files/programming/rt-threadstudio/repo/extract/toolchain_support_packages/risc-v/risc-v-gcc/10.1.0/bin/../lib/gcc/riscv64-unknown-elf/10.1.0/../../../../riscv64-unknown-elf/lib/rv32im/ilp32\libc.a(lib_a-strcpy.o)
                                                  d:/program_files/programming/rt-threadstudio/repo/extract/toolchain_support_packages/risc-v/risc-v-gcc/10.1.0/bin/../lib/gcc/riscv64-unknown-elf/10.1.0/../../../../riscv64-unknown-elf/lib/rv32im/ilp32\libc.a(lib_a-ldtoa.o)
                                                  d:/program_files/programming/rt-threadstudio/repo/extract/toolchain_support_packages/risc-v/risc-v-gcc/10.1.0/bin/../lib/gcc/riscv64-unknown-elf/10.1.0/../../../../riscv64-unknown-elf/lib/rv32im/ilp32\libc.a(lib_a-strcat.o)
                                                  build\kernel\components\finsh\msh.o
                                                  build\kernel\components\finsh\shell.o
strlen                                            d:/program_files/programming/rt-threadstudio/repo/extract/toolchain_support_packages/risc-v/risc-v-gcc/10.1.0/bin/../lib/gcc/riscv64-unknown-elf/10.1.0/../../../../riscv64-unknown-elf/lib/rv32im/ilp32\libc.a(lib_a-strlen.o)
                                                  d:/program_files/programming/rt-threadstudio/repo/extract/toolchain_support_packages/risc-v/risc-v-gcc/10.1.0/bin/../lib/gcc/riscv64-unknown-elf/10.1.0/../../../../riscv64-unknown-elf/lib/rv32im/ilp32\libc.a(lib_a-vfiprintf.o)
                                                  d:/program_files/programming/rt-threadstudio/repo/extract/toolchain_support_packages/risc-v/risc-v-gcc/10.1.0/bin/../lib/gcc/riscv64-unknown-elf/10.1.0/../../../../riscv64-unknown-elf/lib/rv32im/ilp32\libc.a(lib_a-svfiprintf.o)
                                                  d:/program_files/programming/rt-threadstudio/repo/extract/toolchain_support_packages/risc-v/risc-v-gcc/10.1.0/bin/../lib/gcc/riscv64-unknown-elf/10.1.0/../../../../riscv64-unknown-elf/lib/rv32im/ilp32\libc.a(lib_a-svfprintf.o)
                                                  d:/program_files/programming/rt-threadstudio/repo/extract/toolchain_support_packages/risc-v/risc-v-gcc/10.1.0/bin/../lib/gcc/riscv64-unknown-elf/10.1.0/../../../../riscv64-unknown-elf/lib/rv32im/ilp32\libc.a(lib_a-strstr.o)
                                                  d:/program_files/programming/rt-threadstudio/repo/extract/toolchain_support_packages/risc-v/risc-v-gcc/10.1.0/bin/../lib/gcc/riscv64-unknown-elf/10.1.0/../../../../riscv64-unknown-elf/lib/rv32im/ilp32\libc.a(lib_a-strdup_r.o)
                                                  d:/program_files/programming/rt-threadstudio/repo/extract/toolchain_support_packages/risc-v/risc-v-gcc/10.1.0/bin/../lib/gcc/riscv64-unknown-elf/10.1.0/../../../../riscv64-unknown-elf/lib/rv32im/ilp32\libc.a(lib_a-setenv_r.o)
                                                  build\kernel\components\finsh\finsh_token.o
                                                  build\kernel\components\finsh\msh.o
                                                  build\kernel\components\finsh\finsh_var.o
                                                  build\kernel\components\finsh\shell.o
                                                  build\kernel\components\finsh\msh_file.o
                                                  build\kernel\components\finsh\finsh_vm.o
                                                  build\kernel\components\finsh\cmd.o
                                                  build\kernel\components\finsh\finsh_node.o
                                                  build\kernel\components\dfs\src\dfs.o
                                                  build\kernel\components\dfs\src\dfs_fs.o
                                                  build\kernel\components\dfs\src\dfs_posix.o
strncmp                                           d:/program_files/programming/rt-threadstudio/repo/extract/toolchain_support_packages/risc-v/risc-v-gcc/10.1.0/bin/../lib/gcc/riscv64-unknown-elf/10.1.0/../../../../riscv64-unknown-elf/lib/rv32im/ilp32\libc.a(lib_a-strncmp.o)
                                                  d:/program_files/programming/rt-threadstudio/repo/extract/toolchain_support_packages/risc-v/risc-v-gcc/10.1.0/bin/../lib/gcc/riscv64-unknown-elf/10.1.0/../../../../riscv64-unknown-elf/lib/rv32im/ilp32\libc.a(lib_a-getenv_r.o)
                                                  build\kernel\components\finsh\msh.o
                                                  build\kernel\components\finsh\finsh_var.o
                                                  build\kernel\components\finsh\finsh_vm.o
                                                  build\kernel\components\finsh\cmd.o
                                                  build\kernel\components\dfs\src\dfs_fs.o
strncpy                                           d:/program_files/programming/rt-threadstudio/repo/extract/toolchain_support_packages/risc-v/risc-v-gcc/10.1.0/bin/../lib/gcc/riscv64-unknown-elf/10.1.0/../../../../riscv64-unknown-elf/lib/rv32im/ilp32\libc.a(lib_a-strncpy.o)
                                                  d:/program_files/programming/rt-threadstudio/repo/extract/toolchain_support_packages/risc-v/risc-v-gcc/10.1.0/bin/../lib/gcc/riscv64-unknown-elf/10.1.0/../../../../riscv64-unknown-elf/lib/rv32im/ilp32\libc.a(lib_a-vfiprintf.o)
                                                  d:/program_files/programming/rt-threadstudio/repo/extract/toolchain_support_packages/risc-v/risc-v-gcc/10.1.0/bin/../lib/gcc/riscv64-unknown-elf/10.1.0/../../../../riscv64-unknown-elf/lib/rv32im/ilp32\libc.a(lib_a-svfiprintf.o)
                                                  d:/program_files/programming/rt-threadstudio/repo/extract/toolchain_support_packages/risc-v/risc-v-gcc/10.1.0/bin/../lib/gcc/riscv64-unknown-elf/10.1.0/../../../../riscv64-unknown-elf/lib/rv32im/ilp32\libc.a(lib_a-svfprintf.o)
                                                  build\kernel\components\finsh\finsh_token.o
                                                  build\kernel\components\finsh\finsh_var.o
                                                  build\kernel\components\finsh\shell.o
                                                  build\kernel\components\finsh\finsh_parser.o
                                                  build\kernel\components\finsh\finsh_node.o
                                                  build\kernel\components\dfs\src\dfs_posix.o
strnlen                                           d:/program_files/programming/rt-threadstudio/repo/extract/toolchain_support_packages/risc-v/risc-v-gcc/10.1.0/bin/../lib/gcc/riscv64-unknown-elf/10.1.0/../../../../riscv64-unknown-elf/lib/rv32im/ilp32\libc.a(lib_a-strnlen.o)
                                                  d:/program_files/programming/rt-threadstudio/repo/extract/toolchain_support_packages/risc-v/risc-v-gcc/10.1.0/bin/../lib/gcc/riscv64-unknown-elf/10.1.0/../../../../riscv64-unknown-elf/lib/rv32im/ilp32\libc.a(lib_a-strstr.o)
strrchr                                           d:/program_files/programming/rt-threadstudio/repo/extract/toolchain_support_packages/risc-v/risc-v-gcc/10.1.0/bin/../lib/gcc/riscv64-unknown-elf/10.1.0/../../../../riscv64-unknown-elf/lib/rv32im/ilp32\libc.a(lib_a-strrchr.o)
                                                  build\kernel\components\dfs\src\dfs_file.o
strstr                                            d:/program_files/programming/rt-threadstudio/repo/extract/toolchain_support_packages/risc-v/risc-v-gcc/10.1.0/bin/../lib/gcc/riscv64-unknown-elf/10.1.0/../../../../riscv64-unknown-elf/lib/rv32im/ilp32\libc.a(lib_a-strstr.o)
                                                  build\kernel\components\finsh\msh_file.o
strtol                                            d:/program_files/programming/rt-threadstudio/repo/extract/toolchain_support_packages/risc-v/risc-v-gcc/10.1.0/bin/../lib/gcc/riscv64-unknown-elf/10.1.0/../../../../riscv64-unknown-elf/lib/rv32im/ilp32\libc.a(lib_a-strtol.o)
                                                  d:/program_files/programming/rt-threadstudio/repo/extract/toolchain_support_packages/risc-v/risc-v-gcc/10.1.0/bin/../lib/gcc/riscv64-unknown-elf/10.1.0/../../../../riscv64-unknown-elf/lib/rv32im/ilp32\libc.a(lib_a-atoi.o)
strtol_l                                          d:/program_files/programming/rt-threadstudio/repo/extract/toolchain_support_packages/risc-v/risc-v-gcc/10.1.0/bin/../lib/gcc/riscv64-unknown-elf/10.1.0/../../../../riscv64-unknown-elf/lib/rv32im/ilp32\libc.a(lib_a-strtol.o)
swap16                                            libraries\hal_libraries\ab32vg1_hal\libhal.a(platform.o)
swap32                                            libraries\hal_libraries\ab32vg1_hal\libhal.a(platform.o)
sys                                               libraries\hal_libraries\bmsis\source\system_ab32vgx.o
sys_error_hook                                    libraries\hal_libraries\ab32vg1_hal\libhal.a(debug.o)
                                                  build\board\board.o
sysclk_index                                      libraries\hal_libraries\bmsis\source\system_ab32vgx.o
sysclk_sel_tbl                                    libraries\hal_libraries\bmsis\source\system_ab32vgx.o
sysclk_update_baud                                libraries\hal_libraries\bmsis\source\system_ab32vgx.o
                                                  libraries\hal_libraries\ab32vg1_hal\source\ab32vg1_hal_sd.o
                                                  libraries\hal_drivers\drv_sdio.o
tbl_irq_vector                                    libcpu\cpu\interrupt.o
telldir                                           build\kernel\components\dfs\src\dfs_posix.o
text_segment                                      build\kernel\components\finsh\finsh_vm.o
                                                  build\kernel\components\finsh\finsh_compiler.o
time                                              build\kernel\components\libc\compilers\common\time.o
                                                  build\kernel\components\drivers\rtc\rtc.o
timegm                                            build\kernel\components\libc\compilers\common\time.o
                                                  libraries\hal_drivers\drv_rtc.o
                                                  build\kernel\components\dfs\filesystems\elmfat\dfs_elm.o
timer0_cfg                                        build\board\board.o
timer0_init                                       build\board\board.o
timer0_isr                                        build\board\board.o
timer1_isr                                        libraries\hal_drivers\drv_hwtimer.o
token_get_string                                  build\kernel\components\finsh\finsh_token.o
uart_config_all                                   libraries\hal_libraries\ab32vg1_hal\source\ab32vg1_hal_uart.o
uart_irq_process                                  libraries\hal_drivers\drv_usart.o
umask                                             build\kernel\components\libc\compilers\newlib\syscalls.o
unlink                                            build\kernel\components\dfs\src\dfs_posix.o
                                                  build\kernel\components\libc\compilers\newlib\syscalls.o
                                                  build\kernel\components\finsh\msh_file.o
update_sd0baud                                    libraries\hal_libraries\bmsis\source\system_ab32vgx.o
update_uart0baud_in_sysclk                        libraries\hal_libraries\bmsis\source\system_ab32vgx.o
version                                           build\kernel\components\finsh\cmd.o
vfiprintf                                         d:/program_files/programming/rt-threadstudio/repo/extract/toolchain_support_packages/risc-v/risc-v-gcc/10.1.0/bin/../lib/gcc/riscv64-unknown-elf/10.1.0/../../../../riscv64-unknown-elf/lib/rv32im/ilp32\libc.a(lib_a-vfiprintf.o)
wcrtomb                                           d:/program_files/programming/rt-threadstudio/repo/extract/toolchain_support_packages/risc-v/risc-v-gcc/10.1.0/bin/../lib/gcc/riscv64-unknown-elf/10.1.0/../../../../riscv64-unknown-elf/lib/rv32im/ilp32\libc.a(lib_a-wcrtomb.o)
working_directory                                 build\kernel\components\dfs\src\dfs.o
                                                  build\kernel\components\finsh\msh_file.o
                                                  build\kernel\components\dfs\src\dfs_file.o
                                                  build\kernel\components\dfs\src\dfs_posix.o
write                                             build\kernel\components\dfs\src\dfs_posix.o
                                                  build\kernel\components\libc\compilers\newlib\syscalls.o
                                                  build\kernel\components\finsh\msh_file.o
