Archive member included to satisfy reference by file (symbol)

libraries\hal_libraries\ab32vg1_hal\libhal.a(ab32vg1_hal_adc.o)
                              libraries\hal_drivers\drv_adc.o (hal_adc_enable)
libraries\hal_libraries\ab32vg1_hal\libhal.a(cache.o)
                              build\board\board.o (load_cache)
libraries\hal_libraries\ab32vg1_hal\libhal.a(rom_fun.o)
                              build\kernel\src\kservice.o (memset)
libraries\hal_libraries\ab32vg1_hal\libhal.a(save-restore.o)
                              build\kernel\src\ipc.o (__riscv_save_12)
libraries\hal_libraries\ab32vg1_hal\libhal.a(sys_err.o)
                              build\board\board.o (sys_error_hook)
d:/program_files/programming/rt-threadstudio/repo/extract/toolchain_support_packages/risc-v/risc-v-gcc/10.1.0/bin/../lib/gcc/riscv64-unknown-elf/10.1.0/rv32im/ilp32\libgcc.a(_divdi3.o)
                              libraries\hal_drivers\drv_pwm.o (__divdi3)
d:/program_files/programming/rt-threadstudio/repo/extract/toolchain_support_packages/risc-v/risc-v-gcc/10.1.0/bin/../lib/gcc/riscv64-unknown-elf/10.1.0/rv32im/ilp32\libgcc.a(_udivdi3.o)
                              libraries\hal_drivers\drv_pwm.o (__udivdi3)
d:/program_files/programming/rt-threadstudio/repo/extract/toolchain_support_packages/risc-v/risc-v-gcc/10.1.0/bin/../lib/gcc/riscv64-unknown-elf/10.1.0/rv32im/ilp32\libgcc.a(divdf3.o)
                              build\kernel\components\drivers\misc\rt_drv_pwm.o (__divdf3)
d:/program_files/programming/rt-threadstudio/repo/extract/toolchain_support_packages/risc-v/risc-v-gcc/10.1.0/bin/../lib/gcc/riscv64-unknown-elf/10.1.0/rv32im/ilp32\libgcc.a(muldf3.o)
                              build\kernel\components\drivers\misc\rt_drv_pwm.o (__muldf3)
d:/program_files/programming/rt-threadstudio/repo/extract/toolchain_support_packages/risc-v/risc-v-gcc/10.1.0/bin/../lib/gcc/riscv64-unknown-elf/10.1.0/rv32im/ilp32\libgcc.a(fixdfsi.o)
                              build\kernel\components\drivers\misc\rt_drv_pwm.o (__fixdfsi)
d:/program_files/programming/rt-threadstudio/repo/extract/toolchain_support_packages/risc-v/risc-v-gcc/10.1.0/bin/../lib/gcc/riscv64-unknown-elf/10.1.0/rv32im/ilp32\libgcc.a(floatunsidf.o)
                              build\kernel\components\drivers\misc\rt_drv_pwm.o (__floatunsidf)
d:/program_files/programming/rt-threadstudio/repo/extract/toolchain_support_packages/risc-v/risc-v-gcc/10.1.0/bin/../lib/gcc/riscv64-unknown-elf/10.1.0/rv32im/ilp32\libgcc.a(addsf3.o)
                              build\kernel\components\drivers\hwtimer\hwtimer.o (__addsf3)
d:/program_files/programming/rt-threadstudio/repo/extract/toolchain_support_packages/risc-v/risc-v-gcc/10.1.0/bin/../lib/gcc/riscv64-unknown-elf/10.1.0/rv32im/ilp32\libgcc.a(divsf3.o)
                              build\kernel\components\drivers\hwtimer\hwtimer.o (__divsf3)
d:/program_files/programming/rt-threadstudio/repo/extract/toolchain_support_packages/risc-v/risc-v-gcc/10.1.0/bin/../lib/gcc/riscv64-unknown-elf/10.1.0/rv32im/ilp32\libgcc.a(eqsf2.o)
                              build\kernel\components\drivers\hwtimer\hwtimer.o (__eqsf2)
d:/program_files/programming/rt-threadstudio/repo/extract/toolchain_support_packages/risc-v/risc-v-gcc/10.1.0/bin/../lib/gcc/riscv64-unknown-elf/10.1.0/rv32im/ilp32\libgcc.a(gesf2.o)
                              build\kernel\components\drivers\hwtimer\hwtimer.o (__gesf2)
d:/program_files/programming/rt-threadstudio/repo/extract/toolchain_support_packages/risc-v/risc-v-gcc/10.1.0/bin/../lib/gcc/riscv64-unknown-elf/10.1.0/rv32im/ilp32\libgcc.a(lesf2.o)
                              build\kernel\components\drivers\hwtimer\hwtimer.o (__ltsf2)
d:/program_files/programming/rt-threadstudio/repo/extract/toolchain_support_packages/risc-v/risc-v-gcc/10.1.0/bin/../lib/gcc/riscv64-unknown-elf/10.1.0/rv32im/ilp32\libgcc.a(mulsf3.o)
                              build\kernel\components\drivers\hwtimer\hwtimer.o (__mulsf3)
d:/program_files/programming/rt-threadstudio/repo/extract/toolchain_support_packages/risc-v/risc-v-gcc/10.1.0/bin/../lib/gcc/riscv64-unknown-elf/10.1.0/rv32im/ilp32\libgcc.a(subsf3.o)
                              build\kernel\components\drivers\hwtimer\hwtimer.o (__subsf3)
d:/program_files/programming/rt-threadstudio/repo/extract/toolchain_support_packages/risc-v/risc-v-gcc/10.1.0/bin/../lib/gcc/riscv64-unknown-elf/10.1.0/rv32im/ilp32\libgcc.a(fixsfsi.o)
                              build\kernel\components\drivers\hwtimer\hwtimer.o (__fixsfsi)
d:/program_files/programming/rt-threadstudio/repo/extract/toolchain_support_packages/risc-v/risc-v-gcc/10.1.0/bin/../lib/gcc/riscv64-unknown-elf/10.1.0/rv32im/ilp32\libgcc.a(fixunssfsi.o)
                              build\kernel\components\drivers\hwtimer\hwtimer.o (__fixunssfsi)
d:/program_files/programming/rt-threadstudio/repo/extract/toolchain_support_packages/risc-v/risc-v-gcc/10.1.0/bin/../lib/gcc/riscv64-unknown-elf/10.1.0/rv32im/ilp32\libgcc.a(floatsisf.o)
                              build\kernel\components\drivers\hwtimer\hwtimer.o (__floatsisf)
d:/program_files/programming/rt-threadstudio/repo/extract/toolchain_support_packages/risc-v/risc-v-gcc/10.1.0/bin/../lib/gcc/riscv64-unknown-elf/10.1.0/rv32im/ilp32\libgcc.a(floatunsisf.o)
                              build\kernel\components\drivers\hwtimer\hwtimer.o (__floatunsisf)
d:/program_files/programming/rt-threadstudio/repo/extract/toolchain_support_packages/risc-v/risc-v-gcc/10.1.0/bin/../lib/gcc/riscv64-unknown-elf/10.1.0/rv32im/ilp32\libgcc.a(_clz.o)
                              d:/program_files/programming/rt-threadstudio/repo/extract/toolchain_support_packages/risc-v/risc-v-gcc/10.1.0/bin/../lib/gcc/riscv64-unknown-elf/10.1.0/rv32im/ilp32\libgcc.a(_divdi3.o) (__clz_tab)
d:/program_files/programming/rt-threadstudio/repo/extract/toolchain_support_packages/risc-v/risc-v-gcc/10.1.0/bin/../lib/gcc/riscv64-unknown-elf/10.1.0/rv32im/ilp32\libgcc.a(_clzsi2.o)
                              d:/program_files/programming/rt-threadstudio/repo/extract/toolchain_support_packages/risc-v/risc-v-gcc/10.1.0/bin/../lib/gcc/riscv64-unknown-elf/10.1.0/rv32im/ilp32\libgcc.a(divdf3.o) (__clzsi2)
d:/program_files/programming/rt-threadstudio/repo/extract/toolchain_support_packages/risc-v/risc-v-gcc/10.1.0/bin/../lib/gcc/riscv64-unknown-elf/10.1.0/../../../../riscv64-unknown-elf/lib/rv32im/ilp32\libc.a(lib_a-errno.o)
                              build\kernel\components\libc\compilers\common\time.o (__errno)
d:/program_files/programming/rt-threadstudio/repo/extract/toolchain_support_packages/risc-v/risc-v-gcc/10.1.0/bin/../lib/gcc/riscv64-unknown-elf/10.1.0/../../../../riscv64-unknown-elf/lib/rv32im/ilp32\libc.a(lib_a-impure.o)
                              d:/program_files/programming/rt-threadstudio/repo/extract/toolchain_support_packages/risc-v/risc-v-gcc/10.1.0/bin/../lib/gcc/riscv64-unknown-elf/10.1.0/../../../../riscv64-unknown-elf/lib/rv32im/ilp32\libc.a(lib_a-errno.o) (_impure_ptr)
d:/program_files/programming/rt-threadstudio/repo/extract/toolchain_support_packages/risc-v/risc-v-gcc/10.1.0/bin/../lib/gcc/riscv64-unknown-elf/10.1.0/../../../../riscv64-unknown-elf/lib/rv32im/ilp32\libc.a(lib_a-strrchr.o)
                              build\kernel\components\dfs\src\dfs_file.o (strrchr)
d:/program_files/programming/rt-threadstudio/repo/extract/toolchain_support_packages/risc-v/risc-v-gcc/10.1.0/bin/../lib/gcc/riscv64-unknown-elf/10.1.0/../../../../riscv64-unknown-elf/lib/rv32im/ilp32\libc.a(lib_a-strchr.o)
                              d:/program_files/programming/rt-threadstudio/repo/extract/toolchain_support_packages/risc-v/risc-v-gcc/10.1.0/bin/../lib/gcc/riscv64-unknown-elf/10.1.0/../../../../riscv64-unknown-elf/lib/rv32im/ilp32\libc.a(lib_a-strrchr.o) (strchr)

Discarded input sections

 .data          0x0000000000000000        0x0 build\applications\mnt.o
 .bss           0x0000000000000000        0x0 build\applications\mnt.o
 .text          0x0000000000000000        0x0 build\applications\main.o
 .data          0x0000000000000000        0x0 build\applications\main.o
 .bss           0x0000000000000000        0x0 build\applications\main.o
 .data          0x0000000000000000        0x0 build\board\board.o
 .data          0x0000000000000000        0x0 build\board\ab32vg1_hal_msp.o
 .bss           0x0000000000000000        0x0 build\board\ab32vg1_hal_msp.o
 .data          0x0000000000000000        0x0 build\kernel\src\thread.o
 .bss           0x0000000000000000        0x0 build\kernel\src\thread.o
 .data          0x0000000000000000        0x0 build\kernel\src\device.o
 .bss           0x0000000000000000        0x0 build\kernel\src\device.o
 .data          0x0000000000000000        0x0 build\kernel\src\mem.o
 .bss           0x0000000000000000        0x0 build\kernel\src\object.o
 .data          0x0000000000000000        0x0 build\kernel\src\kservice.o
 .data          0x0000000000000000        0x0 build\kernel\src\scheduler.o
 .data          0x0000000000000000        0x0 build\kernel\src\timer.o
 .data          0x0000000000000000        0x0 build\kernel\src\irq.o
 .bss           0x0000000000000000        0x0 build\kernel\src\irq.o
 .data          0x0000000000000000        0x0 build\kernel\src\memheap.o
 .bss           0x0000000000000000        0x0 build\kernel\src\memheap.o
 .data          0x0000000000000000        0x0 build\kernel\src\idle.o
 .data          0x0000000000000000        0x0 build\kernel\src\ipc.o
 .bss           0x0000000000000000        0x0 build\kernel\src\ipc.o
 .data          0x0000000000000000        0x0 build\kernel\src\components.o
 .bss           0x0000000000000000        0x0 build\kernel\src\components.o
 .data          0x0000000000000000        0x0 build\kernel\src\mempool.o
 .bss           0x0000000000000000        0x0 build\kernel\src\mempool.o
 .data          0x0000000000000000        0x0 build\kernel\src\clock.o
 .bss           0x0000000000000000        0x0 build\kernel\src\clock.o
 .data          0x0000000000000000        0x0 build\kernel\components\dfs\src\dfs_posix.o
 .bss           0x0000000000000000        0x0 build\kernel\components\dfs\src\dfs_posix.o
 .data          0x0000000000000000        0x0 build\kernel\components\dfs\src\dfs_fs.o
 .bss           0x0000000000000000        0x0 build\kernel\components\dfs\src\dfs_fs.o
 .data          0x0000000000000000        0x0 build\kernel\components\dfs\src\dfs_file.o
 .data          0x0000000000000000        0x0 build\kernel\components\dfs\filesystems\devfs\devfs.o
 .bss           0x0000000000000000        0x0 build\kernel\components\dfs\filesystems\devfs\devfs.o
 .data          0x0000000000000000        0x0 build\kernel\components\dfs\filesystems\elmfat\ff.o
 .bss           0x0000000000000000        0x0 build\kernel\components\dfs\filesystems\elmfat\ff.o
 .data          0x0000000000000000        0x0 build\kernel\components\dfs\filesystems\elmfat\ffunicode.o
 .bss           0x0000000000000000        0x0 build\kernel\components\dfs\filesystems\elmfat\ffunicode.o
 .data          0x0000000000000000        0x0 build\kernel\components\dfs\filesystems\elmfat\dfs_elm.o
 .bss           0x0000000000000000        0x0 build\kernel\components\dfs\filesystems\elmfat\dfs_elm.o
 .data          0x0000000000000000        0x0 build\kernel\components\drivers\audio\audio.o
 .bss           0x0000000000000000        0x0 build\kernel\components\drivers\audio\audio.o
 .data          0x0000000000000000        0x0 build\kernel\components\drivers\audio\audio_pipe.o
 .bss           0x0000000000000000        0x0 build\kernel\components\drivers\audio\audio_pipe.o
 .data          0x0000000000000000        0x0 build\kernel\components\drivers\hwtimer\hwtimer.o
 .bss           0x0000000000000000        0x0 build\kernel\components\drivers\hwtimer\hwtimer.o
 .data          0x0000000000000000        0x0 build\kernel\components\drivers\i2c\i2c_core.o
 .bss           0x0000000000000000        0x0 build\kernel\components\drivers\i2c\i2c_core.o
 .data          0x0000000000000000        0x0 build\kernel\components\drivers\i2c\i2c_dev.o
 .bss           0x0000000000000000        0x0 build\kernel\components\drivers\i2c\i2c_dev.o
 .data          0x0000000000000000        0x0 build\kernel\components\drivers\i2c\i2c-bit-ops.o
 .bss           0x0000000000000000        0x0 build\kernel\components\drivers\i2c\i2c-bit-ops.o
 .data          0x0000000000000000        0x0 build\kernel\components\drivers\misc\adc.o
 .bss           0x0000000000000000        0x0 build\kernel\components\drivers\misc\adc.o
 .data          0x0000000000000000        0x0 build\kernel\components\drivers\misc\rt_drv_pwm.o
 .bss           0x0000000000000000        0x0 build\kernel\components\drivers\misc\rt_drv_pwm.o
 .data          0x0000000000000000        0x0 build\kernel\components\drivers\misc\pin.o
 .data          0x0000000000000000        0x0 build\kernel\components\drivers\rtc\rtc.o
 .bss           0x0000000000000000        0x0 build\kernel\components\drivers\rtc\rtc.o
 .data          0x0000000000000000        0x0 build\kernel\components\drivers\rtc\alarm.o
 .data          0x0000000000000000        0x0 build\kernel\components\drivers\sdio\mmc.o
 .bss           0x0000000000000000        0x0 build\kernel\components\drivers\sdio\mmc.o
 .data          0x0000000000000000        0x0 build\kernel\components\drivers\sdio\sd.o
 .bss           0x0000000000000000        0x0 build\kernel\components\drivers\sdio\sd.o
 .data          0x0000000000000000        0x0 build\kernel\components\drivers\sdio\block_dev.o
 .bss           0x0000000000000000        0x0 build\kernel\components\drivers\sdio\block_dev.o
 .data          0x0000000000000000        0x0 build\kernel\components\drivers\sdio\sdio.o
 .bss           0x0000000000000000        0x0 build\kernel\components\drivers\sdio\sdio.o
 .data          0x0000000000000000        0x0 build\kernel\components\drivers\sdio\mmcsd_core.o
 .data          0x0000000000000000        0x0 build\kernel\components\drivers\serial\serial.o
 .bss           0x0000000000000000        0x0 build\kernel\components\drivers\serial\serial.o
 .text          0x0000000000000000      0x702 build\kernel\components\drivers\src\ringblk_buf.o
 .data          0x0000000000000000        0x0 build\kernel\components\drivers\src\ringblk_buf.o
 .bss           0x0000000000000000        0x0 build\kernel\components\drivers\src\ringblk_buf.o
 .rodata.str1.4
                0x0000000000000000       0x86 build\kernel\components\drivers\src\ringblk_buf.o
 .rodata        0x0000000000000000      0x128 build\kernel\components\drivers\src\ringblk_buf.o
 .comment       0x0000000000000000       0x13 build\kernel\components\drivers\src\ringblk_buf.o
 .riscv.attributes
                0x0000000000000000       0x26 build\kernel\components\drivers\src\ringblk_buf.o
 .text          0x0000000000000000      0x28e build\kernel\components\drivers\src\pipe.o
 .data          0x0000000000000000        0x0 build\kernel\components\drivers\src\pipe.o
 .bss           0x0000000000000000        0x0 build\kernel\components\drivers\src\pipe.o
 .rodata.str1.4
                0x0000000000000000        0xf build\kernel\components\drivers\src\pipe.o
 .rodata        0x0000000000000000       0x28 build\kernel\components\drivers\src\pipe.o
 .comment       0x0000000000000000       0x13 build\kernel\components\drivers\src\pipe.o
 .riscv.attributes
                0x0000000000000000       0x26 build\kernel\components\drivers\src\pipe.o
 .data          0x0000000000000000        0x0 build\kernel\components\drivers\src\dataqueue.o
 .bss           0x0000000000000000        0x0 build\kernel\components\drivers\src\dataqueue.o
 .data          0x0000000000000000        0x0 build\kernel\components\drivers\src\ringbuffer.o
 .bss           0x0000000000000000        0x0 build\kernel\components\drivers\src\ringbuffer.o
 .data          0x0000000000000000        0x0 build\kernel\components\drivers\src\completion.o
 .bss           0x0000000000000000        0x0 build\kernel\components\drivers\src\completion.o
 .text          0x0000000000000000      0x6b6 build\kernel\components\drivers\src\workqueue.o
 .data          0x0000000000000000        0x0 build\kernel\components\drivers\src\workqueue.o
 .bss           0x0000000000000000        0x0 build\kernel\components\drivers\src\workqueue.o
 .rodata.str1.4
                0x0000000000000000       0x34 build\kernel\components\drivers\src\workqueue.o
 .rodata        0x0000000000000000       0xf5 build\kernel\components\drivers\src\workqueue.o
 .comment       0x0000000000000000       0x13 build\kernel\components\drivers\src\workqueue.o
 .riscv.attributes
                0x0000000000000000       0x26 build\kernel\components\drivers\src\workqueue.o
 .text          0x0000000000000000      0x1fe build\kernel\components\drivers\src\waitqueue.o
 .data          0x0000000000000000        0x0 build\kernel\components\drivers\src\waitqueue.o
 .bss           0x0000000000000000        0x0 build\kernel\components\drivers\src\waitqueue.o
 .rodata.str1.4
                0x0000000000000000       0x2a build\kernel\components\drivers\src\waitqueue.o
 .rodata        0x0000000000000000        0xf build\kernel\components\drivers\src\waitqueue.o
 .comment       0x0000000000000000       0x13 build\kernel\components\drivers\src\waitqueue.o
 .riscv.attributes
                0x0000000000000000       0x26 build\kernel\components\drivers\src\waitqueue.o
 .data          0x0000000000000000        0x0 build\kernel\components\drivers\watchdog\watchdog.o
 .bss           0x0000000000000000        0x0 build\kernel\components\drivers\watchdog\watchdog.o
 .data          0x0000000000000000        0x0 build\kernel\components\finsh\finsh_node.o
 .data          0x0000000000000000        0x0 build\kernel\components\finsh\finsh_parser.o
 .bss           0x0000000000000000        0x0 build\kernel\components\finsh\finsh_parser.o
 .data          0x0000000000000000        0x0 build\kernel\components\finsh\cmd.o
 .bss           0x0000000000000000        0x0 build\kernel\components\finsh\cmd.o
 .data          0x0000000000000000        0x0 build\kernel\components\finsh\finsh_vm.o
 .data          0x0000000000000000        0x0 build\kernel\components\finsh\msh_file.o
 .bss           0x0000000000000000        0x0 build\kernel\components\finsh\msh_file.o
 .data          0x0000000000000000        0x0 build\kernel\components\finsh\msh.o
 .bss           0x0000000000000000        0x0 build\kernel\components\finsh\msh.o
 .data          0x0000000000000000        0x0 build\kernel\components\finsh\shell.o
 .data          0x0000000000000000        0x0 build\kernel\components\finsh\finsh_var.o
 .data          0x0000000000000000        0x0 build\kernel\components\finsh\finsh_compiler.o
 .bss           0x0000000000000000        0x0 build\kernel\components\finsh\finsh_compiler.o
 .data          0x0000000000000000        0x0 build\kernel\components\finsh\finsh_heap.o
 .data          0x0000000000000000        0x0 build\kernel\components\finsh\finsh_ops.o
 .bss           0x0000000000000000        0x0 build\kernel\components\finsh\finsh_ops.o
 .data          0x0000000000000000        0x0 build\kernel\components\finsh\finsh_error.o
 .bss           0x0000000000000000        0x0 build\kernel\components\finsh\finsh_error.o
 .data          0x0000000000000000        0x0 build\kernel\components\finsh\finsh_token.o
 .bss           0x0000000000000000        0x0 build\kernel\components\finsh\finsh_token.o
 .data          0x0000000000000000        0x0 build\kernel\components\finsh\finsh_init.o
 .bss           0x0000000000000000        0x0 build\kernel\components\finsh\finsh_init.o
 .data          0x0000000000000000        0x0 build\kernel\components\libc\compilers\common\time.o
 .text          0x0000000000000000       0x74 build\kernel\components\libc\compilers\newlib\minilib.o
 .data          0x0000000000000000        0x0 build\kernel\components\libc\compilers\newlib\minilib.o
 .bss           0x0000000000000000        0x0 build\kernel\components\libc\compilers\newlib\minilib.o
 .comment       0x0000000000000000       0x13 build\kernel\components\libc\compilers\newlib\minilib.o
 .riscv.attributes
                0x0000000000000000       0x26 build\kernel\components\libc\compilers\newlib\minilib.o
 .data          0x0000000000000000        0x0 libraries\hal_drivers\drv_gpio.o
 .bss           0x0000000000000000        0x0 libraries\hal_drivers\drv_gpio.o
 .data          0x0000000000000000        0x0 libraries\hal_drivers\drv_rtc.o
 .data          0x0000000000000000        0x0 libraries\hal_drivers\drv_soft_i2c.o
 .data          0x0000000000000000        0x0 libraries\hal_drivers\drv_wdt.o
 .data          0x0000000000000000        0x0 libraries\hal_drivers\drv_sdio.o
 .bss           0x0000000000000000        0x0 libraries\hal_drivers\drv_adc.o
 .bss           0x0000000000000000        0x0 libraries\hal_drivers\drv_pwm.o
 .bss           0x0000000000000000        0x0 libraries\hal_drivers\drv_hwtimer.o
 .data          0x0000000000000000        0x0 libcpu\cpu\context_gcc.o
 .bss           0x0000000000000000        0x0 libcpu\cpu\context_gcc.o
 .data          0x0000000000000000        0x0 libcpu\cpu\cpuport.o
 .bss           0x0000000000000000        0x0 libcpu\cpu\cpuport.o
 .data          0x0000000000000000        0x0 libcpu\cpu\interrupt.o
 .data          0x0000000000000000        0x0 libraries\hal_libraries\ab32vg1_hal\source\ab32vg1_hal_gpio.o
 .bss           0x0000000000000000        0x0 libraries\hal_libraries\ab32vg1_hal\source\ab32vg1_hal_gpio.o
 .text          0x0000000000000000        0x0 libraries\hal_libraries\ab32vg1_hal\source\ab32vg1_hal_dac.o
 .data          0x0000000000000000        0x0 libraries\hal_libraries\ab32vg1_hal\source\ab32vg1_hal_dac.o
 .bss           0x0000000000000000        0x0 libraries\hal_libraries\ab32vg1_hal\source\ab32vg1_hal_dac.o
 .comment       0x0000000000000000       0x13 libraries\hal_libraries\ab32vg1_hal\source\ab32vg1_hal_dac.o
 .riscv.attributes
                0x0000000000000000       0x26 libraries\hal_libraries\ab32vg1_hal\source\ab32vg1_hal_dac.o
 .data          0x0000000000000000        0x0 libraries\hal_libraries\ab32vg1_hal\source\ab32vg1_hal_uart.o
 .bss           0x0000000000000000        0x0 libraries\hal_libraries\ab32vg1_hal\source\ab32vg1_hal_uart.o
 .data          0x0000000000000000        0x0 libraries\hal_libraries\ab32vg1_hal\source\ab32vg1_hal.o
 .bss           0x0000000000000000        0x0 libraries\hal_libraries\ab32vg1_hal\source\ab32vg1_hal.o
 .data          0x0000000000000000        0x0 libraries\hal_libraries\ab32vg1_hal\source\ab32vg1_hal_rcu.o
 .bss           0x0000000000000000        0x0 libraries\hal_libraries\ab32vg1_hal\source\ab32vg1_hal_rcu.o
 .text          0x0000000000000000      0x4d0 libraries\hal_libraries\ab32vg1_hal\source\ab32vg1_hal_sd.o
 .data          0x0000000000000000        0x0 libraries\hal_libraries\ab32vg1_hal\source\ab32vg1_hal_sd.o
 .bss           0x0000000000000000        0x0 libraries\hal_libraries\ab32vg1_hal\source\ab32vg1_hal_sd.o
 .rodata.str1.4
                0x0000000000000000       0x60 libraries\hal_libraries\ab32vg1_hal\source\ab32vg1_hal_sd.o
 .comment       0x0000000000000000       0x13 libraries\hal_libraries\ab32vg1_hal\source\ab32vg1_hal_sd.o
 .riscv.attributes
                0x0000000000000000       0x26 libraries\hal_libraries\ab32vg1_hal\source\ab32vg1_hal_sd.o
 .text          0x0000000000000000        0x0 libraries\hal_libraries\bmsis\source\startup.o
 .data          0x0000000000000000        0x0 libraries\hal_libraries\bmsis\source\startup.o
 .bss           0x0000000000000000        0x0 libraries\hal_libraries\bmsis\source\startup.o
 .data          0x0000000000000000        0x0 libraries\hal_libraries\bmsis\source\system_ab32vgx.o
 .text          0x0000000000000000        0x0 libraries\hal_libraries\ab32vg1_hal\libhal.a(ab32vg1_hal_adc.o)
 .data          0x0000000000000000        0x0 libraries\hal_libraries\ab32vg1_hal\libhal.a(ab32vg1_hal_adc.o)
 .bss           0x0000000000000000        0x0 libraries\hal_libraries\ab32vg1_hal\libhal.a(ab32vg1_hal_adc.o)
 .text          0x0000000000000000        0x0 libraries\hal_libraries\ab32vg1_hal\libhal.a(cache.o)
 .data          0x0000000000000000        0x0 libraries\hal_libraries\ab32vg1_hal\libhal.a(cache.o)
 .bss           0x0000000000000000        0x0 libraries\hal_libraries\ab32vg1_hal\libhal.a(cache.o)
 .text          0x0000000000000000        0x0 libraries\hal_libraries\ab32vg1_hal\libhal.a(rom_fun.o)
 .data          0x0000000000000000        0x0 libraries\hal_libraries\ab32vg1_hal\libhal.a(rom_fun.o)
 .bss           0x0000000000000000        0x0 libraries\hal_libraries\ab32vg1_hal\libhal.a(rom_fun.o)
 .data          0x0000000000000000        0x0 libraries\hal_libraries\ab32vg1_hal\libhal.a(save-restore.o)
 .bss           0x0000000000000000        0x0 libraries\hal_libraries\ab32vg1_hal\libhal.a(save-restore.o)
 .text          0x0000000000000000        0x0 libraries\hal_libraries\ab32vg1_hal\libhal.a(sys_err.o)
 .data          0x0000000000000000        0x0 libraries\hal_libraries\ab32vg1_hal\libhal.a(sys_err.o)
 .bss           0x0000000000000000        0x0 libraries\hal_libraries\ab32vg1_hal\libhal.a(sys_err.o)
 .text          0x0000000000000000      0x480 d:/program_files/programming/rt-threadstudio/repo/extract/toolchain_support_packages/risc-v/risc-v-gcc/10.1.0/bin/../lib/gcc/riscv64-unknown-elf/10.1.0/rv32im/ilp32\libgcc.a(_divdi3.o)
 .data          0x0000000000000000        0x0 d:/program_files/programming/rt-threadstudio/repo/extract/toolchain_support_packages/risc-v/risc-v-gcc/10.1.0/bin/../lib/gcc/riscv64-unknown-elf/10.1.0/rv32im/ilp32\libgcc.a(_divdi3.o)
 .bss           0x0000000000000000        0x0 d:/program_files/programming/rt-threadstudio/repo/extract/toolchain_support_packages/risc-v/risc-v-gcc/10.1.0/bin/../lib/gcc/riscv64-unknown-elf/10.1.0/rv32im/ilp32\libgcc.a(_divdi3.o)
 .debug_info    0x0000000000000000      0x7e8 d:/program_files/programming/rt-threadstudio/repo/extract/toolchain_support_packages/risc-v/risc-v-gcc/10.1.0/bin/../lib/gcc/riscv64-unknown-elf/10.1.0/rv32im/ilp32\libgcc.a(_divdi3.o)
 .debug_abbrev  0x0000000000000000      0x1b5 d:/program_files/programming/rt-threadstudio/repo/extract/toolchain_support_packages/risc-v/risc-v-gcc/10.1.0/bin/../lib/gcc/riscv64-unknown-elf/10.1.0/rv32im/ilp32\libgcc.a(_divdi3.o)
 .debug_loc     0x0000000000000000      0x9fa d:/program_files/programming/rt-threadstudio/repo/extract/toolchain_support_packages/risc-v/risc-v-gcc/10.1.0/bin/../lib/gcc/riscv64-unknown-elf/10.1.0/rv32im/ilp32\libgcc.a(_divdi3.o)
 .debug_aranges
                0x0000000000000000       0x20 d:/program_files/programming/rt-threadstudio/repo/extract/toolchain_support_packages/risc-v/risc-v-gcc/10.1.0/bin/../lib/gcc/riscv64-unknown-elf/10.1.0/rv32im/ilp32\libgcc.a(_divdi3.o)
 .debug_ranges  0x0000000000000000       0xf8 d:/program_files/programming/rt-threadstudio/repo/extract/toolchain_support_packages/risc-v/risc-v-gcc/10.1.0/bin/../lib/gcc/riscv64-unknown-elf/10.1.0/rv32im/ilp32\libgcc.a(_divdi3.o)
 .debug_line    0x0000000000000000      0x81b d:/program_files/programming/rt-threadstudio/repo/extract/toolchain_support_packages/risc-v/risc-v-gcc/10.1.0/bin/../lib/gcc/riscv64-unknown-elf/10.1.0/rv32im/ilp32\libgcc.a(_divdi3.o)
 .debug_str     0x0000000000000000      0x2e5 d:/program_files/programming/rt-threadstudio/repo/extract/toolchain_support_packages/risc-v/risc-v-gcc/10.1.0/bin/../lib/gcc/riscv64-unknown-elf/10.1.0/rv32im/ilp32\libgcc.a(_divdi3.o)
 .comment       0x0000000000000000       0x13 d:/program_files/programming/rt-threadstudio/repo/extract/toolchain_support_packages/risc-v/risc-v-gcc/10.1.0/bin/../lib/gcc/riscv64-unknown-elf/10.1.0/rv32im/ilp32\libgcc.a(_divdi3.o)
 .eh_frame      0x0000000000000000       0x28 d:/program_files/programming/rt-threadstudio/repo/extract/toolchain_support_packages/risc-v/risc-v-gcc/10.1.0/bin/../lib/gcc/riscv64-unknown-elf/10.1.0/rv32im/ilp32\libgcc.a(_divdi3.o)
 .riscv.attributes
                0x0000000000000000       0x21 d:/program_files/programming/rt-threadstudio/repo/extract/toolchain_support_packages/risc-v/risc-v-gcc/10.1.0/bin/../lib/gcc/riscv64-unknown-elf/10.1.0/rv32im/ilp32\libgcc.a(_divdi3.o)
 .data          0x0000000000000000        0x0 d:/program_files/programming/rt-threadstudio/repo/extract/toolchain_support_packages/risc-v/risc-v-gcc/10.1.0/bin/../lib/gcc/riscv64-unknown-elf/10.1.0/rv32im/ilp32\libgcc.a(_udivdi3.o)
 .bss           0x0000000000000000        0x0 d:/program_files/programming/rt-threadstudio/repo/extract/toolchain_support_packages/risc-v/risc-v-gcc/10.1.0/bin/../lib/gcc/riscv64-unknown-elf/10.1.0/rv32im/ilp32\libgcc.a(_udivdi3.o)
 .eh_frame      0x0000000000000000       0x28 d:/program_files/programming/rt-threadstudio/repo/extract/toolchain_support_packages/risc-v/risc-v-gcc/10.1.0/bin/../lib/gcc/riscv64-unknown-elf/10.1.0/rv32im/ilp32\libgcc.a(_udivdi3.o)
 .data          0x0000000000000000        0x0 d:/program_files/programming/rt-threadstudio/repo/extract/toolchain_support_packages/risc-v/risc-v-gcc/10.1.0/bin/../lib/gcc/riscv64-unknown-elf/10.1.0/rv32im/ilp32\libgcc.a(divdf3.o)
 .bss           0x0000000000000000        0x0 d:/program_files/programming/rt-threadstudio/repo/extract/toolchain_support_packages/risc-v/risc-v-gcc/10.1.0/bin/../lib/gcc/riscv64-unknown-elf/10.1.0/rv32im/ilp32\libgcc.a(divdf3.o)
 .data          0x0000000000000000        0x0 d:/program_files/programming/rt-threadstudio/repo/extract/toolchain_support_packages/risc-v/risc-v-gcc/10.1.0/bin/../lib/gcc/riscv64-unknown-elf/10.1.0/rv32im/ilp32\libgcc.a(muldf3.o)
 .bss           0x0000000000000000        0x0 d:/program_files/programming/rt-threadstudio/repo/extract/toolchain_support_packages/risc-v/risc-v-gcc/10.1.0/bin/../lib/gcc/riscv64-unknown-elf/10.1.0/rv32im/ilp32\libgcc.a(muldf3.o)
 .data          0x0000000000000000        0x0 d:/program_files/programming/rt-threadstudio/repo/extract/toolchain_support_packages/risc-v/risc-v-gcc/10.1.0/bin/../lib/gcc/riscv64-unknown-elf/10.1.0/rv32im/ilp32\libgcc.a(fixdfsi.o)
 .bss           0x0000000000000000        0x0 d:/program_files/programming/rt-threadstudio/repo/extract/toolchain_support_packages/risc-v/risc-v-gcc/10.1.0/bin/../lib/gcc/riscv64-unknown-elf/10.1.0/rv32im/ilp32\libgcc.a(fixdfsi.o)
 .data          0x0000000000000000        0x0 d:/program_files/programming/rt-threadstudio/repo/extract/toolchain_support_packages/risc-v/risc-v-gcc/10.1.0/bin/../lib/gcc/riscv64-unknown-elf/10.1.0/rv32im/ilp32\libgcc.a(floatunsidf.o)
 .bss           0x0000000000000000        0x0 d:/program_files/programming/rt-threadstudio/repo/extract/toolchain_support_packages/risc-v/risc-v-gcc/10.1.0/bin/../lib/gcc/riscv64-unknown-elf/10.1.0/rv32im/ilp32\libgcc.a(floatunsidf.o)
 .data          0x0000000000000000        0x0 d:/program_files/programming/rt-threadstudio/repo/extract/toolchain_support_packages/risc-v/risc-v-gcc/10.1.0/bin/../lib/gcc/riscv64-unknown-elf/10.1.0/rv32im/ilp32\libgcc.a(addsf3.o)
 .bss           0x0000000000000000        0x0 d:/program_files/programming/rt-threadstudio/repo/extract/toolchain_support_packages/risc-v/risc-v-gcc/10.1.0/bin/../lib/gcc/riscv64-unknown-elf/10.1.0/rv32im/ilp32\libgcc.a(addsf3.o)
 .data          0x0000000000000000        0x0 d:/program_files/programming/rt-threadstudio/repo/extract/toolchain_support_packages/risc-v/risc-v-gcc/10.1.0/bin/../lib/gcc/riscv64-unknown-elf/10.1.0/rv32im/ilp32\libgcc.a(divsf3.o)
 .bss           0x0000000000000000        0x0 d:/program_files/programming/rt-threadstudio/repo/extract/toolchain_support_packages/risc-v/risc-v-gcc/10.1.0/bin/../lib/gcc/riscv64-unknown-elf/10.1.0/rv32im/ilp32\libgcc.a(divsf3.o)
 .data          0x0000000000000000        0x0 d:/program_files/programming/rt-threadstudio/repo/extract/toolchain_support_packages/risc-v/risc-v-gcc/10.1.0/bin/../lib/gcc/riscv64-unknown-elf/10.1.0/rv32im/ilp32\libgcc.a(eqsf2.o)
 .bss           0x0000000000000000        0x0 d:/program_files/programming/rt-threadstudio/repo/extract/toolchain_support_packages/risc-v/risc-v-gcc/10.1.0/bin/../lib/gcc/riscv64-unknown-elf/10.1.0/rv32im/ilp32\libgcc.a(eqsf2.o)
 .data          0x0000000000000000        0x0 d:/program_files/programming/rt-threadstudio/repo/extract/toolchain_support_packages/risc-v/risc-v-gcc/10.1.0/bin/../lib/gcc/riscv64-unknown-elf/10.1.0/rv32im/ilp32\libgcc.a(gesf2.o)
 .bss           0x0000000000000000        0x0 d:/program_files/programming/rt-threadstudio/repo/extract/toolchain_support_packages/risc-v/risc-v-gcc/10.1.0/bin/../lib/gcc/riscv64-unknown-elf/10.1.0/rv32im/ilp32\libgcc.a(gesf2.o)
 .data          0x0000000000000000        0x0 d:/program_files/programming/rt-threadstudio/repo/extract/toolchain_support_packages/risc-v/risc-v-gcc/10.1.0/bin/../lib/gcc/riscv64-unknown-elf/10.1.0/rv32im/ilp32\libgcc.a(lesf2.o)
 .bss           0x0000000000000000        0x0 d:/program_files/programming/rt-threadstudio/repo/extract/toolchain_support_packages/risc-v/risc-v-gcc/10.1.0/bin/../lib/gcc/riscv64-unknown-elf/10.1.0/rv32im/ilp32\libgcc.a(lesf2.o)
 .data          0x0000000000000000        0x0 d:/program_files/programming/rt-threadstudio/repo/extract/toolchain_support_packages/risc-v/risc-v-gcc/10.1.0/bin/../lib/gcc/riscv64-unknown-elf/10.1.0/rv32im/ilp32\libgcc.a(mulsf3.o)
 .bss           0x0000000000000000        0x0 d:/program_files/programming/rt-threadstudio/repo/extract/toolchain_support_packages/risc-v/risc-v-gcc/10.1.0/bin/../lib/gcc/riscv64-unknown-elf/10.1.0/rv32im/ilp32\libgcc.a(mulsf3.o)
 .data          0x0000000000000000        0x0 d:/program_files/programming/rt-threadstudio/repo/extract/toolchain_support_packages/risc-v/risc-v-gcc/10.1.0/bin/../lib/gcc/riscv64-unknown-elf/10.1.0/rv32im/ilp32\libgcc.a(subsf3.o)
 .bss           0x0000000000000000        0x0 d:/program_files/programming/rt-threadstudio/repo/extract/toolchain_support_packages/risc-v/risc-v-gcc/10.1.0/bin/../lib/gcc/riscv64-unknown-elf/10.1.0/rv32im/ilp32\libgcc.a(subsf3.o)
 .data          0x0000000000000000        0x0 d:/program_files/programming/rt-threadstudio/repo/extract/toolchain_support_packages/risc-v/risc-v-gcc/10.1.0/bin/../lib/gcc/riscv64-unknown-elf/10.1.0/rv32im/ilp32\libgcc.a(fixsfsi.o)
 .bss           0x0000000000000000        0x0 d:/program_files/programming/rt-threadstudio/repo/extract/toolchain_support_packages/risc-v/risc-v-gcc/10.1.0/bin/../lib/gcc/riscv64-unknown-elf/10.1.0/rv32im/ilp32\libgcc.a(fixsfsi.o)
 .data          0x0000000000000000        0x0 d:/program_files/programming/rt-threadstudio/repo/extract/toolchain_support_packages/risc-v/risc-v-gcc/10.1.0/bin/../lib/gcc/riscv64-unknown-elf/10.1.0/rv32im/ilp32\libgcc.a(fixunssfsi.o)
 .bss           0x0000000000000000        0x0 d:/program_files/programming/rt-threadstudio/repo/extract/toolchain_support_packages/risc-v/risc-v-gcc/10.1.0/bin/../lib/gcc/riscv64-unknown-elf/10.1.0/rv32im/ilp32\libgcc.a(fixunssfsi.o)
 .data          0x0000000000000000        0x0 d:/program_files/programming/rt-threadstudio/repo/extract/toolchain_support_packages/risc-v/risc-v-gcc/10.1.0/bin/../lib/gcc/riscv64-unknown-elf/10.1.0/rv32im/ilp32\libgcc.a(floatsisf.o)
 .bss           0x0000000000000000        0x0 d:/program_files/programming/rt-threadstudio/repo/extract/toolchain_support_packages/risc-v/risc-v-gcc/10.1.0/bin/../lib/gcc/riscv64-unknown-elf/10.1.0/rv32im/ilp32\libgcc.a(floatsisf.o)
 .data          0x0000000000000000        0x0 d:/program_files/programming/rt-threadstudio/repo/extract/toolchain_support_packages/risc-v/risc-v-gcc/10.1.0/bin/../lib/gcc/riscv64-unknown-elf/10.1.0/rv32im/ilp32\libgcc.a(floatunsisf.o)
 .bss           0x0000000000000000        0x0 d:/program_files/programming/rt-threadstudio/repo/extract/toolchain_support_packages/risc-v/risc-v-gcc/10.1.0/bin/../lib/gcc/riscv64-unknown-elf/10.1.0/rv32im/ilp32\libgcc.a(floatunsisf.o)
 .text          0x0000000000000000        0x0 d:/program_files/programming/rt-threadstudio/repo/extract/toolchain_support_packages/risc-v/risc-v-gcc/10.1.0/bin/../lib/gcc/riscv64-unknown-elf/10.1.0/rv32im/ilp32\libgcc.a(_clz.o)
 .data          0x0000000000000000        0x0 d:/program_files/programming/rt-threadstudio/repo/extract/toolchain_support_packages/risc-v/risc-v-gcc/10.1.0/bin/../lib/gcc/riscv64-unknown-elf/10.1.0/rv32im/ilp32\libgcc.a(_clz.o)
 .bss           0x0000000000000000        0x0 d:/program_files/programming/rt-threadstudio/repo/extract/toolchain_support_packages/risc-v/risc-v-gcc/10.1.0/bin/../lib/gcc/riscv64-unknown-elf/10.1.0/rv32im/ilp32\libgcc.a(_clz.o)
 .data          0x0000000000000000        0x0 d:/program_files/programming/rt-threadstudio/repo/extract/toolchain_support_packages/risc-v/risc-v-gcc/10.1.0/bin/../lib/gcc/riscv64-unknown-elf/10.1.0/rv32im/ilp32\libgcc.a(_clzsi2.o)
 .bss           0x0000000000000000        0x0 d:/program_files/programming/rt-threadstudio/repo/extract/toolchain_support_packages/risc-v/risc-v-gcc/10.1.0/bin/../lib/gcc/riscv64-unknown-elf/10.1.0/rv32im/ilp32\libgcc.a(_clzsi2.o)
 .data          0x0000000000000000        0x0 d:/program_files/programming/rt-threadstudio/repo/extract/toolchain_support_packages/risc-v/risc-v-gcc/10.1.0/bin/../lib/gcc/riscv64-unknown-elf/10.1.0/../../../../riscv64-unknown-elf/lib/rv32im/ilp32\libc.a(lib_a-errno.o)
 .bss           0x0000000000000000        0x0 d:/program_files/programming/rt-threadstudio/repo/extract/toolchain_support_packages/risc-v/risc-v-gcc/10.1.0/bin/../lib/gcc/riscv64-unknown-elf/10.1.0/../../../../riscv64-unknown-elf/lib/rv32im/ilp32\libc.a(lib_a-errno.o)
 .text          0x0000000000000000        0x0 d:/program_files/programming/rt-threadstudio/repo/extract/toolchain_support_packages/risc-v/risc-v-gcc/10.1.0/bin/../lib/gcc/riscv64-unknown-elf/10.1.0/../../../../riscv64-unknown-elf/lib/rv32im/ilp32\libc.a(lib_a-impure.o)
 .bss           0x0000000000000000        0x0 d:/program_files/programming/rt-threadstudio/repo/extract/toolchain_support_packages/risc-v/risc-v-gcc/10.1.0/bin/../lib/gcc/riscv64-unknown-elf/10.1.0/../../../../riscv64-unknown-elf/lib/rv32im/ilp32\libc.a(lib_a-impure.o)
 .srodata       0x0000000000000000        0x4 d:/program_files/programming/rt-threadstudio/repo/extract/toolchain_support_packages/risc-v/risc-v-gcc/10.1.0/bin/../lib/gcc/riscv64-unknown-elf/10.1.0/../../../../riscv64-unknown-elf/lib/rv32im/ilp32\libc.a(lib_a-impure.o)
 .data          0x0000000000000000        0x0 d:/program_files/programming/rt-threadstudio/repo/extract/toolchain_support_packages/risc-v/risc-v-gcc/10.1.0/bin/../lib/gcc/riscv64-unknown-elf/10.1.0/../../../../riscv64-unknown-elf/lib/rv32im/ilp32\libc.a(lib_a-strrchr.o)
 .bss           0x0000000000000000        0x0 d:/program_files/programming/rt-threadstudio/repo/extract/toolchain_support_packages/risc-v/risc-v-gcc/10.1.0/bin/../lib/gcc/riscv64-unknown-elf/10.1.0/../../../../riscv64-unknown-elf/lib/rv32im/ilp32\libc.a(lib_a-strrchr.o)
 .data          0x0000000000000000        0x0 d:/program_files/programming/rt-threadstudio/repo/extract/toolchain_support_packages/risc-v/risc-v-gcc/10.1.0/bin/../lib/gcc/riscv64-unknown-elf/10.1.0/../../../../riscv64-unknown-elf/lib/rv32im/ilp32\libc.a(lib_a-strchr.o)
 .bss           0x0000000000000000        0x0 d:/program_files/programming/rt-threadstudio/repo/extract/toolchain_support_packages/risc-v/risc-v-gcc/10.1.0/bin/../lib/gcc/riscv64-unknown-elf/10.1.0/../../../../riscv64-unknown-elf/lib/rv32im/ilp32\libc.a(lib_a-strchr.o)

Memory Configuration

Name             Origin             Length             Attributes
init             0x0000000010000000 0x0000000000000200
flash            0x0000000010000200 0x0000000000100000 xr
comm             0x0000000000014000 0x0000000000014c00 xr
data             0x0000000000011000 0x0000000000002000
stack            0x0000000000013000 0x0000000000001000
heap             0x0000000000028c00 0x0000000000007400
ram1             0x0000000000050000 0x0000000000007a00 xr
*default*        0x0000000000000000 0xffffffffffffffff

Linker script and memory map

LOAD build\applications\mnt.o
LOAD build\applications\main.o
LOAD build\board\ports\audio\drv_sound.o
LOAD build\board\board.o
LOAD build\board\ab32vg1_hal_msp.o
LOAD build\kernel\src\thread.o
LOAD build\kernel\src\device.o
LOAD build\kernel\src\mem.o
LOAD build\kernel\src\object.o
LOAD build\kernel\src\kservice.o
LOAD build\kernel\src\scheduler.o
LOAD build\kernel\src\timer.o
LOAD build\kernel\src\irq.o
LOAD build\kernel\src\memheap.o
LOAD build\kernel\src\idle.o
LOAD build\kernel\src\ipc.o
LOAD build\kernel\src\components.o
LOAD build\kernel\src\mempool.o
LOAD build\kernel\src\clock.o
LOAD build\kernel\components\dfs\src\dfs_posix.o
LOAD build\kernel\components\dfs\src\dfs_fs.o
LOAD build\kernel\components\dfs\src\dfs.o
LOAD build\kernel\components\dfs\src\dfs_file.o
LOAD build\kernel\components\dfs\filesystems\devfs\devfs.o
LOAD build\kernel\components\dfs\filesystems\elmfat\ff.o
LOAD build\kernel\components\dfs\filesystems\elmfat\ffunicode.o
LOAD build\kernel\components\dfs\filesystems\elmfat\dfs_elm.o
LOAD build\kernel\components\drivers\audio\audio.o
LOAD build\kernel\components\drivers\audio\audio_pipe.o
LOAD build\kernel\components\drivers\hwtimer\hwtimer.o
LOAD build\kernel\components\drivers\i2c\i2c_core.o
LOAD build\kernel\components\drivers\i2c\i2c_dev.o
LOAD build\kernel\components\drivers\i2c\i2c-bit-ops.o
LOAD build\kernel\components\drivers\misc\adc.o
LOAD build\kernel\components\drivers\misc\rt_drv_pwm.o
LOAD build\kernel\components\drivers\misc\pin.o
LOAD build\kernel\components\drivers\rtc\rtc.o
LOAD build\kernel\components\drivers\rtc\alarm.o
LOAD build\kernel\components\drivers\sdio\mmc.o
LOAD build\kernel\components\drivers\sdio\sd.o
LOAD build\kernel\components\drivers\sdio\block_dev.o
LOAD build\kernel\components\drivers\sdio\sdio.o
LOAD build\kernel\components\drivers\sdio\mmcsd_core.o
LOAD build\kernel\components\drivers\serial\serial.o
LOAD build\kernel\components\drivers\src\ringblk_buf.o
LOAD build\kernel\components\drivers\src\pipe.o
LOAD build\kernel\components\drivers\src\dataqueue.o
LOAD build\kernel\components\drivers\src\ringbuffer.o
LOAD build\kernel\components\drivers\src\completion.o
LOAD build\kernel\components\drivers\src\workqueue.o
LOAD build\kernel\components\drivers\src\waitqueue.o
LOAD build\kernel\components\drivers\watchdog\watchdog.o
LOAD build\kernel\components\finsh\finsh_node.o
LOAD build\kernel\components\finsh\finsh_parser.o
LOAD build\kernel\components\finsh\cmd.o
LOAD build\kernel\components\finsh\finsh_vm.o
LOAD build\kernel\components\finsh\msh_file.o
LOAD build\kernel\components\finsh\msh.o
LOAD build\kernel\components\finsh\shell.o
LOAD build\kernel\components\finsh\finsh_var.o
LOAD build\kernel\components\finsh\finsh_compiler.o
LOAD build\kernel\components\finsh\finsh_heap.o
LOAD build\kernel\components\finsh\finsh_ops.o
LOAD build\kernel\components\finsh\finsh_error.o
LOAD build\kernel\components\finsh\finsh_token.o
LOAD build\kernel\components\finsh\finsh_init.o
LOAD build\kernel\components\libc\compilers\common\time.o
LOAD build\kernel\components\libc\compilers\newlib\minilib.o
LOAD libraries\hal_drivers\drv_gpio.o
LOAD libraries\hal_drivers\drv_rtc.o
LOAD libraries\hal_drivers\drv_soft_i2c.o
LOAD libraries\hal_drivers\drv_wdt.o
LOAD libraries\hal_drivers\drv_sdio.o
LOAD libraries\hal_drivers\drv_adc.o
LOAD libraries\hal_drivers\drv_usart.o
LOAD libraries\hal_drivers\drv_pwm.o
LOAD libraries\hal_drivers\drv_hwtimer.o
LOAD libcpu\cpu\context_gcc.o
LOAD libcpu\cpu\cpuport.o
LOAD libcpu\cpu\interrupt.o
LOAD libraries\hal_libraries\ab32vg1_hal\source\ab32vg1_hal_gpio.o
LOAD libraries\hal_libraries\ab32vg1_hal\source\ab32vg1_hal_dac.o
LOAD libraries\hal_libraries\ab32vg1_hal\source\ab32vg1_hal_uart.o
LOAD libraries\hal_libraries\ab32vg1_hal\source\ab32vg1_hal.o
LOAD libraries\hal_libraries\ab32vg1_hal\source\ab32vg1_hal_rcu.o
LOAD libraries\hal_libraries\ab32vg1_hal\source\ab32vg1_hal_sd.o
LOAD libraries\hal_libraries\bmsis\source\startup.o
LOAD libraries\hal_libraries\bmsis\source\system_ab32vgx.o
LOAD libraries\hal_libraries\ab32vg1_hal\libhal.a
LOAD d:/program_files/programming/rt-threadstudio/repo/extract/toolchain_support_packages/risc-v/risc-v-gcc/10.1.0/bin/../lib/gcc/riscv64-unknown-elf/10.1.0/rv32im/ilp32\libgcc.a
START GROUP
LOAD d:/program_files/programming/rt-threadstudio/repo/extract/toolchain_support_packages/risc-v/risc-v-gcc/10.1.0/bin/../lib/gcc/riscv64-unknown-elf/10.1.0/../../../../riscv64-unknown-elf/lib/rv32im/ilp32\libc.a
LOAD d:/program_files/programming/rt-threadstudio/repo/extract/toolchain_support_packages/risc-v/risc-v-gcc/10.1.0/bin/../lib/gcc/riscv64-unknown-elf/10.1.0/../../../../riscv64-unknown-elf/lib/rv32im/ilp32\libgloss.a
END GROUP
LOAD d:/program_files/programming/rt-threadstudio/repo/extract/toolchain_support_packages/risc-v/risc-v-gcc/10.1.0/bin/../lib/gcc/riscv64-unknown-elf/10.1.0/rv32im/ilp32\libgcc.a
                0x0000000000100000                __max_flash_size = 0x100000
                0x0000000000002000                __data_ram_size = 0x2000
                0x0000000000001000                __stack_ram_size = 0x1000
                0x0000000000014c00                __comm_ram_size = 0x14c00
                0x0000000000007400                __heap_ram_size = 0x7400
                0x0000000010000000                __base = 0x10000000
                0x0000000000011000                __data_vma = 0x11000
                0x0000000000013000                __stack_vma = (__data_vma + __data_ram_size)
                0x0000000000014000                __comm_vma = (__stack_vma + __stack_ram_size)
                0x0000000000028c00                __heap_vma = (__comm_vma + __comm_ram_size)
                0x0000000000050000                __ram1_vma = 0x50000

.init           0x0000000010000000       0xae
 *(.reset)
 .reset         0x0000000010000000       0xae libraries\hal_libraries\bmsis\source\startup.o
                0x0000000010000000                _start

.ram1           0x0000000000050000     0x5d90 load address 0x0000000010000200
                0x0000000000050000                . = ALIGN (0x4)
                0x0000000000050000                __rt_init_start = .
 *(SORT_BY_NAME(.rti_fn*))
 .rti_fn.0      0x0000000000050000        0x4 build\kernel\src\components.o
                0x0000000000050000                __rt_init_rti_start
 .rti_fn.0.end  0x0000000000050004        0x4 build\kernel\src\components.o
                0x0000000000050004                __rt_init_rti_board_start
 .rti_fn.1      0x0000000000050008        0x4 libraries\hal_drivers\drv_soft_i2c.o
                0x0000000000050008                __rt_init_rt_hw_i2c_init
 .rti_fn.1      0x000000000005000c        0x4 libraries\hal_drivers\drv_wdt.o
                0x000000000005000c                __rt_init_rt_wdt_init
 .rti_fn.1      0x0000000000050010        0x4 libraries\hal_drivers\drv_adc.o
                0x0000000000050010                __rt_init_ab32_adc_init
 .rti_fn.1      0x0000000000050014        0x4 libraries\hal_drivers\drv_hwtimer.o
                0x0000000000050014                __rt_init_ab32_hwtimer_init
 .rti_fn.1.end  0x0000000000050018        0x4 build\kernel\src\components.o
                0x0000000000050018                __rt_init_rti_board_end
 .rti_fn.2      0x000000000005001c        0x4 build\kernel\components\dfs\src\dfs.o
                0x000000000005001c                __rt_init_dfs_init
 .rti_fn.2      0x0000000000050020        0x4 build\kernel\components\drivers\rtc\alarm.o
                0x0000000000050020                __rt_init_rt_alarm_system_init
 .rti_fn.2      0x0000000000050024        0x4 build\kernel\components\drivers\sdio\mmcsd_core.o
                0x0000000000050024                __rt_init_rt_mmcsd_core_init
 .rti_fn.3      0x0000000000050028        0x4 build\board\ports\audio\drv_sound.o
                0x0000000000050028                __rt_init_rt_hw_sound_init
 .rti_fn.3      0x000000000005002c        0x4 libraries\hal_drivers\drv_rtc.o
                0x000000000005002c                __rt_init_rt_hw_rtc_init
 .rti_fn.3      0x0000000000050030        0x4 libraries\hal_drivers\drv_sdio.o
                0x0000000000050030                __rt_init_rt_hw_sdio_init
 .rti_fn.3      0x0000000000050034        0x4 libraries\hal_drivers\drv_pwm.o
                0x0000000000050034                __rt_init_ab32_pwm_init
 .rti_fn.4      0x0000000000050038        0x4 build\kernel\components\dfs\filesystems\elmfat\dfs_elm.o
                0x0000000000050038                __rt_init_elm_init
 .rti_fn.4      0x000000000005003c        0x4 build\kernel\components\drivers\i2c\i2c_core.o
                0x000000000005003c                __rt_init_rt_i2c_core_init
 .rti_fn.6      0x0000000000050040        0x4 build\applications\mnt.o
                0x0000000000050040                __rt_init_ab32_sdcard_mount
 .rti_fn.6      0x0000000000050044        0x4 build\kernel\components\finsh\shell.o
                0x0000000000050044                __rt_init_finsh_system_init
 .rti_fn.6.end  0x0000000000050048        0x4 build\kernel\src\components.o
                0x0000000000050048                __rt_init_rti_end
                0x000000000005004c                __rt_init_end = .
                0x000000000005004c                . = ALIGN (0x4)
                [!provide]                        PROVIDE (__ctors_start__ = .)
 *(SORT_BY_NAME(.init_array.*))
 *(.init_array)
                [!provide]                        PROVIDE (__ctors_end__ = .)
                0x000000000005004c                . = ALIGN (0x4)
 *components*drivers*hwtimer**.o(.text*)
 .text          0x000000000005004c      0x4a6 build\kernel\components\drivers\hwtimer\hwtimer.o
                0x0000000000050418                rt_device_hwtimer_isr
                0x000000000005046e                rt_device_hwtimer_register
 *components*drivers*misc*pin.o(.text*)
 .text          0x00000000000504f2      0x30c build\kernel\components\drivers\misc\pin.o
                0x000000000005052e                rt_pin_mode
                0x0000000000050574                rt_pin_write
                0x00000000000505ba                rt_pin_read
                0x00000000000505f8                rt_pin_get
                0x00000000000506e4                rt_device_pin_register
                0x000000000005071a                rt_pin_attach_irq
                0x0000000000050772                rt_pin_detach_irq
                0x00000000000507b4                rt_pin_irq_enable
                0x0000000000050800                . = ALIGN (0x4)
 *fill*         0x00000000000507fe        0x2 
 *src*ipc.o(.text* .rodata*)
 .text          0x0000000000050800     0x1f90 build\kernel\src\ipc.o
                0x0000000000050886                rt_ipc_get_highest_priority
                0x00000000000508a8                rt_sem_init
                0x000000000005090c                rt_sem_detach
                0x0000000000050982                rt_sem_create
                0x0000000000050a06                rt_sem_delete
                0x0000000000050aba                rt_sem_take
                0x0000000000050c08                rt_sem_trytake
                0x0000000000050c0c                rt_sem_release
                0x0000000000050caa                rt_sem_control
                0x0000000000050d1a                rt_mutex_init
                0x0000000000050d66                rt_mutex_detach
                0x0000000000050ddc                rt_mutex_create
                0x0000000000050e48                rt_mutex_delete
                0x0000000000050efc                rt_mutex_take
                0x000000000005109c                rt_mutex_release
                0x0000000000051252                rt_mutex_control
                0x000000000005129c                rt_event_init
                0x00000000000512e0                rt_event_detach
                0x0000000000051358                rt_event_create
                0x00000000000513bc                rt_event_delete
                0x0000000000051472                rt_event_send
                0x0000000000051558                rt_event_recv
                0x000000000005172c                rt_event_control
                0x000000000005179c                rt_mb_init
                0x00000000000517f8                rt_mb_detach
                0x0000000000051878                rt_mb_create
                0x0000000000051910                rt_mb_delete
                0x00000000000519d8                rt_mb_send_wait
                0x0000000000051ba0                rt_mb_send
                0x0000000000051ba4                rt_mb_urgent
                0x0000000000051c5a                rt_mb_recv
                0x0000000000051e44                rt_mb_control
                0x0000000000051ec0                rt_mq_init
                0x0000000000051f56                rt_mq_detach
                0x0000000000051fd6                rt_mq_create
                0x00000000000520b0                rt_mq_delete
                0x0000000000052180                rt_mq_send_wait
                0x00000000000523a2                rt_mq_send
                0x00000000000523a6                rt_mq_urgent
                0x00000000000524b8                rt_mq_recv
                0x00000000000526fa                rt_mq_control
 .rodata.str1.4
                0x0000000000052790      0x44a build\kernel\src\ipc.o
                                        0x476 (size before relaxing)
 *fill*         0x0000000000052bda        0x2 
 .rodata        0x0000000000052bdc      0x242 build\kernel\src\ipc.o
 *src*irq.o(.text* .rodata*)
 .text          0x0000000000052e1e       0x9a build\kernel\src\irq.o
                0x0000000000052e1e                rt_interrupt_enter_sethook
                0x0000000000052e28                rt_interrupt_leave_sethook
                0x0000000000052e32                rt_interrupt_enter
                0x0000000000052e68                rt_interrupt_leave
                0x0000000000052e9e                rt_interrupt_get_nest
 *src*object.o(.text* .rodata*)
 .text          0x0000000000052eb8      0x3c4 build\kernel\src\object.o
                0x0000000000052eb8                rt_object_attach_sethook
                0x0000000000052ec2                rt_object_detach_sethook
                0x0000000000052ecc                rt_object_trytake_sethook
                0x0000000000052ed6                rt_object_take_sethook
                0x0000000000052ee0                rt_object_put_sethook
                0x0000000000052eea                rt_object_get_information
                0x0000000000052f12                rt_object_get_length
                0x0000000000052f3c                rt_object_get_pointers
                0x0000000000052f7e                rt_object_init
                0x0000000000053022                rt_object_detach
                0x0000000000053070                rt_object_allocate
                0x000000000005312a                rt_object_delete
                0x00000000000531a2                rt_object_is_systemobject
                0x00000000000531cc                rt_object_get_type
                0x00000000000531f8                rt_object_find
 *fill*         0x000000000005327c        0x0 
 .rodata.str1.4
                0x000000000005327c       0x8d build\kernel\src\object.o
                                         0x91 (size before relaxing)
 *fill*         0x0000000000053309        0x3 
 .rodata        0x000000000005330c       0x8b build\kernel\src\object.o
 *src*thread.o(.text* .rodata*)
 *fill*         0x0000000000053397        0x1 
 .text          0x0000000000053398      0x81c build\kernel\src\thread.o
                0x00000000000533b6                rt_thread_exit
                0x00000000000534ca                rt_thread_timeout
                0x0000000000053554                rt_thread_suspend_sethook
                0x000000000005355e                rt_thread_resume_sethook
                0x0000000000053568                rt_thread_inited_sethook
                0x0000000000053572                rt_thread_init
                0x00000000000535d8                rt_thread_self
                0x00000000000535e2                rt_thread_detach
                0x0000000000053678                rt_thread_create
                0x00000000000536be                rt_thread_delete
                0x000000000005376c                rt_thread_yield
                0x00000000000537a2                rt_thread_suspend
                0x0000000000053860                rt_thread_sleep
                0x00000000000538ea                rt_thread_delay
                0x00000000000538ec                rt_thread_mdelay
                0x00000000000538fa                rt_thread_delay_until
                0x00000000000539c2                rt_thread_resume
                0x0000000000053a54                rt_thread_startup
                0x0000000000053ae6                rt_thread_control
                0x0000000000053bae                rt_thread_find
 *fill*         0x0000000000053bb4        0x0 
 .rodata.str1.4
                0x0000000000053bb4      0x19f build\kernel\src\thread.o
 *fill*         0x0000000000053d53        0x1 
 .rodata        0x0000000000053d54       0xd2 build\kernel\src\thread.o
 *src*timer.o(.text* .rodata*)
 .text          0x0000000000053e26      0x688 build\kernel\src\timer.o
                0x0000000000053e38                rt_timer_enter_sethook
                0x0000000000053e42                rt_timer_exit_sethook
                0x0000000000053e4c                rt_timer_init
                0x0000000000053ea2                rt_timer_detach
                0x0000000000053f2c                rt_timer_create
                0x0000000000053f62                rt_timer_delete
                0x0000000000053fec                rt_timer_start
                0x000000000005411c                rt_timer_stop
                0x0000000000054198                rt_timer_control
                0x000000000005423c                rt_timer_check
                0x0000000000054302                rt_timer_next_timeout_tick
                0x0000000000054326                rt_soft_timer_check
                0x0000000000054456                rt_system_timer_init
                0x0000000000054464                rt_system_timer_thread_init
 *fill*         0x00000000000544ae        0x2 
 .rodata.str1.4
                0x00000000000544b0       0xde build\kernel\src\timer.o
 *fill*         0x000000000005458e        0x2 
 .rodata        0x0000000000054590       0x75 build\kernel\src\timer.o
 *src*mempool.o(.text* .rodata*)
 *fill*         0x0000000000054605        0x1 
 .text          0x0000000000054606      0x4e2 build\kernel\src\mempool.o
                0x0000000000054606                rt_mp_alloc_sethook
                0x0000000000054610                rt_mp_free_sethook
                0x000000000005461a                rt_mp_init
                0x00000000000546f0                rt_mp_detach
                0x0000000000054786                rt_mp_create
                0x0000000000054870                rt_mp_delete
                0x000000000005494e                rt_mp_alloc
                0x0000000000054a88                rt_mp_free
 .rodata.str1.4
                0x0000000000054ae8      0x121 build\kernel\src\mempool.o
                                        0x14d (size before relaxing)
 *fill*         0x0000000000054c09        0x3 
 .rodata        0x0000000000054c0c       0x48 build\kernel\src\mempool.o
 *src*scheduler.o(.text* .rodata*)
 .text          0x0000000000054c54      0x310 build\kernel\src\scheduler.o
                0x0000000000054c54                rt_scheduler_sethook
                0x0000000000054c5e                rt_system_scheduler_init
                0x0000000000054c96                rt_schedule_insert_thread
                0x0000000000054d16                rt_schedule_remove_thread
                0x0000000000054d7e                rt_system_scheduler_start
                0x0000000000054dbe                rt_schedule
                0x0000000000054ef4                rt_enter_critical
                0x0000000000054f16                rt_exit_critical
                0x0000000000054f5a                rt_critical_level
 *fill*         0x0000000000054f64        0x0 
 .rodata.str1.4
                0x0000000000054f64       0x51 build\kernel\src\scheduler.o
                                         0x65 (size before relaxing)
 *fill*         0x0000000000054fb5        0x3 
 .rodata        0x0000000000054fb8       0x36 build\kernel\src\scheduler.o
 *src*clock.o(.text* .rodata*)
 .text          0x0000000000054fee       0x90 build\kernel\src\clock.o
                0x0000000000054fee                rt_tick_get
                0x0000000000054ff8                rt_tick_set
                0x0000000000055012                rt_tick_increase
                0x000000000005504c                rt_tick_from_millisecond
                0x0000000000055074                rt_tick_get_millisecond
 *src*kservice.o(.text* .rodata*)
 .text          0x000000000005507e      0xac8 build\kernel\src\kservice.o
                0x000000000005521c                rt_get_errno
                0x000000000005523c                rt_set_errno
                0x000000000005525e                _rt_errno
                0x0000000000055280                rt_memset
                0x0000000000055304                rt_memcpy
                0x00000000000553b2                rt_memmove
                0x00000000000553fc                rt_memcmp
                0x0000000000055424                rt_strcasecmp
                0x0000000000055458                rt_strncpy
                0x0000000000055480                rt_strncmp
                0x00000000000554b0                rt_strcmp
                0x00000000000554ca                rt_strnlen
                0x00000000000554e2                rt_strlen
                0x00000000000554f4                rt_strstr
                0x000000000005552c                rt_strdup
                0x0000000000055558                rt_vsnprintf
                0x00000000000558de                rt_snprintf
                0x00000000000558f8                rt_vsprintf
                0x0000000000055900                rt_sprintf
                0x000000000005591c                rt_console_get_device
                0x0000000000055926                rt_console_set_device
                0x0000000000055964                rt_hw_console_output
                0x0000000000055966                rt_kputs
                0x00000000000559ac                rt_kprintf
                0x0000000000055a26                rt_show_version
                0x0000000000055a64                rt_malloc_align
                0x0000000000055a9e                rt_free_align
                0x0000000000055aaa                __rt_ffs
                0x0000000000055b02                rt_assert_set_hook
                0x0000000000055b0c                rt_assert_handler
 *fill*         0x0000000000055b46        0x2 
 .rodata.str1.4
                0x0000000000055b48       0xc7 build\kernel\src\kservice.o
 *fill*         0x0000000000055c0f        0x1 
 .rodata        0x0000000000055c10      0x180 build\kernel\src\kservice.o
                0x0000000000055c90                __lowest_bit_bitmap

.comm           0x0000000000014000     0x2d74 load address 0x0000000010005f90
                0x0000000000014000                . = ALIGN (0x4)
 *(.vector)
 .vector        0x0000000000014000       0xf4 libraries\hal_libraries\bmsis\source\startup.o
                0x00000000000140dc                cpu_irq_comm
 .vector        0x00000000000140f4       0x3a libraries\hal_libraries\ab32vg1_hal\libhal.a(cache.o)
                0x00000000000140f4                load_cache
 *(.irq*)
 .irq.audio     0x000000000001412e       0x3e build\board\ports\audio\drv_sound.o
                0x000000000001412e                audio_sem_post
 .irq.timer     0x000000000001416c       0x1c build\board\board.o
                0x000000000001416c                timer0_isr
 .irq.cache     0x0000000000014188       0x7c build\board\board.o
                0x0000000000014188                cache_init
                0x00000000000141ba                os_spiflash_lock
                0x00000000000141e0                os_spiflash_unlock
 .irq.err       0x0000000000014204        0xa build\board\board.o
                0x0000000000014204                exception_isr
 .irq.rtc       0x000000000001420e       0x26 libraries\hal_drivers\drv_rtc.o
 .irq.sdio      0x0000000000014234       0x44 libraries\hal_drivers\drv_sdio.o
                0x0000000000014234                rthw_sdio_irq_process
                0x000000000001425e                sdio_isr
 .irq.usart     0x0000000000014278      0x146 libraries\hal_drivers\drv_usart.o
                0x00000000000142be                uart_irq_process
 .irq.timer     0x00000000000143be       0x22 libraries\hal_drivers\drv_hwtimer.o
                0x00000000000143be                timer1_isr
 .irq.err       0x00000000000143e0       0x30 libraries\hal_libraries\ab32vg1_hal\libhal.a(sys_err.o)
                0x00000000000143e0                sys_error_hook
 *fill*         0x0000000000014410        0x0 
 .irq.err.str   0x0000000000014410       0x12 libraries\hal_libraries\ab32vg1_hal\libhal.a(sys_err.o)
 *libcpu*cpu*context_gcc.o(.text .rodata)
 .text          0x0000000000014422      0x19c libcpu\cpu\context_gcc.o
                0x0000000000014422                rt_hw_interrupt_disable
                0x0000000000014430                rt_hw_interrupt_enable
                0x0000000000014442                rt_hw_context_switch_to
                0x0000000000014476                rt_hw_context_switch
                0x0000000000014496                rt_switch_to_thread
                0x00000000000144bc                rt_hw_context_switch_interrupt
                0x00000000000144e2                rt_soft_isr
                0x00000000000144ea                low_prio_irq
 *libcpu*cpu*interrupt.o(.text .rodata)
 .text          0x00000000000145be       0xde libcpu\cpu\interrupt.o
                0x00000000000145be                set_cpu_irq_comm
                0x00000000000145c8                cpu_irq_comm_do
                0x0000000000014600                rt_hw_irq_enable
                0x0000000000014618                rt_hw_irq_disable
                0x0000000000014634                rt_hw_interrupt_init
                0x0000000000014636                rt_hw_interrupt_install
 *hal_libraries*ab32vg1_hal**.o(.text .rodata)
 .text          0x000000000001469c      0x122 libraries\hal_libraries\ab32vg1_hal\source\ab32vg1_hal_gpio.o
                0x000000000001469c                gpio_afinit
                0x00000000000146cc                hal_gpio_init
                0x000000000001478e                hal_gpio_read
                0x0000000000014798                hal_gpio_write
                0x00000000000147b0                hal_gpio_toggle
 .text          0x00000000000147be      0x130 libraries\hal_libraries\ab32vg1_hal\source\ab32vg1_hal_uart.o
                0x00000000000147be                hal_uart_setbaud
                0x00000000000147dc                hal_uart_setparam
                0x000000000001482e                hal_uart_deinit
                0x0000000000014834                HAL_UART_MspInit
                0x0000000000014836                hal_uart_control
                0x000000000001484e                hal_uart_write
                0x0000000000014852                hal_uart_read
                0x000000000001485a                hal_uart_getflag
                0x0000000000014860                hal_uart_clrflag
                0x0000000000014868                uart_config_all
                0x00000000000148d2                hal_uart_init
 .text          0x00000000000148ee       0x54 libraries\hal_libraries\ab32vg1_hal\source\ab32vg1_hal.o
                0x00000000000148ee                hal_set_tick_hook
                0x00000000000148f8                hal_set_ticks
                0x000000000001491a                hal_udelay
 .text          0x0000000000014942       0x70 libraries\hal_libraries\ab32vg1_hal\source\ab32vg1_hal_rcu.o
                0x0000000000014942                hal_rcu_periph_clk_enable
                0x0000000000014976                hal_rcu_periph_clk_disable
 *save-restore.o(.text* .rodata*)
 .text          0x00000000000149b2      0x128 libraries\hal_libraries\ab32vg1_hal\libhal.a(save-restore.o)
                0x00000000000149b2                __riscv_save_12
                0x00000000000149d2                __riscv_save_11
                0x00000000000149ee                __riscv_save_10
                0x0000000000014a0a                __riscv_save_9
                0x0000000000014a24                __riscv_save_8
                0x0000000000014a3c                __riscv_save_7
                0x0000000000014a50                __riscv_save_6
                0x0000000000014a62                __riscv_save_5
                0x0000000000014a72                __riscv_save_4
                0x0000000000014a80                __riscv_save_3
                0x0000000000014a8c                __riscv_save_2
                0x0000000000014a96                __riscv_save_1
                0x0000000000014a9e                __riscv_save_0
                0x0000000000014aa4                __riscv_restore_12
                0x0000000000014aa8                __riscv_restore_11
                0x0000000000014aac                __riscv_restore_10
                0x0000000000014ab0                __riscv_restore_9
                0x0000000000014ab4                __riscv_restore_8
                0x0000000000014ab8                __riscv_restore_7
                0x0000000000014abc                __riscv_restore_6
                0x0000000000014ac0                __riscv_restore_5
                0x0000000000014ac4                __riscv_restore_4
                0x0000000000014ac8                __riscv_restore_3
                0x0000000000014acc                __riscv_restore_2
                0x0000000000014ad0                __riscv_restore_1
                0x0000000000014ad4                __riscv_restore_0
                0x0000000000014ada                _gp
 *(.text.unlikely)
 *(.text.startup)
 .text.startup  0x0000000000014ada       0x46 build\applications\main.o
                0x0000000000014ada                main
 *src*device.o(.text* .rodata*)
 .text          0x0000000000014b20      0x4d4 build\kernel\src\device.o
                0x0000000000014b20                rt_device_unregister
                0x0000000000014b8e                rt_device_find
                0x0000000000014b94                rt_device_register
                0x0000000000014bc8                rt_device_create
                0x0000000000014bf2                rt_device_destroy
                0x0000000000014c68                rt_device_init
                0x0000000000014cc2                rt_device_open
                0x0000000000014db0                rt_device_close
                0x0000000000014e26                rt_device_read
                0x0000000000014e94                rt_device_write
                0x0000000000014f02                rt_device_control
                0x0000000000014f5c                rt_device_set_rx_indicate
                0x0000000000014fa8                rt_device_set_tx_complete
 .rodata.str1.4
                0x0000000000014ff4       0xf4 build\kernel\src\device.o
 .rodata        0x00000000000150e8       0xc6 build\kernel\src\device.o
 *src*idle.o(.text* .rodata*)
 .text          0x00000000000151ae      0x17c build\kernel\src\idle.o
                0x00000000000151ae                rt_thread_idle_sethook
                0x00000000000151e8                rt_thread_idle_delhook
                0x0000000000015226                rt_thread_idle_excute
                0x00000000000152d2                rt_thread_idle_init
                0x0000000000015320                rt_thread_idle_gethandler
 *fill*         0x000000000001532a        0x2 
 .rodata.str1.4
                0x000000000001532c       0x30 build\kernel\src\idle.o
                                         0x34 (size before relaxing)
 .rodata        0x000000000001535c       0x16 build\kernel\src\idle.o
 *src*components.o(.text* .rodata*)
 .text          0x0000000000015372       0xe8 build\kernel\src\components.o
                0x0000000000015382                rt_components_board_init
                0x00000000000153a6                rt_components_init
                0x00000000000153ca                main_thread_entry
                0x00000000000153d8                rt_application_init
                0x0000000000015420                rtthread_startup
                0x000000000001544e                entry
 *fill*         0x000000000001545a        0x2 
 .rodata.str1.4
                0x000000000001545c       0x17 build\kernel\src\components.o
 *fill*         0x0000000000015473        0x1 
 .rodata        0x0000000000015474       0x14 build\kernel\src\components.o
 *hal_drivers**.o(.rodata)
 .rodata        0x0000000000015488       0x38 libraries\hal_drivers\drv_gpio.o
 .rodata        0x00000000000154c0       0x28 libraries\hal_drivers\drv_rtc.o
 .rodata        0x00000000000154e8       0x2f libraries\hal_drivers\drv_soft_i2c.o
 *fill*         0x0000000000015517        0x1 
 .rodata        0x0000000000015518       0x20 libraries\hal_drivers\drv_wdt.o
 .rodata        0x0000000000015538       0x24 libraries\hal_drivers\drv_sdio.o
 .rodata        0x000000000001555c       0x45 libraries\hal_drivers\drv_adc.o
 *fill*         0x00000000000155a1        0x3 
 .rodata        0x00000000000155a4       0x81 libraries\hal_drivers\drv_usart.o
 *fill*         0x0000000000015625        0x3 
 .rodata        0x0000000000015628       0x18 libraries\hal_drivers\drv_pwm.o
 .rodata        0x0000000000015640       0x68 libraries\hal_drivers\drv_hwtimer.o
 *audio*drv_sound.o(.rodata)
 .rodata        0x00000000000156a8       0x66 build\board\ports\audio\drv_sound.o
 *libcpu**.o(.rodata)
 *fill*         0x000000000001570e        0x2 
 .rodata        0x0000000000015710       0x13 libcpu\cpu\cpuport.o
 *system_ab32vgx.o(.rodata)
 *fill*         0x0000000000015723        0x1 
 .rodata        0x0000000000015724       0x46 libraries\hal_libraries\bmsis\source\system_ab32vgx.o
                0x0000000000015724                sysclk_sel_tbl
                0x0000000000015730                sysclk_index
 EXCLUDE_FILE(*drv_wdt.o *drv_sdio.o *msh_file.o *cmd.o *drivers*sdio**.o *components.o *dfs**.o *src*memheap.o *src*mem.o *cp-demangle.o *cp-demangle.o *lib_a**.o) *(.rodata.str1.4)
 *fill*         0x000000000001576a        0x2 
 .rodata.str1.4
                0x000000000001576c       0x74 build\applications\mnt.o
                                         0x78 (size before relaxing)
 .rodata.str1.4
                0x00000000000157e0       0x16 build\applications\main.o
 *fill*         0x00000000000157f6        0x2 
 .rodata.str1.4
                0x00000000000157f8       0x2f build\board\ports\audio\drv_sound.o
 *fill*         0x0000000000015827        0x1 
 .rodata.str1.4
                0x0000000000015828       0x24 build\board\board.o
 .rodata.str1.4
                0x000000000001584c       0x77 build\kernel\components\drivers\audio\audio.o
                                         0x9d (size before relaxing)
 *fill*         0x00000000000158c3        0x1 
 .rodata.str1.4
                0x00000000000158c4       0x64 build\kernel\components\drivers\audio\audio_pipe.o
                                         0x90 (size before relaxing)
 .rodata.str1.4
                0x0000000000015928       0x43 build\kernel\components\drivers\hwtimer\hwtimer.o
 *fill*         0x000000000001596b        0x1 
 .rodata.str1.4
                0x000000000001596c       0x87 build\kernel\components\drivers\i2c\i2c_core.o
                                         0x8b (size before relaxing)
 *fill*         0x00000000000159f3        0x1 
 .rodata.str1.4
                0x00000000000159f4       0x12 build\kernel\components\drivers\i2c\i2c_dev.o
                                         0x22 (size before relaxing)
 *fill*         0x0000000000015a06        0x2 
 .rodata.str1.4
                0x0000000000015a08       0xa1 build\kernel\components\drivers\i2c\i2c-bit-ops.o
                                         0xb1 (size before relaxing)
 *fill*         0x0000000000015aa9        0x3 
 .rodata.str1.4
                0x0000000000015aac      0x1f9 build\kernel\components\drivers\misc\adc.o
 *fill*         0x0000000000015ca5        0x3 
 .rodata.str1.4
                0x0000000000015ca8      0x1ab build\kernel\components\drivers\misc\rt_drv_pwm.o
 *fill*         0x0000000000015e53        0x1 
 .rodata.str1.4
                0x0000000000015e54       0x37 build\kernel\components\drivers\misc\pin.o
 *fill*         0x0000000000015e8b        0x1 
 .rodata.str1.4
                0x0000000000015e8c      0x137 build\kernel\components\drivers\rtc\rtc.o
 *fill*         0x0000000000015fc3        0x1 
 .rodata.str1.4
                0x0000000000015fc4       0xfa build\kernel\components\drivers\rtc\alarm.o
                                         0xfe (size before relaxing)
 *fill*         0x00000000000160be        0x2 
 .rodata.str1.4
                0x00000000000160c0       0xbb build\kernel\components\drivers\serial\serial.o
                                         0xce (size before relaxing)
 *fill*         0x000000000001617b        0x1 
 .rodata.str1.4
                0x000000000001617c       0x64 build\kernel\components\drivers\src\dataqueue.o
                                         0x90 (size before relaxing)
 .rodata.str1.4
                0x00000000000161e0        0xe build\kernel\components\drivers\src\ringbuffer.o
                                         0x19 (size before relaxing)
 *fill*         0x00000000000161ee        0x2 
 .rodata.str1.4
                0x00000000000161f0       0x47 build\kernel\components\drivers\src\completion.o
                                         0x72 (size before relaxing)
 *fill*         0x0000000000016237        0x1 
 .rodata.str1.4
                0x0000000000016238       0x33 build\kernel\components\drivers\watchdog\watchdog.o
                                         0x43 (size before relaxing)
 *fill*         0x000000000001626b        0x1 
 .rodata.str1.4
                0x000000000001626c       0x6c build\kernel\components\finsh\msh.o
                                         0x78 (size before relaxing)
 .rodata.str1.4
                0x00000000000162d8       0xbb build\kernel\components\finsh\shell.o
                                         0xc3 (size before relaxing)
 *fill*         0x0000000000016393        0x1 
 .rodata.str1.4
                0x0000000000016394       0xf2 build\kernel\components\finsh\finsh_error.o
 *fill*         0x0000000000016486        0x2 
 .rodata.str1.4
                0x0000000000016488       0x35 build\kernel\components\finsh\finsh_token.o
                                         0x3d (size before relaxing)
 .rodata.str1.4
                0x00000000000164bd        0x4 build\kernel\components\libc\compilers\common\time.o
 *fill*         0x00000000000164bd        0x3 
 .rodata.str1.4
                0x00000000000164c0        0x4 libraries\hal_drivers\drv_gpio.o
 .rodata.str1.4
                0x00000000000164c4       0x34 libraries\hal_drivers\drv_rtc.o
                                         0x4c (size before relaxing)
 .rodata.str1.4
                0x00000000000164f8       0x19 libraries\hal_drivers\drv_soft_i2c.o
 *fill*         0x0000000000016511        0x3 
 .rodata.str1.4
                0x0000000000016514       0x51 libraries\hal_drivers\drv_adc.o
                                         0x55 (size before relaxing)
 *fill*         0x0000000000016565        0x3 
 .rodata.str1.4
                0x0000000000016568       0x17 libraries\hal_drivers\drv_usart.o
                                         0x6e (size before relaxing)
 *fill*         0x000000000001657f        0x1 
 .rodata.str1.4
                0x0000000000016580       0x52 libraries\hal_drivers\drv_pwm.o
                                         0x6a (size before relaxing)
 *fill*         0x00000000000165d2        0x2 
 .rodata.str1.4
                0x00000000000165d4       0x73 libraries\hal_drivers\drv_hwtimer.o
                                         0xaf (size before relaxing)
 *fill*         0x0000000000016647        0x1 
 .rodata.str1.4
                0x0000000000016648        0xd libcpu\cpu\cpuport.o
                                         0x12 (size before relaxing)
 EXCLUDE_FILE(*unwind*.o *lib_a**.o) *(.srodata)
 *fill*         0x0000000000016655        0x3 
 .srodata       0x0000000000016658        0x8 build\kernel\src\mem.o
 .srodata       0x0000000000016660        0x7 build\kernel\components\dfs\src\dfs.o
 *fill*         0x0000000000016667        0x1 
 .srodata       0x0000000000016668        0x8 libraries\hal_drivers\drv_soft_i2c.o
 .srodata       0x0000000000016670        0x8 libraries\hal_drivers\drv_adc.o
 *(.rela*)
 .rela.text     0x0000000000016678        0x0 build\applications\mnt.o
 .rela.text.startup
                0x0000000000016678        0x0 build\applications\mnt.o
 .rela.reset    0x0000000000016678        0x0 build\applications\mnt.o
 .rela.vector   0x0000000000016678        0x0 build\applications\mnt.o
 *(.data*)
 .data          0x0000000000016678       0x1c build\board\ports\audio\drv_sound.o
 .data          0x0000000000016694       0xa0 build\kernel\src\object.o
 .data          0x0000000000016734      0x100 build\kernel\components\dfs\src\dfs.o
                0x0000000000016734                working_directory
 .data          0x0000000000016834       0x3c libraries\hal_drivers\drv_adc.o
 .data          0x0000000000016870        0xc libraries\hal_drivers\drv_usart.o
 .data          0x000000000001687c       0x48 libraries\hal_drivers\drv_pwm.o
 .data          0x00000000000168c4       0x5c libraries\hal_drivers\drv_hwtimer.o
 *fill*         0x0000000000016920        0x0 
 .data          0x0000000000016920      0x428 d:/program_files/programming/rt-threadstudio/repo/extract/toolchain_support_packages/risc-v/risc-v-gcc/10.1.0/bin/../lib/gcc/riscv64-unknown-elf/10.1.0/../../../../riscv64-unknown-elf/lib/rv32im/ilp32\libc.a(lib_a-impure.o)
 *(.sdata*)
 .sdata         0x0000000000016d48        0x1 build\kernel\src\timer.o
 *fill*         0x0000000000016d49        0x3 
 .sdata         0x0000000000016d4c        0x8 build\kernel\components\drivers\sdio\block_dev.o
 .sdata         0x0000000000016d54       0x10 build\kernel\components\drivers\sdio\sdio.o
 .sdata         0x0000000000016d64        0x4 build\kernel\components\finsh\msh.o
 .sdata         0x0000000000016d68        0x1 libraries\hal_drivers\drv_sdio.o
 *fill*         0x0000000000016d69        0x3 
 .sdata         0x0000000000016d6c        0x4 libraries\hal_drivers\drv_pwm.o
 .sdata         0x0000000000016d70        0x4 d:/program_files/programming/rt-threadstudio/repo/extract/toolchain_support_packages/risc-v/risc-v-gcc/10.1.0/bin/../lib/gcc/riscv64-unknown-elf/10.1.0/../../../../riscv64-unknown-elf/lib/rv32im/ilp32\libc.a(lib_a-impure.o)
                0x0000000000016d70                _impure_ptr

.bss            0x0000000000011000     0x197c
                0x0000000000011000                __bss_start = .
 *(COMMON)
 *(.bss)
 .bss           0x0000000000011000       0x58 build\board\ports\audio\drv_sound.o
 .bss           0x0000000000011058       0xa4 build\board\board.o
 .bss           0x00000000000110fc       0x20 build\kernel\src\mem.o
 .bss           0x000000000001111c       0x80 build\kernel\src\kservice.o
 .bss           0x000000000001119c      0x100 build\kernel\src\scheduler.o
                0x000000000001119c                rt_thread_priority_table
 *fill*         0x000000000001129c        0x4 
 .bss           0x00000000000112a0      0x180 build\kernel\src\timer.o
 .bss           0x0000000000011420      0x290 build\kernel\src\idle.o
 .bss           0x00000000000116b0       0x44 build\kernel\components\dfs\src\dfs.o
                0x00000000000116b0                filesystem_table
 .bss           0x00000000000116f4      0x128 build\kernel\components\dfs\src\dfs_file.o
 .bss           0x000000000001181c       0x34 build\kernel\components\drivers\misc\pin.o
 .bss           0x0000000000011850       0x50 build\kernel\components\drivers\rtc\alarm.o
 .bss           0x00000000000118a0      0x500 build\kernel\components\drivers\sdio\mmcsd_core.o
 .bss           0x0000000000011da0      0x140 build\kernel\components\finsh\finsh_node.o
                0x0000000000011da0                global_node_table
 .bss           0x0000000000011ee0      0x180 build\kernel\components\finsh\finsh_vm.o
                0x0000000000011ee0                finsh_vm_stack
                0x0000000000011fe0                text_segment
 .bss           0x0000000000012060       0x81 build\kernel\components\finsh\shell.o
 *fill*         0x00000000000120e1        0x3 
 .bss           0x00000000000120e4       0xc0 build\kernel\components\finsh\finsh_var.o
                0x00000000000120e4                global_variable
 *fill*         0x00000000000121a4        0x4 
 .bss           0x00000000000121a8       0x80 build\kernel\components\finsh\finsh_heap.o
                0x00000000000121a8                finsh_heap
 .bss           0x0000000000012228       0x61 build\kernel\components\libc\compilers\common\time.o
 *fill*         0x0000000000012289        0x3 
 .bss           0x000000000001228c       0x30 libraries\hal_drivers\drv_rtc.o
 .bss           0x00000000000122bc       0x88 libraries\hal_drivers\drv_soft_i2c.o
 .bss           0x0000000000012344       0x34 libraries\hal_drivers\drv_wdt.o
 *fill*         0x0000000000012378        0x8 
 .bss           0x0000000000012380      0x400 libraries\hal_drivers\drv_sdio.o
 .bss           0x0000000000012780       0x58 libraries\hal_drivers\drv_usart.o
 .bss           0x00000000000127d8       0x5c libcpu\cpu\interrupt.o
                0x00000000000127d8                tbl_irq_vector
 .bss           0x0000000000012834        0xc libraries\hal_libraries\bmsis\source\system_ab32vgx.o
                0x0000000000012834                sys
 *(.sbss)
 .sbss          0x0000000000012840        0xc build\kernel\src\thread.o
 .sbss          0x000000000001284c       0x20 build\kernel\src\mem.o
 .sbss          0x000000000001286c       0x14 build\kernel\src\object.o
                0x000000000001286c                rt_object_put_hook
                0x0000000000012870                rt_object_take_hook
                0x0000000000012874                rt_object_trytake_hook
 .sbss          0x0000000000012880        0xc build\kernel\src\kservice.o
                0x0000000000012880                rt_assert_hook
 .sbss          0x000000000001288c       0x1c build\kernel\src\scheduler.o
                0x0000000000012890                rt_thread_defunct
                0x0000000000012898                rt_current_priority
                0x000000000001289c                rt_current_thread
                0x00000000000128a4                rt_thread_ready_priority_group
 .sbss          0x00000000000128a8       0x1c build\kernel\src\timer.o
 .sbss          0x00000000000128c4        0xc build\kernel\src\irq.o
                0x00000000000128c4                rt_interrupt_nest
 .sbss          0x00000000000128d0        0x8 build\kernel\src\mempool.o
 .sbss          0x00000000000128d8        0x4 build\kernel\src\clock.o
 .sbss          0x00000000000128dc       0x14 build\kernel\components\dfs\src\dfs.o
                0x00000000000128e8                filesystem_operation_table
 .sbss          0x00000000000128f0        0xc build\kernel\components\dfs\filesystems\elmfat\ff.o
 .sbss          0x00000000000128fc        0x8 build\kernel\components\dfs\filesystems\elmfat\dfs_elm.o
 .sbss          0x0000000000012904        0x4 build\kernel\components\drivers\misc\adc.o
 .sbss          0x0000000000012908        0x4 build\kernel\components\drivers\serial\serial.o
 .sbss          0x000000000001290c        0x4 build\kernel\components\finsh\cmd.o
 .sbss          0x0000000000012910        0xc build\kernel\components\finsh\finsh_vm.o
                0x0000000000012910                global_syscall_list
                0x0000000000012914                finsh_pc
                0x0000000000012918                finsh_sp
 .sbss          0x000000000001291c       0x18 build\kernel\components\finsh\shell.o
                0x0000000000012920                shell
                0x0000000000012924                _sysvar_table_end
                0x0000000000012928                _sysvar_table_begin
                0x000000000001292c                _syscall_table_end
                0x0000000000012930                _syscall_table_begin
 .sbss          0x0000000000012934        0x4 build\kernel\components\finsh\finsh_var.o
                0x0000000000012934                global_sysvar_list
 .sbss          0x0000000000012938        0x8 build\kernel\components\finsh\finsh_compiler.o
                0x0000000000012938                finsh_compile_pc
                0x000000000001293c                finsh_compile_sp
 .sbss          0x0000000000012940        0x8 build\kernel\components\finsh\finsh_heap.o
 .sbss          0x0000000000012948        0x1 build\kernel\components\finsh\finsh_error.o
                0x0000000000012948                global_errno
 *fill*         0x0000000000012949        0x3 
 .sbss          0x000000000001294c        0x4 build\kernel\components\libc\compilers\common\time.o
 .sbss          0x0000000000012950        0x8 libraries\hal_drivers\drv_wdt.o
 .sbss          0x0000000000012958        0x4 libraries\hal_drivers\drv_sdio.o
 .sbss          0x000000000001295c       0x10 libcpu\cpu\cpuport.o
                0x000000000001295c                rt_cur_thread_sp
                0x0000000000012960                rt_thread_switch_interrupt_flag
                0x0000000000012964                rt_interrupt_to_thread
                0x0000000000012968                rt_interrupt_from_thread
 .sbss          0x000000000001296c        0x8 libcpu\cpu\interrupt.o
                0x000000000001296c                cpu_irq_comm_hook
                0x0000000000012970                irq_mask
 .sbss          0x0000000000012974        0x8 libraries\hal_libraries\ab32vg1_hal\source\ab32vg1_hal.o
 *(.buf*)
                0x000000000001297c                __bss_end = .
                0x000000000000197c                __bss_size = (__bss_end - __bss_start)

.stack          0x0000000000013000     0x1000
                0x0000000000013000                __irq_stack_start = .
                0x0000000000001000                . = __stack_ram_size
 *fill*         0x0000000000013000     0x1000 
                0x0000000000014000                __irq_stack = .
                0x0000000000001000                __irq_stack_size = (__irq_stack - __irq_stack_start)

.heap           0x0000000000028c00     0x7400
                0x0000000000028c00                __heap_start = .
                0x0000000000007400                . = __heap_ram_size
 *fill*         0x0000000000028c00     0x7400 
                0x0000000000030000                __heap_end = .

.flash          0x0000000010008d08    0x1d6f8
                0x0000000010008d08                . = ALIGN (0x4)
                0x0000000010008d08                __fsymtab_start = .
 *(FSymTab)
 FSymTab        0x0000000010008d08        0xc build\kernel\src\mem.o
                0x0000000010008d08                __fsym_list_mem
 FSymTab        0x0000000010008d14        0xc build\kernel\src\memheap.o
                0x0000000010008d14                __fsym___cmd_memheaptrace
 FSymTab        0x0000000010008d20       0x18 build\kernel\components\dfs\src\dfs_posix.o
                0x0000000010008d20                __fsym_cd
                0x0000000010008d2c                __fsym_mkdir
 FSymTab        0x0000000010008d38       0x18 build\kernel\components\dfs\src\dfs_fs.o
                0x0000000010008d38                __fsym_df
                0x0000000010008d44                __fsym_mkfs
 FSymTab        0x0000000010008d50        0xc build\kernel\components\dfs\src\dfs.o
                0x0000000010008d50                __fsym___cmd_list_fd
 FSymTab        0x0000000010008d5c       0x30 build\kernel\components\dfs\src\dfs_file.o
                0x0000000010008d5c                __fsym_copy
                0x0000000010008d68                __fsym_cat
                0x0000000010008d74                __fsym_rm
                0x0000000010008d80                __fsym_ls
 FSymTab        0x0000000010008d8c        0xc build\kernel\components\drivers\misc\adc.o
                0x0000000010008d8c                __fsym___cmd_adc
 FSymTab        0x0000000010008d98       0x48 build\kernel\components\drivers\misc\rt_drv_pwm.o
                0x0000000010008d98                __fsym___cmd_pwm_get
                0x0000000010008da4                __fsym___cmd_pwm_set
                0x0000000010008db0                __fsym___cmd_pwm_disable
                0x0000000010008dbc                __fsym___cmd_pwm_enable
                0x0000000010008dc8                __fsym_pwm_set
                0x0000000010008dd4                __fsym_pwm_enable
 FSymTab        0x0000000010008de0       0x30 build\kernel\components\drivers\misc\pin.o
                0x0000000010008de0                __fsym_pinGet
                0x0000000010008dec                __fsym_pinRead
                0x0000000010008df8                __fsym_pinWrite
                0x0000000010008e04                __fsym_pinMode
 FSymTab        0x0000000010008e10       0x3c build\kernel\components\drivers\rtc\rtc.o
                0x0000000010008e10                __fsym___cmd_date
                0x0000000010008e1c                __fsym___cmd_list_date
                0x0000000010008e28                __fsym_set_time
                0x0000000010008e34                __fsym_set_date
                0x0000000010008e40                __fsym_list_date
 FSymTab        0x0000000010008e4c        0xc build\kernel\components\drivers\rtc\alarm.o
                0x0000000010008e4c                __fsym___cmd_alarm_dump
 FSymTab        0x0000000010008e58      0x138 build\kernel\components\finsh\cmd.o
                0x0000000010008e58                __fsym_list
                0x0000000010008e64                __fsym___cmd_list_device
                0x0000000010008e70                __fsym_list_device
                0x0000000010008e7c                __fsym___cmd_list_timer
                0x0000000010008e88                __fsym_list_timer
                0x0000000010008e94                __fsym___cmd_list_mempool
                0x0000000010008ea0                __fsym_list_mempool
                0x0000000010008eac                __fsym___cmd_list_memheap
                0x0000000010008eb8                __fsym_list_memheap
                0x0000000010008ec4                __fsym___cmd_list_msgqueue
                0x0000000010008ed0                __fsym_list_msgqueue
                0x0000000010008edc                __fsym___cmd_list_mailbox
                0x0000000010008ee8                __fsym_list_mailbox
                0x0000000010008ef4                __fsym___cmd_list_mutex
                0x0000000010008f00                __fsym_list_mutex
                0x0000000010008f0c                __fsym___cmd_list_event
                0x0000000010008f18                __fsym_list_event
                0x0000000010008f24                __fsym___cmd_list_sem
                0x0000000010008f30                __fsym_list_sem
                0x0000000010008f3c                __fsym___cmd_list_thread
                0x0000000010008f48                __fsym_list_thread
                0x0000000010008f54                __fsym___cmd_version
                0x0000000010008f60                __fsym_version
                0x0000000010008f6c                __fsym___cmd_clear
                0x0000000010008f78                __fsym_clear
                0x0000000010008f84                __fsym_hello
 FSymTab        0x0000000010008f90       0x9c build\kernel\components\finsh\msh_file.o
                0x0000000010008f90                __fsym___cmd_echo
                0x0000000010008f9c                __fsym___cmd_df
                0x0000000010008fa8                __fsym___cmd_umount
                0x0000000010008fb4                __fsym___cmd_mount
                0x0000000010008fc0                __fsym___cmd_mkfs
                0x0000000010008fcc                __fsym___cmd_mkdir
                0x0000000010008fd8                __fsym___cmd_pwd
                0x0000000010008fe4                __fsym___cmd_cd
                0x0000000010008ff0                __fsym___cmd_rm
                0x0000000010008ffc                __fsym___cmd_cat
                0x0000000010009008                __fsym___cmd_mv
                0x0000000010009014                __fsym___cmd_cp
                0x0000000010009020                __fsym___cmd_ls
 FSymTab        0x000000001000902c       0x3c build\kernel\components\finsh\msh.o
                0x000000001000902c                __fsym___cmd_free
                0x0000000010009038                __fsym___cmd_ps
                0x0000000010009044                __fsym___cmd_help
                0x0000000010009050                __fsym_msh
                0x000000001000905c                __fsym___cmd_exit
                0x0000000010009068                __fsymtab_end = .
                0x0000000010009068                . = ALIGN (0x4)
                0x0000000010009068                __vsymtab_start = .
 *(VSymTab)
 VSymTab        0x0000000010009068       0x10 build\kernel\components\finsh\cmd.o
                0x0000000010009068                __vsym_dummy
                0x0000000010009078                __vsymtab_end = .
                0x0000000010009078                . = ALIGN (0x4)
 *(.text*)
 .text          0x0000000010009078       0xf8 build\applications\mnt.o
                0x0000000010009078                sd_mount
                0x0000000010009100                ab32_sdcard_mount
 .text          0x0000000010009170      0x66c build\board\ports\audio\drv_sound.o
                0x000000001000937a                adpll_init
                0x000000001000942c                dac_start
                0x00000000100094ee                audio_sem_pend
                0x0000000010009500                sound_transmit
                0x0000000010009562                saia_frequency_set
                0x00000000100095bc                saia_channels_set
                0x000000001000965c                saia_volume_set
                0x000000001000972a                saia_volume_get
 .text          0x00000000100097dc      0x1c8 build\board\board.o
                0x00000000100097dc                timer0_cfg
                0x00000000100097f0                hal_printf
                0x000000001000987c                timer0_init
                0x00000000100098a4                hal_mdelay
                0x00000000100098ac                rt_hw_systick_init
                0x0000000010009954                rt_hw_board_init
                0x00000000100099a2                rt_hw_us_delay
 .text          0x00000000100099a4      0x15c build\board\ab32vg1_hal_msp.o
                0x00000000100099a4                hal_uart_mspinit
                0x0000000010009a7e                hal_sd_mspinit
                0x0000000010009ace                hal_pwm_mspinit
 .text          0x0000000010009b00      0x802 build\kernel\src\mem.o
                0x0000000010009b00                list_mem
                0x0000000010009c42                rt_malloc_sethook
                0x0000000010009c4c                rt_free_sethook
                0x0000000010009c56                rt_system_heap_init
                0x0000000010009d52                rt_malloc
                0x0000000010009f74                rt_calloc
                0x0000000010009fa4                rt_free
                0x000000001000a178                rt_realloc
                0x000000001000a2dc                rt_memory_info
 .text          0x000000001000a302      0x824 build\kernel\src\memheap.o
                0x000000001000a302                rt_memheap_init
                0x000000001000a3d6                rt_memheap_detach
                0x000000001000a472                rt_memheap_alloc
                0x000000001000a5de                rt_memheap_free
                0x000000001000a738                rt_memheap_realloc
                0x000000001000a96a                rt_memheap_dump
                0x000000001000aaba                memheaptrace
 .text          0x000000001000ab26      0x70a build\kernel\components\dfs\src\dfs_posix.o
                0x000000001000ab26                mkdir
                0x000000001000ab98                open
                0x000000001000ac04                close
                0x000000001000ac46                read
                0x000000001000ac92                write
                0x000000001000acde                lseek
                0x000000001000ad4c                rename
                0x000000001000ad72                unlink
                0x000000001000ad98                stat
                0x000000001000adbe                fstat
                0x000000001000ae10                fsync
                0x000000001000ae44                fcntl
                0x000000001000ae96                ioctl
                0x000000001000aeb2                ftruncate
                0x000000001000af06                statfs
                0x000000001000af2c                rmdir
                0x000000001000af2e                opendir
                0x000000001000afb4                readdir
                0x000000001000b03a                telldir
                0x000000001000b076                seekdir
                0x000000001000b0bc                rewinddir
                0x000000001000b0fc                closedir
                0x000000001000b146                chdir
                0x000000001000b1e0                access
                0x000000001000b1fa                getcwd
 .text          0x000000001000b230      0x740 build\kernel\components\dfs\src\dfs_fs.o
                0x000000001000b230                dfs_register
                0x000000001000b2d6                dfs_filesystem_lookup
                0x000000001000b380                dfs_filesystem_get_mounted_path
                0x000000001000b3c4                dfs_filesystem_get_partition
                0x000000001000b4e6                dfs_mount
                0x000000001000b6b6                dfs_unmount
                0x000000001000b756                dfs_mkfs
                0x000000001000b862                mkfs
                0x000000001000b864                dfs_statfs
                0x000000001000b890                df
 .text          0x000000001000b970      0x684 build\kernel\components\dfs\src\dfs.o
                0x000000001000b970                list_fd
                0x000000001000baac                dfs_init
                0x000000001000bb6e                dfs_lock
                0x000000001000bbb6                dfs_unlock
                0x000000001000bbc6                fd_new
                0x000000001000bcc6                fd_get
                0x000000001000bd1c                fd_put
                0x000000001000bd88                dfs_subdir
                0x000000001000bdcc                dfs_normalize_path
                0x000000001000bf4c                fd_is_open
                0x000000001000bfea                dfs_fdtable_get
 .text          0x000000001000bff4      0x936 build\kernel\components\dfs\src\dfs_file.o
                0x000000001000bff4                dfs_file_open
                0x000000001000c0c8                dfs_file_close
                0x000000001000c0fc                dfs_file_ioctl
                0x000000001000c142                dfs_file_read
                0x000000001000c17a                cat
                0x000000001000c208                dfs_file_getdents
                0x000000001000c228                dfs_file_unlink
                0x000000001000c2a2                rm
                0x000000001000c2d0                dfs_file_write
                0x000000001000c3b0                dfs_file_flush
                0x000000001000c3c4                dfs_file_lseek
                0x000000001000c3f4                dfs_file_stat
                0x000000001000c500                ls
                0x000000001000c754                copy
                0x000000001000c858                dfs_file_rename
                0x000000001000c8e6                dfs_file_ftruncate
 .text          0x000000001000c92a      0x3ea build\kernel\components\dfs\filesystems\devfs\devfs.o
                0x000000001000c92a                dfs_device_fs_mount
                0x000000001000c932                dfs_device_fs_ioctl
                0x000000001000c994                dfs_device_fs_read
                0x000000001000ca02                dfs_device_fs_write
                0x000000001000ca70                dfs_device_fs_close
                0x000000001000cb06                dfs_device_fs_stat
                0x000000001000cb7a                dfs_device_fs_open
                0x000000001000cc62                dfs_device_fs_getdents
                0x000000001000ccf6                devfs_init
 .text          0x000000001000cd14     0x2f98 build\kernel\components\dfs\filesystems\elmfat\ff.o
                0x000000001000e40e                f_mount
                0x000000001000e49a                f_open
                0x000000001000e6b6                f_read
                0x000000001000e874                f_write
                0x000000001000ea76                f_sync
                0x000000001000eb3e                f_close
                0x000000001000eb74                f_lseek
                0x000000001000edfa                f_opendir
                0x000000001000eea6                f_closedir
                0x000000001000eed4                f_readdir
                0x000000001000ef5c                f_seekdir
                0x000000001000ef9e                f_stat
                0x000000001000f014                f_getfree
                0x000000001000f116                f_truncate
                0x000000001000f1f6                f_unlink
                0x000000001000f2c8                f_mkdir
                0x000000001000f40a                f_rename
                0x000000001000f55a                f_mkfs
                0x000000001000fc8c                elm_get_vol
 .text          0x000000001000fcac      0x11e build\kernel\components\dfs\filesystems\elmfat\ffunicode.o
                0x000000001000fcac                ff_uni2oem
                0x000000001000fcf8                ff_oem2uni
                0x000000001000fd26                ff_wtoupper
 .text          0x000000001000fdca      0xc10 build\kernel\components\dfs\filesystems\elmfat\dfs_elm.o
                0x000000001000fe04                dfs_elm_mount
                0x000000001000ff0e                dfs_elm_unmount
                0x000000001000ff98                dfs_elm_mkfs
                0x00000000100100c8                dfs_elm_statfs
                0x0000000010010168                dfs_elm_open
                0x000000001001028c                dfs_elm_close
                0x0000000010010308                dfs_elm_ioctl
                0x000000001001036a                dfs_elm_read
                0x00000000100103ca                dfs_elm_write
                0x000000001001042e                dfs_elm_flush
                0x0000000010010466                dfs_elm_lseek
                0x00000000100104f8                dfs_elm_getdents
                0x00000000100105c8                dfs_elm_unlink
                0x000000001001062a                dfs_elm_rename
                0x0000000010010690                dfs_elm_stat
                0x000000001001076c                elm_init
                0x000000001001078a                disk_initialize
                0x000000001001078e                disk_status
                0x0000000010010792                disk_read
                0x00000000100107ca                disk_write
                0x0000000010010802                disk_ioctl
                0x00000000100108de                get_fattime
                0x0000000010010948                ff_cre_syncobj
                0x000000001001098a                ff_del_syncobj
                0x00000000100109aa                ff_req_grant
                0x00000000100109ca                ff_rel_grant
                0x00000000100109d2                ff_memalloc
                0x00000000100109d6                ff_memfree
 .text          0x00000000100109da      0x84e build\kernel\components\drivers\audio\audio.o
                0x0000000010010f4e                rt_audio_register
                0x0000000010010fbe                rt_audio_samplerate_to_speed
                0x000000001001108c                rt_audio_tx_complete
                0x00000000100111fa                rt_audio_rx_done
 .text          0x0000000010011228      0x43c build\kernel\components\drivers\audio\audio_pipe.o
                0x000000001001155c                rt_audio_pipe_init
                0x00000000100115f2                rt_audio_pipe_detach
                0x00000000100115fa                rt_audio_pipe_create
                0x0000000010011640                rt_audio_pipe_destroy
 .text          0x0000000010011664      0x1de build\kernel\components\drivers\i2c\i2c_core.o
                0x0000000010011664                rt_i2c_core_init
                0x0000000010011668                rt_i2c_bus_device_register
                0x00000000100116d8                rt_i2c_bus_device_find
                0x0000000010011734                rt_i2c_transfer
                0x00000000100117b2                rt_i2c_master_send
                0x00000000100117e4                rt_i2c_master_recv
 .text          0x0000000010011842      0x1bc build\kernel\components\drivers\i2c\i2c_dev.o
                0x00000000100119ac                rt_i2c_bus_device_device_init
 .text          0x00000000100119fe      0x4a8 build\kernel\components\drivers\i2c\i2c-bit-ops.o
                0x0000000010011e98                rt_i2c_bit_add_bus
 .text          0x0000000010011ea6      0x3d2 build\kernel\components\drivers\misc\adc.o
                0x0000000010011f14                rt_hw_adc_register
                0x0000000010011f78                rt_adc_read
                0x0000000010011fbc                rt_adc_enable
                0x0000000010011ffe                rt_adc_disable
 .text          0x0000000010012278      0x3c2 build\kernel\components\drivers\misc\rt_drv_pwm.o
                0x000000001001230c                rt_pwm_enable
                0x000000001001234a                rt_pwm_set
                0x0000000010012452                rt_device_pwm_register
                0x000000001001249c                rt_pwm_disable
                0x0000000010012536                rt_pwm_get
 .text          0x000000001001263a      0x280 build\kernel\components\drivers\rtc\rtc.o
                0x000000001001263a                set_date
                0x00000000100126b8                set_time
                0x0000000010012730                list_date
 .text          0x00000000100128ba      0x8f6 build\kernel\components\drivers\rtc\alarm.o
                0x0000000010012b36                rt_alarm_dump
                0x0000000010012c06                rt_alarm_system_init
                0x0000000010012eea                rt_alarm_update
                0x0000000010012efc                rt_alarm_start
                0x0000000010012faa                rt_alarm_stop
                0x0000000010013014                rt_alarm_control
                0x00000000100130c0                rt_alarm_delete
                0x0000000010013130                rt_alarm_create
 .text          0x00000000100131b0      0x896 build\kernel\components\drivers\sdio\mmc.o
                0x00000000100132de                mmc_send_op_cond
                0x0000000010013366                init_mmc
 .text          0x0000000010013a46      0xa1c build\kernel\components\drivers\sdio\sd.o
                0x0000000010013aec                mmcsd_send_app_cmd
                0x0000000010013b62                mmcsd_app_set_bus_width
                0x0000000010013bac                mmcsd_send_app_op_cond
                0x0000000010013c3c                mmcsd_send_if_cond
                0x0000000010013c96                mmcsd_get_card_addr
                0x0000000010013cdc                mmcsd_get_scr
                0x0000000010013dae                init_sd
 .text          0x0000000010014462      0x6f2 build\kernel\components\drivers\sdio\block_dev.o
                0x0000000010014774                mmcsd_num_wr_blocks
                0x0000000010014878                rt_mmcsd_blk_probe
                0x0000000010014ae6                rt_mmcsd_blk_remove
                0x0000000010014b50                rt_mmcsd_blk_init
 .text          0x0000000010014b54     0x1418 build\kernel\components\drivers\sdio\sdio.o
                0x0000000010014bda                sdio_io_send_op_cond
                0x0000000010014c76                sdio_io_rw_direct
                0x0000000010014d8e                sdio_io_rw_extended
                0x0000000010014f32                sdio_io_rw_extended_block
                0x000000001001505c                sdio_io_readb
                0x0000000010015370                sdio_io_writeb
                0x000000001001539a                sdio_io_readw
                0x00000000100153cc                sdio_io_writew
                0x00000000100153ec                sdio_io_readl
                0x000000001001541c                sdio_io_writel
                0x000000001001543c                sdio_io_read_multi_fifo_b
                0x0000000010015448                sdio_io_write_multi_fifo_b
                0x0000000010015454                sdio_io_read_multi_incr_b
                0x0000000010015460                sdio_io_write_multi_incr_b
                0x000000001001546c                sdio_free_cis
                0x00000000100154a2                init_sdio
                0x0000000010015a58                sdio_attach_irq
                0x0000000010015b60                sdio_detach_irq
                0x0000000010015c52                sdio_irq_wakeup
                0x0000000010015c80                sdio_enable_func
                0x0000000010015d4a                sdio_disable_func
                0x0000000010015dd0                sdio_set_drvdata
                0x0000000010015dd4                sdio_get_drvdata
                0x0000000010015dd8                sdio_set_block_size
                0x0000000010015e42                sdio_register_driver
                0x0000000010015eca                sdio_unregister_driver
                0x0000000010015f6a                rt_sdio_init
 .text          0x0000000010015f6c      0xa22 build\kernel\components\drivers\sdio\mmcsd_core.o
                0x0000000010015f90                rt_mmcsd_core_init
                0x000000001001606e                mmcsd_host_lock
                0x000000001001607c                mmcsd_host_unlock
                0x0000000010016088                mmcsd_req_complete
                0x0000000010016094                mmcsd_send_request
                0x00000000100160f4                mmcsd_send_cmd
                0x0000000010016184                mmcsd_go_idle
                0x00000000100161fa                mmcsd_detect
                0x0000000010016398                mmcsd_spi_read_ocr
                0x00000000100163e2                mmcsd_all_get_cid
                0x0000000010016432                mmcsd_get_cid
                0x0000000010016562                mmcsd_get_csd
                0x000000001001668c                mmcsd_select_card
                0x0000000010016692                mmcsd_deselect_cards
                0x0000000010016698                mmcsd_spi_use_crc
                0x00000000100166da                mmcsd_set_chip_select
                0x00000000100166e0                mmcsd_set_clock
                0x0000000010016730                mmcsd_set_bus_mode
                0x0000000010016736                mmcsd_set_bus_width
                0x000000001001673c                mmcsd_set_data_timeout
                0x0000000010016804                mmcsd_select_voltage
                0x0000000010016876                mmcsd_wait_cd_changed
                0x00000000100168ac                mmcsd_change
                0x00000000100168be                mmcsd_alloc_host
                0x000000001001695e                mmcsd_free_host
 .text          0x000000001001698e      0x6f4 build\kernel\components\drivers\serial\serial.o
                0x0000000010016ed2                rt_hw_serial_register
                0x0000000010016f34                rt_hw_serial_isr
 .text          0x0000000010017082      0x7a4 build\kernel\components\drivers\src\dataqueue.o
                0x0000000010017082                rt_data_queue_init
                0x000000001001710e                rt_data_queue_push
                0x00000000100172fe                rt_data_queue_peek
                0x00000000100173a2                rt_data_queue_reset
                0x000000001001748c                rt_data_queue_deinit
                0x0000000010017506                rt_data_queue_len
                0x00000000100175a8                rt_data_queue_pop
 .text          0x0000000010017826      0x680 build\kernel\components\drivers\src\ringbuffer.o
                0x0000000010017826                rt_ringbuffer_init
                0x0000000010017888                rt_ringbuffer_putchar_force
                0x0000000010017936                rt_ringbuffer_data_len
                0x000000001001796e                rt_ringbuffer_put
                0x0000000010017a38                rt_ringbuffer_put_force
                0x0000000010017b5e                rt_ringbuffer_get
                0x0000000010017c44                rt_ringbuffer_peak
                0x0000000010017cce                rt_ringbuffer_putchar
                0x0000000010017d4a                rt_ringbuffer_getchar
                0x0000000010017dd6                rt_ringbuffer_reset
                0x0000000010017e0a                rt_ringbuffer_create
                0x0000000010017e6a                rt_ringbuffer_destroy
 .text          0x0000000010017ea6      0x204 build\kernel\components\drivers\src\completion.o
                0x0000000010017ea6                rt_completion_init
                0x0000000010017ef0                rt_completion_wait
                0x0000000010018034                rt_completion_done
 .text          0x00000000100180aa      0x130 build\kernel\components\drivers\watchdog\watchdog.o
                0x0000000010018178                rt_hw_watchdog_register
 .text          0x00000000100181da      0x1be build\kernel\components\finsh\finsh_node.o
                0x00000000100181da                finsh_node_init
                0x0000000010018202                finsh_node_allocate
                0x0000000010018234                finsh_node_new_id
                0x000000001001829c                finsh_node_new_char
                0x00000000100182c4                finsh_node_new_int
                0x00000000100182ea                finsh_node_new_long
                0x0000000010018310                finsh_node_new_string
                0x0000000010018372                finsh_node_new_ptr
 .text          0x0000000010018398      0x7f2 build\kernel\components\finsh\finsh_parser.o
                0x0000000010018ade                finsh_parser_run
                0x0000000010018b6a                finsh_parser_init
 .text          0x0000000010018b8a      0xf72 build\kernel\components\finsh\cmd.o
                0x0000000010018bd6                hello
                0x0000000010018c64                version
                0x0000000010018c7e                list
                0x0000000010018e2a                list_timer
                0x0000000010018f32                list_thread
                0x000000001001908c                list_sem
                0x00000000100191a2                list_event
                0x00000000100192ae                list_mutex
                0x0000000010019388                list_mailbox
                0x00000000100194ac                list_msgqueue
                0x00000000100195c8                list_memheap
                0x000000001001969a                list_mempool
                0x00000000100197b2                list_device
                0x00000000100198a0                list_prefix
 .text          0x0000000010019afc      0x102 build\kernel\components\finsh\finsh_vm.o
                0x0000000010019afc                finsh_vm_run
                0x0000000010019b58                finsh_syscall_append
                0x0000000010019b9a                finsh_syscall_lookup
 .text          0x0000000010019bfe      0x8e6 build\kernel\components\finsh\msh_file.o
                0x0000000010019bfe                cmd_ls
                0x0000000010019c26                cmd_pwd
                0x0000000010019d80                cmd_rm
                0x0000000010019eac                cmd_mkfs
                0x0000000010019f1a                cmd_mount
                0x0000000010019fee                cmd_umount
                0x000000001001a052                cmd_cp
                0x000000001001a096                cmd_mv
                0x000000001001a190                cmd_cat
                0x000000001001a1e4                cmd_cd
                0x000000001001a230                cmd_mkdir
                0x000000001001a274                cmd_df
                0x000000001001a2d8                cmd_echo
                0x000000001001a35e                msh_exec_script
 .text          0x000000001001a4e4      0x564 build\kernel\components\finsh\msh.o
                0x000000001001a4fe                msh_help
                0x000000001001a57e                cmd_ps
                0x000000001001a594                cmd_free
                0x000000001001a5aa                msh_is_used
                0x000000001001a5b4                msh_exec
                0x000000001001a792                msh_auto_complete_path
                0x000000001001a952                msh_auto_complete
 .text          0x000000001001aa48      0xa96 build\kernel\components\finsh\shell.o
                0x000000001001aa8c                finsh_set_prompt
                0x000000001001aad8                finsh_get_prompt
                0x000000001001abd0                finsh_get_prompt_mode
                0x000000001001ac10                finsh_set_prompt_mode
                0x000000001001ac5c                finsh_system_init
                0x000000001001ad26                finsh_set_device
                0x000000001001adec                finsh_get_device
                0x000000001001ae2a                finsh_set_echo
                0x000000001001ae74                finsh_get_echo
                0x000000001001aeb2                finsh_run_line
                0x000000001001af88                finsh_thread_entry
                0x000000001001b4ba                finsh_system_function_init
                0x000000001001b4cc                finsh_system_var_init
 .text          0x000000001001b4de      0x1ce build\kernel\components\finsh\finsh_var.o
                0x000000001001b4de                finsh_var_init
                0x000000001001b506                finsh_var_insert
                0x000000001001b576                finsh_var_delete
                0x000000001001b5c4                finsh_var_lookup
                0x000000001001b600                finsh_sysvar_append
                0x000000001001b648                finsh_sysvar_lookup
 .text          0x000000001001b6ac      0xef8 build\kernel\components\finsh\finsh_compiler.o
                0x000000001001c51e                finsh_compiler_run
 .text          0x000000001001c5a4      0x204 build\kernel\components\finsh\finsh_heap.o
                0x000000001001c5c8                finsh_heap_init
                0x000000001001c60e                finsh_heap_free
                0x000000001001c6c6                finsh_heap_allocate
 .text          0x000000001001c7a8      0x842 build\kernel\components\finsh\finsh_ops.o
                0x000000001001c7a8                OP_no_op
                0x000000001001c7aa                OP_add_byte
                0x000000001001c7ca                OP_add_word
                0x000000001001c7ea                OP_add_dword
                0x000000001001c80a                OP_sub_byte
                0x000000001001c82a                OP_sub_word
                0x000000001001c84a                OP_sub_dword
                0x000000001001c86a                OP_div_byte
                0x000000001001c88c                OP_div_word
                0x000000001001c8ae                OP_div_dword
                0x000000001001c8d0                OP_mod_byte
                0x000000001001c8f2                OP_mod_word
                0x000000001001c914                OP_mod_dword
                0x000000001001c936                OP_mul_byte
                0x000000001001c958                OP_mul_word
                0x000000001001c97a                OP_mul_dword
                0x000000001001c99c                OP_and_byte
                0x000000001001c9bc                OP_and_word
                0x000000001001c9dc                OP_and_dword
                0x000000001001c9fc                OP_or_byte
                0x000000001001ca1c                OP_or_word
                0x000000001001ca3c                OP_or_dword
                0x000000001001ca5c                OP_xor_byte
                0x000000001001ca7c                OP_xor_word
                0x000000001001ca9c                OP_xor_dword
                0x000000001001cabc                OP_bw_byte
                0x000000001001cad2                OP_bw_word
                0x000000001001cae8                OP_bw_dword
                0x000000001001cafe                OP_shl_byte
                0x000000001001cb20                OP_shl_word
                0x000000001001cb42                OP_shl_dword
                0x000000001001cb64                OP_shr_byte
                0x000000001001cb86                OP_shr_word
                0x000000001001cba8                OP_shr_dword
                0x000000001001cbca                OP_ld_byte
                0x000000001001cbf4                OP_ld_word
                0x000000001001cc26                OP_ld_dword
                0x000000001001cc66                OP_ld_value_byte
                0x000000001001ccac                OP_ld_value_byte_stack
                0x000000001001ccc2                OP_ld_value_word
                0x000000001001cd08                OP_ld_value_word_stack
                0x000000001001cd1e                OP_ld_value_dword
                0x000000001001cd60                OP_ld_value_dword_stack
                0x000000001001cd74                OP_st_byte
                0x000000001001cd92                OP_st_word
                0x000000001001cdae                OP_st_dword
                0x000000001001cdc8                OP_pop
                0x000000001001cdd8                OP_call
 .text          0x000000001001cfea       0x34 build\kernel\components\finsh\finsh_error.o
                0x000000001001cfea                finsh_error_init
                0x000000001001cff6                finsh_error_set
                0x000000001001d002                finsh_errno
                0x000000001001d00c                finsh_error_string
 .text          0x000000001001d01e      0x5e2 build\kernel\components\finsh\finsh_token.o
                0x000000001001d086                finsh_token_init
                0x000000001001d0ac                finsh_token_get_token
                0x000000001001d0be                token_get_string
                0x000000001001d142                finsh_token_token
 .text          0x000000001001d600       0x70 build\kernel\components\finsh\finsh_init.o
                0x000000001001d600                finsh_init
                0x000000001001d626                finsh_stack_bottom
                0x000000001001d630                finsh_flush
                0x000000001001d64e                finsh_reset
 .text          0x000000001001d670      0x4bc build\kernel\components\libc\compilers\common\time.o
                0x000000001001d6b2                gmtime_r
                0x000000001001d76c                gmtime
                0x000000001001d776                localtime_r
                0x000000001001d792                localtime
                0x000000001001d79c                asctime_r
                0x000000001001d844                asctime
                0x000000001001d84e                ctime_r
                0x000000001001d86c                ctime
                0x000000001001d880                time
                0x000000001001d8f8                clock
                0x000000001001d900                stime
                0x000000001001d95e                timegm
                0x000000001001dad4                mktime
                0x000000001001dad6                gettimeofday
                0x000000001001db0a                settimeofday
 .text          0x000000001001db2c      0x1e6 libraries\hal_drivers\drv_gpio.o
                0x000000001001dcf8                rt_hw_pin_init
 .text          0x000000001001dd12      0x338 libraries\hal_drivers\drv_rtc.o
                0x000000001001dd12                get_weekday
                0x000000001001dd3c                irtc_write
                0x000000001001dd4c                irtc_read
                0x000000001001dd64                irtc_time_write
                0x000000001001ddd0                irtc_time_read
                0x000000001001de9a                irtc_sfr_write
                0x000000001001dee2                irtc_sfr_read
                0x000000001001df26                hal_rtc_init
                0x000000001001dfa2                rt_hw_rtc_init
 .text          0x000000001001e04a      0x20e libraries\hal_drivers\drv_soft_i2c.o
                0x000000001001e16c                rt_hw_i2c_init
 .text          0x000000001001e258      0x302 libraries\hal_drivers\drv_wdt.o
                0x000000001001e25c                rt_wdt_init
 .text          0x000000001001e55a      0x7aa libraries\hal_drivers\drv_sdio.o
                0x000000001001e57c                rthw_sdio_irq_update
                0x000000001001eaa6                sdio_host_create
                0x000000001001ec66                rt_hw_sdio_init
                0x000000001001ecf8                ab32_mmcsd_change
 .text          0x000000001001ed04      0x12e libraries\hal_drivers\drv_adc.o
 .text          0x000000001001ee32      0x214 libraries\hal_drivers\drv_usart.o
                0x000000001001efb4                rt_hw_usart_init
 .text          0x000000001001f046      0x35a libraries\hal_drivers\drv_pwm.o
 .text          0x000000001001f3a0      0x276 libraries\hal_drivers\drv_hwtimer.o
 .text          0x000000001001f616       0x6c libcpu\cpu\cpuport.o
                0x000000001001f616                rt_hw_stack_init
                0x000000001001f634                rt_hw_cpu_shutdown
 .text          0x000000001001f682      0x3b4 libraries\hal_libraries\bmsis\source\system_ab32vgx.o
                0x000000001001f682                get_clksel_val
                0x000000001001f692                get_cur_sysclk
                0x000000001001f69c                get_sysclk_nhz
                0x000000001001f6c0                get_sd_rate
                0x000000001001f6c4                set_sd_baud
                0x000000001001f722                update_sd0baud
                0x000000001001f75e                sysclk_update_baud
                0x000000001001f79a                update_uart0baud_in_sysclk
                0x000000001001f7b8                set_sys_uart0baud
                0x000000001001f7c2                set_peripherals_clkdiv_safety
                0x000000001001f7f0                set_peripherals_clkdiv
                0x000000001001f862                set_sysclk
 .text.hal_adc_enable
                0x000000001001fa36       0x14 libraries\hal_libraries\ab32vg1_hal\libhal.a(ab32vg1_hal_adc.o)
                0x000000001001fa36                hal_adc_enable
 .text.hal_adc_start
                0x000000001001fa4a        0x6 libraries\hal_libraries\ab32vg1_hal\libhal.a(ab32vg1_hal_adc.o)
                0x000000001001fa4a                hal_adc_start
 .text.hal_adc_poll_for_conversion
                0x000000001001fa50       0x34 libraries\hal_libraries\ab32vg1_hal\libhal.a(ab32vg1_hal_adc.o)
                0x000000001001fa50                hal_adc_poll_for_conversion
 .text          0x000000001001fa84      0x434 d:/program_files/programming/rt-threadstudio/repo/extract/toolchain_support_packages/risc-v/risc-v-gcc/10.1.0/bin/../lib/gcc/riscv64-unknown-elf/10.1.0/rv32im/ilp32\libgcc.a(_udivdi3.o)
                0x000000001001fa84                __udivdi3
 .text          0x000000001001feb8      0x6e0 d:/program_files/programming/rt-threadstudio/repo/extract/toolchain_support_packages/risc-v/risc-v-gcc/10.1.0/bin/../lib/gcc/riscv64-unknown-elf/10.1.0/rv32im/ilp32\libgcc.a(divdf3.o)
                0x000000001001feb8                __divdf3
 .text          0x0000000010020598      0x5c8 d:/program_files/programming/rt-threadstudio/repo/extract/toolchain_support_packages/risc-v/risc-v-gcc/10.1.0/bin/../lib/gcc/riscv64-unknown-elf/10.1.0/rv32im/ilp32\libgcc.a(muldf3.o)
                0x0000000010020598                __muldf3
 .text          0x0000000010020b60       0x80 d:/program_files/programming/rt-threadstudio/repo/extract/toolchain_support_packages/risc-v/risc-v-gcc/10.1.0/bin/../lib/gcc/riscv64-unknown-elf/10.1.0/rv32im/ilp32\libgcc.a(fixdfsi.o)
                0x0000000010020b60                __fixdfsi
 .text          0x0000000010020be0       0x80 d:/program_files/programming/rt-threadstudio/repo/extract/toolchain_support_packages/risc-v/risc-v-gcc/10.1.0/bin/../lib/gcc/riscv64-unknown-elf/10.1.0/rv32im/ilp32\libgcc.a(floatunsidf.o)
                0x0000000010020be0                __floatunsidf
 .text          0x0000000010020c60      0x45c d:/program_files/programming/rt-threadstudio/repo/extract/toolchain_support_packages/risc-v/risc-v-gcc/10.1.0/bin/../lib/gcc/riscv64-unknown-elf/10.1.0/rv32im/ilp32\libgcc.a(addsf3.o)
                0x0000000010020c60                __addsf3
 .text          0x00000000100210bc      0x334 d:/program_files/programming/rt-threadstudio/repo/extract/toolchain_support_packages/risc-v/risc-v-gcc/10.1.0/bin/../lib/gcc/riscv64-unknown-elf/10.1.0/rv32im/ilp32\libgcc.a(divsf3.o)
                0x00000000100210bc                __divsf3
 .text          0x00000000100213f0       0x68 d:/program_files/programming/rt-threadstudio/repo/extract/toolchain_support_packages/risc-v/risc-v-gcc/10.1.0/bin/../lib/gcc/riscv64-unknown-elf/10.1.0/rv32im/ilp32\libgcc.a(eqsf2.o)
                0x00000000100213f0                __eqsf2
                0x00000000100213f0                __nesf2
 .text          0x0000000010021458       0xb4 d:/program_files/programming/rt-threadstudio/repo/extract/toolchain_support_packages/risc-v/risc-v-gcc/10.1.0/bin/../lib/gcc/riscv64-unknown-elf/10.1.0/rv32im/ilp32\libgcc.a(gesf2.o)
                0x0000000010021458                __gesf2
                0x0000000010021458                __gtsf2
 .text          0x000000001002150c       0xb4 d:/program_files/programming/rt-threadstudio/repo/extract/toolchain_support_packages/risc-v/risc-v-gcc/10.1.0/bin/../lib/gcc/riscv64-unknown-elf/10.1.0/rv32im/ilp32\libgcc.a(lesf2.o)
                0x000000001002150c                __ltsf2
                0x000000001002150c                __lesf2
 .text          0x00000000100215c0      0x304 d:/program_files/programming/rt-threadstudio/repo/extract/toolchain_support_packages/risc-v/risc-v-gcc/10.1.0/bin/../lib/gcc/riscv64-unknown-elf/10.1.0/rv32im/ilp32\libgcc.a(mulsf3.o)
                0x00000000100215c0                __mulsf3
 .text          0x00000000100218c4      0x46c d:/program_files/programming/rt-threadstudio/repo/extract/toolchain_support_packages/risc-v/risc-v-gcc/10.1.0/bin/../lib/gcc/riscv64-unknown-elf/10.1.0/rv32im/ilp32\libgcc.a(subsf3.o)
                0x00000000100218c4                __subsf3
 .text          0x0000000010021d30       0x70 d:/program_files/programming/rt-threadstudio/repo/extract/toolchain_support_packages/risc-v/risc-v-gcc/10.1.0/bin/../lib/gcc/riscv64-unknown-elf/10.1.0/rv32im/ilp32\libgcc.a(fixsfsi.o)
                0x0000000010021d30                __fixsfsi
 .text          0x0000000010021da0       0x68 d:/program_files/programming/rt-threadstudio/repo/extract/toolchain_support_packages/risc-v/risc-v-gcc/10.1.0/bin/../lib/gcc/riscv64-unknown-elf/10.1.0/rv32im/ilp32\libgcc.a(fixunssfsi.o)
                0x0000000010021da0                __fixunssfsi
 .text          0x0000000010021e08      0x108 d:/program_files/programming/rt-threadstudio/repo/extract/toolchain_support_packages/risc-v/risc-v-gcc/10.1.0/bin/../lib/gcc/riscv64-unknown-elf/10.1.0/rv32im/ilp32\libgcc.a(floatsisf.o)
                0x0000000010021e08                __floatsisf
 .text          0x0000000010021f10       0xdc d:/program_files/programming/rt-threadstudio/repo/extract/toolchain_support_packages/risc-v/risc-v-gcc/10.1.0/bin/../lib/gcc/riscv64-unknown-elf/10.1.0/rv32im/ilp32\libgcc.a(floatunsisf.o)
                0x0000000010021f10                __floatunsisf
 .text          0x0000000010021fec       0x4c d:/program_files/programming/rt-threadstudio/repo/extract/toolchain_support_packages/risc-v/risc-v-gcc/10.1.0/bin/../lib/gcc/riscv64-unknown-elf/10.1.0/rv32im/ilp32\libgcc.a(_clzsi2.o)
                0x0000000010021fec                __clzsi2
 .text          0x0000000010022038        0xc d:/program_files/programming/rt-threadstudio/repo/extract/toolchain_support_packages/risc-v/risc-v-gcc/10.1.0/bin/../lib/gcc/riscv64-unknown-elf/10.1.0/../../../../riscv64-unknown-elf/lib/rv32im/ilp32\libc.a(lib_a-errno.o)
                0x0000000010022038                __errno
 .text          0x0000000010022044       0x58 d:/program_files/programming/rt-threadstudio/repo/extract/toolchain_support_packages/risc-v/risc-v-gcc/10.1.0/bin/../lib/gcc/riscv64-unknown-elf/10.1.0/../../../../riscv64-unknown-elf/lib/rv32im/ilp32\libc.a(lib_a-strrchr.o)
                0x0000000010022044                strrchr
 .text          0x000000001002209c      0x140 d:/program_files/programming/rt-threadstudio/repo/extract/toolchain_support_packages/risc-v/risc-v-gcc/10.1.0/bin/../lib/gcc/riscv64-unknown-elf/10.1.0/../../../../riscv64-unknown-elf/lib/rv32im/ilp32\libc.a(lib_a-strchr.o)
                0x000000001002209c                strchr
 *(.rodata*)
 .rodata.str1.4
                0x00000000100221dc      0x2d1 build\kernel\src\mem.o
 *fill*         0x00000000100224ad        0x3 
 .rodata        0x00000000100224b0       0x37 build\kernel\src\mem.o
 *fill*         0x00000000100224e7        0x1 
 .rodata.name   0x00000000100224e8       0x29 build\kernel\src\mem.o
                0x00000000100224e8                __fsym_list_mem_desc
                0x0000000010022508                __fsym_list_mem_name
 *fill*         0x0000000010022511        0x3 
 .rodata.str1.4
                0x0000000010022514      0x1b1 build\kernel\src\memheap.o
                                        0x1bd (size before relaxing)
 *fill*         0x00000000100226c5        0x3 
 .rodata        0x00000000100226c8       0x6c build\kernel\src\memheap.o
 .rodata.name   0x0000000010022734       0x33 build\kernel\src\memheap.o
                0x0000000010022734                __fsym___cmd_memheaptrace_desc
                0x0000000010022754                __fsym___cmd_memheaptrace_name
 .rodata.str1.4
                0x0000000010022767      0x1b1 build\kernel\components\dfs\src\dfs_posix.o
                                          0x4 (size before relaxing)
 *fill*         0x0000000010022767        0x1 
 .rodata.name   0x0000000010022768       0x42 build\kernel\components\dfs\src\dfs_posix.o
                0x0000000010022768                __fsym_cd_desc
                0x000000001002278c                __fsym_cd_name
                0x0000000010022790                __fsym_mkdir_desc
                0x00000000100227a4                __fsym_mkdir_name
 *fill*         0x00000000100227aa        0x2 
 .rodata.str1.4
                0x00000000100227ac      0x1b2 build\kernel\components\dfs\src\dfs_fs.o
                                        0x1b6 (size before relaxing)
 *fill*         0x000000001002295e        0x2 
 .rodata        0x0000000010022960       0x35 build\kernel\components\dfs\src\dfs_fs.o
 *fill*         0x0000000010022995        0x3 
 .rodata.name   0x0000000010022998       0x2d build\kernel\components\dfs\src\dfs_fs.o
                0x0000000010022998                __fsym_df_desc
                0x00000000100229a8                __fsym_df_name
                0x00000000100229ac                __fsym_mkfs_desc
                0x00000000100229c0                __fsym_mkfs_name
 *fill*         0x00000000100229c5        0x3 
 .rodata.str1.4
                0x00000000100229c8      0x116 build\kernel\components\dfs\src\dfs.o
                                        0x136 (size before relaxing)
 *fill*         0x0000000010022ade        0x2 
 .rodata        0x0000000010022ae0       0x1f build\kernel\components\dfs\src\dfs.o
 *fill*         0x0000000010022aff        0x1 
 .rodata.name   0x0000000010022b00       0x26 build\kernel\components\dfs\src\dfs.o
                0x0000000010022b00                __fsym___cmd_list_fd_desc
                0x0000000010022b18                __fsym___cmd_list_fd_name
 *fill*         0x0000000010022b26        0x2 
 .rodata.str1.4
                0x0000000010022b28      0x1b0 build\kernel\components\dfs\src\dfs_file.o
                                        0x1cc (size before relaxing)
 .rodata.name   0x0000000010022cd8       0x67 build\kernel\components\dfs\src\dfs_file.o
                0x0000000010022cd8                __fsym_copy_desc
                0x0000000010022cec                __fsym_copy_name
                0x0000000010022cf4                __fsym_cat_desc
                0x0000000010022d00                __fsym_cat_name
                0x0000000010022d04                __fsym_rm_desc
                0x0000000010022d20                __fsym_rm_name
                0x0000000010022d24                __fsym_ls_desc
                0x0000000010022d3c                __fsym_ls_name
 *fill*         0x0000000010022d3f        0x1 
 .rodata.str1.4
                0x0000000010022d40       0x53 build\kernel\components\dfs\filesystems\devfs\devfs.o
                                         0x5a (size before relaxing)
 *fill*         0x0000000010022d93        0x1 
 .rodata        0x0000000010022d94       0xc8 build\kernel\components\dfs\filesystems\devfs\devfs.o
 .rodata.str1.4
                0x0000000010022e5c       0x54 build\kernel\components\dfs\filesystems\elmfat\ff.o
 .rodata        0x0000000010022eb0       0xbe build\kernel\components\dfs\filesystems\elmfat\ff.o
 *fill*         0x0000000010022f6e        0x2 
 .rodata        0x0000000010022f70      0x3d4 build\kernel\components\dfs\filesystems\elmfat\ffunicode.o
 .rodata.str1.4
                0x0000000010023344       0xf4 build\kernel\components\dfs\filesystems\elmfat\dfs_elm.o
                                         0xf8 (size before relaxing)
 .rodata        0x0000000010023438       0xf0 build\kernel\components\dfs\filesystems\elmfat\dfs_elm.o
 .rodata        0x0000000010023528       0xb1 build\kernel\components\drivers\audio\audio.o
 *fill*         0x00000000100235d9        0x3 
 .rodata        0x00000000100235dc       0x7c build\kernel\components\drivers\audio\audio_pipe.o
 .rodata        0x0000000010023658       0x4c build\kernel\components\drivers\hwtimer\hwtimer.o
 .rodata        0x00000000100236a4       0x13 build\kernel\components\drivers\i2c\i2c_core.o
 *fill*         0x00000000100236b7        0x1 
 .rodata        0x00000000100236b8       0x7c build\kernel\components\drivers\i2c\i2c_dev.o
 .rodata        0x0000000010023734        0xc build\kernel\components\drivers\i2c\i2c-bit-ops.o
 .rodata        0x0000000010023740       0x57 build\kernel\components\drivers\misc\adc.o
 *fill*         0x0000000010023797        0x1 
 .rodata.name   0x0000000010023798       0x1a build\kernel\components\drivers\misc\adc.o
                0x0000000010023798                __fsym___cmd_adc_desc
                0x00000000100237a8                __fsym___cmd_adc_name
 *fill*         0x00000000100237b2        0x2 
 .rodata        0x00000000100237b4       0x18 build\kernel\components\drivers\misc\rt_drv_pwm.o
 .rodata.name   0x00000000100237cc      0x11f build\kernel\components\drivers\misc\rt_drv_pwm.o
                0x00000000100237cc                __fsym___cmd_pwm_get_desc
                0x00000000100237e8                __fsym___cmd_pwm_get_name
                0x00000000100237f8                __fsym___cmd_pwm_set_desc
                0x0000000010023828                __fsym___cmd_pwm_set_name
                0x0000000010023838                __fsym___cmd_pwm_disable_desc
                0x0000000010023864                __fsym___cmd_pwm_disable_name
                0x0000000010023878                __fsym___cmd_pwm_enable_desc
                0x00000000100238a0                __fsym___cmd_pwm_enable_name
                0x00000000100238b4                __fsym_pwm_set_desc
                0x00000000100238c0                __fsym_pwm_set_name
                0x00000000100238c8                __fsym_pwm_enable_desc
                0x00000000100238e0                __fsym_pwm_enable_name
 *fill*         0x00000000100238eb        0x1 
 .rodata        0x00000000100238ec       0xae build\kernel\components\drivers\misc\pin.o
 *fill*         0x000000001002399a        0x2 
 .rodata.name   0x000000001002399c       0x9c build\kernel\components\drivers\misc\pin.o
                0x000000001002399c                __fsym_pinGet_desc
                0x00000000100239c0                __fsym_pinGet_name
                0x00000000100239c8                __fsym_pinRead_desc
                0x00000000100239e8                __fsym_pinRead_name
                0x00000000100239f0                __fsym_pinWrite_desc
                0x0000000010023a0c                __fsym_pinWrite_name
                0x0000000010023a18                __fsym_pinMode_desc
                0x0000000010023a30                __fsym_pinMode_name
 .rodata.name   0x0000000010023a38      0x136 build\kernel\components\drivers\rtc\rtc.o
                0x0000000010023a38                __fsym___cmd_date_desc
                0x0000000010023a80                __fsym___cmd_date_name
                0x0000000010023a8c                __fsym___cmd_list_date_desc
                0x0000000010023ab0                __fsym___cmd_list_date_name
                0x0000000010023ac0                __fsym_set_time_desc
                0x0000000010023af4                __fsym_set_time_name
                0x0000000010023b00                __fsym_set_date_desc
                0x0000000010023b34                __fsym_set_date_name
                0x0000000010023b40                __fsym_list_date_desc
                0x0000000010023b64                __fsym_list_date_name
 *fill*         0x0000000010023b6e        0x2 
 .rodata        0x0000000010023b70       0x59 build\kernel\components\drivers\rtc\alarm.o
 *fill*         0x0000000010023bc9        0x3 
 .rodata.name   0x0000000010023bcc       0x21 build\kernel\components\drivers\rtc\alarm.o
                0x0000000010023bcc                __fsym___cmd_alarm_dump_desc
                0x0000000010023bdc                __fsym___cmd_alarm_dump_name
 *fill*         0x0000000010023bed        0x3 
 .rodata.str1.4
                0x0000000010023bf0      0x142 build\kernel\components\drivers\sdio\mmc.o
                                        0x146 (size before relaxing)
 *fill*         0x0000000010023d32        0x2 
 .rodata        0x0000000010023d34       0x50 build\kernel\components\drivers\sdio\mmc.o
 .rodata.str1.4
                0x0000000010023d84       0xb5 build\kernel\components\drivers\sdio\sd.o
                                        0x10d (size before relaxing)
 *fill*         0x0000000010023e39        0x3 
 .rodata        0x0000000010023e3c       0x50 build\kernel\components\drivers\sdio\sd.o
 .rodata.str1.4
                0x0000000010023e8c       0xf7 build\kernel\components\drivers\sdio\block_dev.o
                                        0x113 (size before relaxing)
 *fill*         0x0000000010023f83        0x1 
 .rodata        0x0000000010023f84       0x18 build\kernel\components\drivers\sdio\block_dev.o
 .rodata.str1.4
                0x0000000010023f9c      0x278 build\kernel\components\drivers\sdio\sdio.o
                                        0x288 (size before relaxing)
 .rodata        0x0000000010024214      0x12e build\kernel\components\drivers\sdio\sdio.o
 *fill*         0x0000000010024342        0x2 
 .rodata.str1.4
                0x0000000010024344       0xcf build\kernel\components\drivers\sdio\mmcsd_core.o
                                         0xeb (size before relaxing)
 *fill*         0x0000000010024413        0x1 
 .rodata        0x0000000010024414       0x13 build\kernel\components\drivers\sdio\mmcsd_core.o
 *fill*         0x0000000010024427        0x1 
 .rodata        0x0000000010024428       0xc5 build\kernel\components\drivers\serial\serial.o
 *fill*         0x00000000100244ed        0x3 
 .rodata        0x00000000100244f0       0x8e build\kernel\components\drivers\src\dataqueue.o
 *fill*         0x000000001002457e        0x2 
 .rodata        0x0000000010024580       0xf6 build\kernel\components\drivers\src\ringbuffer.o
 *fill*         0x0000000010024676        0x2 
 .rodata        0x0000000010024678       0x3b build\kernel\components\drivers\src\completion.o
 *fill*         0x00000000100246b3        0x1 
 .rodata        0x00000000100246b4       0x6c build\kernel\components\drivers\watchdog\watchdog.o
 .rodata        0x0000000010024720       0x53 build\kernel\components\finsh\finsh_parser.o
 *fill*         0x0000000010024773        0x1 
 .rodata.str1.4
                0x0000000010024774      0x6f7 build\kernel\components\finsh\cmd.o
                                        0x70b (size before relaxing)
 *fill*         0x0000000010024e6b        0x1 
 .rodata        0x0000000010024e6c       0x5c build\kernel\components\finsh\cmd.o
 .rodata.name   0x0000000010024ec8      0x446 build\kernel\components\finsh\cmd.o
                0x0000000010024ec8                __vsym_dummy_desc
                0x0000000010024ee4                __vsym_dummy_name
                0x0000000010024eec                __fsym_list_desc
                0x0000000010024f08                __fsym_list_name
                0x0000000010024f10                __fsym___cmd_list_device_desc
                0x0000000010024f28                __fsym___cmd_list_device_name
                0x0000000010024f3c                __fsym_list_device_desc
                0x0000000010024f54                __fsym_list_device_name
                0x0000000010024f60                __fsym___cmd_list_timer_desc
                0x0000000010024f78                __fsym___cmd_list_timer_name
                0x0000000010024f8c                __fsym_list_timer_desc
                0x0000000010024fa4                __fsym_list_timer_name
                0x0000000010024fb0                __fsym___cmd_list_mempool_desc
                0x0000000010024fcc                __fsym___cmd_list_mempool_name
                0x0000000010024fe0                __fsym_list_mempool_desc
                0x0000000010024ffc                __fsym_list_mempool_name
                0x000000001002500c                __fsym___cmd_list_memheap_desc
                0x0000000010025028                __fsym___cmd_list_memheap_name
                0x000000001002503c                __fsym_list_memheap_desc
                0x0000000010025058                __fsym_list_memheap_name
                0x0000000010025068                __fsym___cmd_list_msgqueue_desc
                0x0000000010025088                __fsym___cmd_list_msgqueue_name
                0x000000001002509c                __fsym_list_msgqueue_desc
                0x00000000100250bc                __fsym_list_msgqueue_name
                0x00000000100250cc                __fsym___cmd_list_mailbox_desc
                0x00000000100250e4                __fsym___cmd_list_mailbox_name
                0x00000000100250f8                __fsym_list_mailbox_desc
                0x0000000010025110                __fsym_list_mailbox_name
                0x0000000010025120                __fsym___cmd_list_mutex_desc
                0x0000000010025138                __fsym___cmd_list_mutex_name
                0x000000001002514c                __fsym_list_mutex_desc
                0x0000000010025164                __fsym_list_mutex_name
                0x0000000010025170                __fsym___cmd_list_event_desc
                0x0000000010025188                __fsym___cmd_list_event_name
                0x000000001002519c                __fsym_list_event_desc
                0x00000000100251b4                __fsym_list_event_name
                0x00000000100251c0                __fsym___cmd_list_sem_desc
                0x00000000100251dc                __fsym___cmd_list_sem_name
                0x00000000100251ec                __fsym_list_sem_desc
                0x0000000010025208                __fsym_list_sem_name
                0x0000000010025214                __fsym___cmd_list_thread_desc
                0x0000000010025220                __fsym___cmd_list_thread_name
                0x0000000010025234                __fsym_list_thread_desc
                0x0000000010025240                __fsym_list_thread_name
                0x000000001002524c                __fsym___cmd_version_desc
                0x0000000010025270                __fsym___cmd_version_name
                0x0000000010025280                __fsym_version_desc
                0x00000000100252a4                __fsym_version_name
                0x00000000100252ac                __fsym___cmd_clear_desc
                0x00000000100252c8                __fsym___cmd_clear_name
                0x00000000100252d4                __fsym_clear_desc
                0x00000000100252f0                __fsym_clear_name
                0x00000000100252f8                __fsym_hello_desc
                0x0000000010025308                __fsym_hello_name
 *fill*         0x000000001002530e        0x2 
 .rodata.str1.4
                0x0000000010025310      0x3aa build\kernel\components\finsh\msh_file.o
                                        0x3d6 (size before relaxing)
 *fill*         0x00000000100256ba        0x2 
 .rodata.name   0x00000000100256bc      0x219 build\kernel\components\finsh\msh_file.o
                0x00000000100256bc                __fsym___cmd_echo_desc
                0x00000000100256d0                __fsym___cmd_echo_name
                0x00000000100256dc                __fsym___cmd_df_desc
                0x00000000100256e8                __fsym___cmd_df_name
                0x00000000100256f4                __fsym___cmd_umount_desc
                0x0000000010025714                __fsym___cmd_umount_name
                0x0000000010025724                __fsym___cmd_mount_desc
                0x000000001002574c                __fsym___cmd_mount_name
                0x0000000010025758                __fsym___cmd_mkfs_desc
                0x0000000010025778                __fsym___cmd_mkfs_name
                0x0000000010025784                __fsym___cmd_mkdir_desc
                0x000000001002579c                __fsym___cmd_mkdir_name
                0x00000000100257a8                __fsym___cmd_pwd_desc
                0x00000000100257dc                __fsym___cmd_pwd_name
                0x00000000100257e8                __fsym___cmd_cd_desc
                0x000000001002580c                __fsym___cmd_cd_name
                0x0000000010025818                __fsym___cmd_rm_desc
                0x0000000010025834                __fsym___cmd_rm_name
                0x0000000010025840                __fsym___cmd_cat_desc
                0x0000000010025854                __fsym___cmd_cat_name
                0x0000000010025860                __fsym___cmd_mv_desc
                0x0000000010025878                __fsym___cmd_mv_name
                0x0000000010025884                __fsym___cmd_cp_desc
                0x000000001002589c                __fsym___cmd_cp_name
                0x00000000100258a8                __fsym___cmd_ls_desc
                0x00000000100258cc                __fsym___cmd_ls_name
 *fill*         0x00000000100258d5        0x3 
 .rodata.name   0x00000000100258d8       0xc3 build\kernel\components\finsh\msh.o
                0x00000000100258d8                __fsym___cmd_free_desc
                0x0000000010025900                __fsym___cmd_free_name
                0x000000001002590c                __fsym___cmd_ps_desc
                0x0000000010025928                __fsym___cmd_ps_name
                0x0000000010025934                __fsym___cmd_help_desc
                0x000000001002594c                __fsym___cmd_help_name
                0x0000000010025958                __fsym_msh_desc
                0x000000001002596c                __fsym_msh_name
                0x0000000010025970                __fsym___cmd_exit_desc
                0x0000000010025990                __fsym___cmd_exit_name
 *fill*         0x000000001002599b        0x1 
 .rodata        0x000000001002599c       0x96 build\kernel\components\finsh\shell.o
 *fill*         0x0000000010025a32        0x2 
 .rodata        0x0000000010025a34       0xa4 build\kernel\components\finsh\finsh_compiler.o
 .rodata        0x0000000010025ad8      0x108 build\kernel\components\finsh\finsh_ops.o
                0x0000000010025b1c                op_table
 .rodata        0x0000000010025be0       0x3c build\kernel\components\finsh\finsh_error.o
 .rodata        0x0000000010025c1c      0x114 build\kernel\components\finsh\finsh_token.o
 .rodata        0x0000000010025d30       0x6d build\kernel\components\libc\compilers\common\time.o
 *fill*         0x0000000010025d9d        0x3 
 .rodata.str1.4
                0x0000000010025da0      0x20f libraries\hal_drivers\drv_wdt.o
                                        0x213 (size before relaxing)
 *fill*         0x0000000010025faf        0x1 
 .rodata.str1.4
                0x0000000010025fb0      0x183 libraries\hal_drivers\drv_sdio.o
                                        0x18b (size before relaxing)
 *fill*         0x0000000010026133        0x1 
 .rodata        0x0000000010026134       0x3c d:/program_files/programming/rt-threadstudio/repo/extract/toolchain_support_packages/risc-v/risc-v-gcc/10.1.0/bin/../lib/gcc/riscv64-unknown-elf/10.1.0/rv32im/ilp32\libgcc.a(divdf3.o)
 .rodata        0x0000000010026170       0x3c d:/program_files/programming/rt-threadstudio/repo/extract/toolchain_support_packages/risc-v/risc-v-gcc/10.1.0/bin/../lib/gcc/riscv64-unknown-elf/10.1.0/rv32im/ilp32\libgcc.a(muldf3.o)
 .rodata        0x00000000100261ac       0x3c d:/program_files/programming/rt-threadstudio/repo/extract/toolchain_support_packages/risc-v/risc-v-gcc/10.1.0/bin/../lib/gcc/riscv64-unknown-elf/10.1.0/rv32im/ilp32\libgcc.a(divsf3.o)
 .rodata        0x00000000100261e8       0x3c d:/program_files/programming/rt-threadstudio/repo/extract/toolchain_support_packages/risc-v/risc-v-gcc/10.1.0/bin/../lib/gcc/riscv64-unknown-elf/10.1.0/rv32im/ilp32\libgcc.a(mulsf3.o)
 .rodata        0x0000000010026224      0x100 d:/program_files/programming/rt-threadstudio/repo/extract/toolchain_support_packages/risc-v/risc-v-gcc/10.1.0/bin/../lib/gcc/riscv64-unknown-elf/10.1.0/rv32im/ilp32\libgcc.a(_clz.o)
                0x0000000010026224                __clz_tab
 *(.srodata*)
 .srodata.cst4  0x0000000010026324        0x8 build\kernel\components\drivers\hwtimer\hwtimer.o
 *fill*         0x000000001002632c        0x4 
 .srodata.cst8  0x0000000010026330        0x8 build\kernel\components\drivers\misc\rt_drv_pwm.o
                0x0000000010026400                . = ALIGN (0x200)
 *fill*         0x0000000010026338       0xc8 
                0x000000000001d6f8                __bank_size = SIZEOF (.flash)
                0x0000000010005f90                __comm_lma = LOADADDR (.comm)
                0x0000000000002d74                __comm_size = SIZEOF (.comm)
                0x0000000010000200                __ram1_lma = LOADADDR (.ram1)
                0x0000000000005d90                __ram1_size = SIZEOF (.ram1)
OUTPUT(rtthread.elf elf32-littleriscv)

.comment        0x0000000000000000       0x23
 .comment       0x0000000000000000       0x12 build\applications\mnt.o
                                         0x13 (size before relaxing)
 .comment       0x0000000000000012       0x13 build\applications\main.o
 .comment       0x0000000000000012       0x13 build\board\ports\audio\drv_sound.o
 .comment       0x0000000000000012       0x13 build\board\board.o
 .comment       0x0000000000000012       0x13 build\board\ab32vg1_hal_msp.o
 .comment       0x0000000000000012       0x13 build\kernel\src\thread.o
 .comment       0x0000000000000012       0x13 build\kernel\src\device.o
 .comment       0x0000000000000012       0x13 build\kernel\src\mem.o
 .comment       0x0000000000000012       0x13 build\kernel\src\object.o
 .comment       0x0000000000000012       0x13 build\kernel\src\kservice.o
 .comment       0x0000000000000012       0x13 build\kernel\src\scheduler.o
 .comment       0x0000000000000012       0x13 build\kernel\src\timer.o
 .comment       0x0000000000000012       0x13 build\kernel\src\irq.o
 .comment       0x0000000000000012       0x13 build\kernel\src\memheap.o
 .comment       0x0000000000000012       0x13 build\kernel\src\idle.o
 .comment       0x0000000000000012       0x13 build\kernel\src\ipc.o
 .comment       0x0000000000000012       0x13 build\kernel\src\components.o
 .comment       0x0000000000000012       0x13 build\kernel\src\mempool.o
 .comment       0x0000000000000012       0x13 build\kernel\src\clock.o
 .comment       0x0000000000000012       0x13 build\kernel\components\dfs\src\dfs_posix.o
 .comment       0x0000000000000012       0x13 build\kernel\components\dfs\src\dfs_fs.o
 .comment       0x0000000000000012       0x13 build\kernel\components\dfs\src\dfs.o
 .comment       0x0000000000000012       0x13 build\kernel\components\dfs\src\dfs_file.o
 .comment       0x0000000000000012       0x13 build\kernel\components\dfs\filesystems\devfs\devfs.o
 .comment       0x0000000000000012       0x13 build\kernel\components\dfs\filesystems\elmfat\ff.o
 .comment       0x0000000000000012       0x13 build\kernel\components\dfs\filesystems\elmfat\ffunicode.o
 .comment       0x0000000000000012       0x13 build\kernel\components\dfs\filesystems\elmfat\dfs_elm.o
 .comment       0x0000000000000012       0x13 build\kernel\components\drivers\audio\audio.o
 .comment       0x0000000000000012       0x13 build\kernel\components\drivers\audio\audio_pipe.o
 .comment       0x0000000000000012       0x13 build\kernel\components\drivers\hwtimer\hwtimer.o
 .comment       0x0000000000000012       0x13 build\kernel\components\drivers\i2c\i2c_core.o
 .comment       0x0000000000000012       0x13 build\kernel\components\drivers\i2c\i2c_dev.o
 .comment       0x0000000000000012       0x13 build\kernel\components\drivers\i2c\i2c-bit-ops.o
 .comment       0x0000000000000012       0x13 build\kernel\components\drivers\misc\adc.o
 .comment       0x0000000000000012       0x13 build\kernel\components\drivers\misc\rt_drv_pwm.o
 .comment       0x0000000000000012       0x13 build\kernel\components\drivers\misc\pin.o
 .comment       0x0000000000000012       0x13 build\kernel\components\drivers\rtc\rtc.o
 .comment       0x0000000000000012       0x13 build\kernel\components\drivers\rtc\alarm.o
 .comment       0x0000000000000012       0x13 build\kernel\components\drivers\sdio\mmc.o
 .comment       0x0000000000000012       0x13 build\kernel\components\drivers\sdio\sd.o
 .comment       0x0000000000000012       0x13 build\kernel\components\drivers\sdio\block_dev.o
 .comment       0x0000000000000012       0x13 build\kernel\components\drivers\sdio\sdio.o
 .comment       0x0000000000000012       0x13 build\kernel\components\drivers\sdio\mmcsd_core.o
 .comment       0x0000000000000012       0x13 build\kernel\components\drivers\serial\serial.o
 .comment       0x0000000000000012       0x13 build\kernel\components\drivers\src\dataqueue.o
 .comment       0x0000000000000012       0x13 build\kernel\components\drivers\src\ringbuffer.o
 .comment       0x0000000000000012       0x13 build\kernel\components\drivers\src\completion.o
 .comment       0x0000000000000012       0x13 build\kernel\components\drivers\watchdog\watchdog.o
 .comment       0x0000000000000012       0x13 build\kernel\components\finsh\finsh_node.o
 .comment       0x0000000000000012       0x13 build\kernel\components\finsh\finsh_parser.o
 .comment       0x0000000000000012       0x13 build\kernel\components\finsh\cmd.o
 .comment       0x0000000000000012       0x13 build\kernel\components\finsh\finsh_vm.o
 .comment       0x0000000000000012       0x13 build\kernel\components\finsh\msh_file.o
 .comment       0x0000000000000012       0x13 build\kernel\components\finsh\msh.o
 .comment       0x0000000000000012       0x13 build\kernel\components\finsh\shell.o
 .comment       0x0000000000000012       0x13 build\kernel\components\finsh\finsh_var.o
 .comment       0x0000000000000012       0x13 build\kernel\components\finsh\finsh_compiler.o
 .comment       0x0000000000000012       0x13 build\kernel\components\finsh\finsh_heap.o
 .comment       0x0000000000000012       0x13 build\kernel\components\finsh\finsh_ops.o
 .comment       0x0000000000000012       0x13 build\kernel\components\finsh\finsh_error.o
 .comment       0x0000000000000012       0x13 build\kernel\components\finsh\finsh_token.o
 .comment       0x0000000000000012       0x13 build\kernel\components\finsh\finsh_init.o
 .comment       0x0000000000000012       0x13 build\kernel\components\libc\compilers\common\time.o
 .comment       0x0000000000000012       0x13 libraries\hal_drivers\drv_gpio.o
 .comment       0x0000000000000012       0x13 libraries\hal_drivers\drv_rtc.o
 .comment       0x0000000000000012       0x13 libraries\hal_drivers\drv_soft_i2c.o
 .comment       0x0000000000000012       0x13 libraries\hal_drivers\drv_wdt.o
 .comment       0x0000000000000012       0x13 libraries\hal_drivers\drv_sdio.o
 .comment       0x0000000000000012       0x13 libraries\hal_drivers\drv_adc.o
 .comment       0x0000000000000012       0x13 libraries\hal_drivers\drv_usart.o
 .comment       0x0000000000000012       0x13 libraries\hal_drivers\drv_pwm.o
 .comment       0x0000000000000012       0x13 libraries\hal_drivers\drv_hwtimer.o
 .comment       0x0000000000000012       0x13 libcpu\cpu\cpuport.o
 .comment       0x0000000000000012       0x13 libcpu\cpu\interrupt.o
 .comment       0x0000000000000012       0x13 libraries\hal_libraries\ab32vg1_hal\source\ab32vg1_hal_gpio.o
 .comment       0x0000000000000012       0x13 libraries\hal_libraries\ab32vg1_hal\source\ab32vg1_hal_uart.o
 .comment       0x0000000000000012       0x13 libraries\hal_libraries\ab32vg1_hal\source\ab32vg1_hal.o
 .comment       0x0000000000000012       0x13 libraries\hal_libraries\ab32vg1_hal\source\ab32vg1_hal_rcu.o
 .comment       0x0000000000000012       0x13 libraries\hal_libraries\bmsis\source\system_ab32vgx.o
 .comment       0x0000000000000012       0x11 libraries\hal_libraries\ab32vg1_hal\libhal.a(ab32vg1_hal_adc.o)
                                         0x12 (size before relaxing)
 .comment       0x0000000000000023       0x12 libraries\hal_libraries\ab32vg1_hal\libhal.a(sys_err.o)
 .comment       0x0000000000000023       0x13 d:/program_files/programming/rt-threadstudio/repo/extract/toolchain_support_packages/risc-v/risc-v-gcc/10.1.0/bin/../lib/gcc/riscv64-unknown-elf/10.1.0/rv32im/ilp32\libgcc.a(_udivdi3.o)
 .comment       0x0000000000000023       0x13 d:/program_files/programming/rt-threadstudio/repo/extract/toolchain_support_packages/risc-v/risc-v-gcc/10.1.0/bin/../lib/gcc/riscv64-unknown-elf/10.1.0/rv32im/ilp32\libgcc.a(divdf3.o)
 .comment       0x0000000000000023       0x13 d:/program_files/programming/rt-threadstudio/repo/extract/toolchain_support_packages/risc-v/risc-v-gcc/10.1.0/bin/../lib/gcc/riscv64-unknown-elf/10.1.0/rv32im/ilp32\libgcc.a(muldf3.o)
 .comment       0x0000000000000023       0x13 d:/program_files/programming/rt-threadstudio/repo/extract/toolchain_support_packages/risc-v/risc-v-gcc/10.1.0/bin/../lib/gcc/riscv64-unknown-elf/10.1.0/rv32im/ilp32\libgcc.a(fixdfsi.o)
 .comment       0x0000000000000023       0x13 d:/program_files/programming/rt-threadstudio/repo/extract/toolchain_support_packages/risc-v/risc-v-gcc/10.1.0/bin/../lib/gcc/riscv64-unknown-elf/10.1.0/rv32im/ilp32\libgcc.a(floatunsidf.o)
 .comment       0x0000000000000023       0x13 d:/program_files/programming/rt-threadstudio/repo/extract/toolchain_support_packages/risc-v/risc-v-gcc/10.1.0/bin/../lib/gcc/riscv64-unknown-elf/10.1.0/rv32im/ilp32\libgcc.a(addsf3.o)
 .comment       0x0000000000000023       0x13 d:/program_files/programming/rt-threadstudio/repo/extract/toolchain_support_packages/risc-v/risc-v-gcc/10.1.0/bin/../lib/gcc/riscv64-unknown-elf/10.1.0/rv32im/ilp32\libgcc.a(divsf3.o)
 .comment       0x0000000000000023       0x13 d:/program_files/programming/rt-threadstudio/repo/extract/toolchain_support_packages/risc-v/risc-v-gcc/10.1.0/bin/../lib/gcc/riscv64-unknown-elf/10.1.0/rv32im/ilp32\libgcc.a(eqsf2.o)
 .comment       0x0000000000000023       0x13 d:/program_files/programming/rt-threadstudio/repo/extract/toolchain_support_packages/risc-v/risc-v-gcc/10.1.0/bin/../lib/gcc/riscv64-unknown-elf/10.1.0/rv32im/ilp32\libgcc.a(gesf2.o)
 .comment       0x0000000000000023       0x13 d:/program_files/programming/rt-threadstudio/repo/extract/toolchain_support_packages/risc-v/risc-v-gcc/10.1.0/bin/../lib/gcc/riscv64-unknown-elf/10.1.0/rv32im/ilp32\libgcc.a(lesf2.o)
 .comment       0x0000000000000023       0x13 d:/program_files/programming/rt-threadstudio/repo/extract/toolchain_support_packages/risc-v/risc-v-gcc/10.1.0/bin/../lib/gcc/riscv64-unknown-elf/10.1.0/rv32im/ilp32\libgcc.a(mulsf3.o)
 .comment       0x0000000000000023       0x13 d:/program_files/programming/rt-threadstudio/repo/extract/toolchain_support_packages/risc-v/risc-v-gcc/10.1.0/bin/../lib/gcc/riscv64-unknown-elf/10.1.0/rv32im/ilp32\libgcc.a(subsf3.o)
 .comment       0x0000000000000023       0x13 d:/program_files/programming/rt-threadstudio/repo/extract/toolchain_support_packages/risc-v/risc-v-gcc/10.1.0/bin/../lib/gcc/riscv64-unknown-elf/10.1.0/rv32im/ilp32\libgcc.a(fixsfsi.o)
 .comment       0x0000000000000023       0x13 d:/program_files/programming/rt-threadstudio/repo/extract/toolchain_support_packages/risc-v/risc-v-gcc/10.1.0/bin/../lib/gcc/riscv64-unknown-elf/10.1.0/rv32im/ilp32\libgcc.a(fixunssfsi.o)
 .comment       0x0000000000000023       0x13 d:/program_files/programming/rt-threadstudio/repo/extract/toolchain_support_packages/risc-v/risc-v-gcc/10.1.0/bin/../lib/gcc/riscv64-unknown-elf/10.1.0/rv32im/ilp32\libgcc.a(floatsisf.o)
 .comment       0x0000000000000023       0x13 d:/program_files/programming/rt-threadstudio/repo/extract/toolchain_support_packages/risc-v/risc-v-gcc/10.1.0/bin/../lib/gcc/riscv64-unknown-elf/10.1.0/rv32im/ilp32\libgcc.a(floatunsisf.o)
 .comment       0x0000000000000023       0x13 d:/program_files/programming/rt-threadstudio/repo/extract/toolchain_support_packages/risc-v/risc-v-gcc/10.1.0/bin/../lib/gcc/riscv64-unknown-elf/10.1.0/rv32im/ilp32\libgcc.a(_clz.o)
 .comment       0x0000000000000023       0x13 d:/program_files/programming/rt-threadstudio/repo/extract/toolchain_support_packages/risc-v/risc-v-gcc/10.1.0/bin/../lib/gcc/riscv64-unknown-elf/10.1.0/rv32im/ilp32\libgcc.a(_clzsi2.o)
 .comment       0x0000000000000023       0x13 d:/program_files/programming/rt-threadstudio/repo/extract/toolchain_support_packages/risc-v/risc-v-gcc/10.1.0/bin/../lib/gcc/riscv64-unknown-elf/10.1.0/../../../../riscv64-unknown-elf/lib/rv32im/ilp32\libc.a(lib_a-errno.o)
 .comment       0x0000000000000023       0x13 d:/program_files/programming/rt-threadstudio/repo/extract/toolchain_support_packages/risc-v/risc-v-gcc/10.1.0/bin/../lib/gcc/riscv64-unknown-elf/10.1.0/../../../../riscv64-unknown-elf/lib/rv32im/ilp32\libc.a(lib_a-impure.o)
 .comment       0x0000000000000023       0x13 d:/program_files/programming/rt-threadstudio/repo/extract/toolchain_support_packages/risc-v/risc-v-gcc/10.1.0/bin/../lib/gcc/riscv64-unknown-elf/10.1.0/../../../../riscv64-unknown-elf/lib/rv32im/ilp32\libc.a(lib_a-strrchr.o)
 .comment       0x0000000000000023       0x13 d:/program_files/programming/rt-threadstudio/repo/extract/toolchain_support_packages/risc-v/risc-v-gcc/10.1.0/bin/../lib/gcc/riscv64-unknown-elf/10.1.0/../../../../riscv64-unknown-elf/lib/rv32im/ilp32\libc.a(lib_a-strchr.o)

.riscv.attributes
                0x0000000000000000       0x26
 .riscv.attributes
                0x0000000000000000       0x26 build\applications\mnt.o
 .riscv.attributes
                0x0000000000000026       0x26 build\applications\main.o
 .riscv.attributes
                0x000000000000004c       0x26 build\board\ports\audio\drv_sound.o
 .riscv.attributes
                0x0000000000000072       0x26 build\board\board.o
 .riscv.attributes
                0x0000000000000098       0x26 build\board\ab32vg1_hal_msp.o
 .riscv.attributes
                0x00000000000000be       0x26 build\kernel\src\thread.o
 .riscv.attributes
                0x00000000000000e4       0x26 build\kernel\src\device.o
 .riscv.attributes
                0x000000000000010a       0x26 build\kernel\src\mem.o
 .riscv.attributes
                0x0000000000000130       0x26 build\kernel\src\object.o
 .riscv.attributes
                0x0000000000000156       0x26 build\kernel\src\kservice.o
 .riscv.attributes
                0x000000000000017c       0x26 build\kernel\src\scheduler.o
 .riscv.attributes
                0x00000000000001a2       0x26 build\kernel\src\timer.o
 .riscv.attributes
                0x00000000000001c8       0x26 build\kernel\src\irq.o
 .riscv.attributes
                0x00000000000001ee       0x26 build\kernel\src\memheap.o
 .riscv.attributes
                0x0000000000000214       0x26 build\kernel\src\idle.o
 .riscv.attributes
                0x000000000000023a       0x26 build\kernel\src\ipc.o
 .riscv.attributes
                0x0000000000000260       0x26 build\kernel\src\components.o
 .riscv.attributes
                0x0000000000000286       0x26 build\kernel\src\mempool.o
 .riscv.attributes
                0x00000000000002ac       0x26 build\kernel\src\clock.o
 .riscv.attributes
                0x00000000000002d2       0x26 build\kernel\components\dfs\src\dfs_posix.o
 .riscv.attributes
                0x00000000000002f8       0x26 build\kernel\components\dfs\src\dfs_fs.o
 .riscv.attributes
                0x000000000000031e       0x26 build\kernel\components\dfs\src\dfs.o
 .riscv.attributes
                0x0000000000000344       0x26 build\kernel\components\dfs\src\dfs_file.o
 .riscv.attributes
                0x000000000000036a       0x26 build\kernel\components\dfs\filesystems\devfs\devfs.o
 .riscv.attributes
                0x0000000000000390       0x26 build\kernel\components\dfs\filesystems\elmfat\ff.o
 .riscv.attributes
                0x00000000000003b6       0x26 build\kernel\components\dfs\filesystems\elmfat\ffunicode.o
 .riscv.attributes
                0x00000000000003dc       0x26 build\kernel\components\dfs\filesystems\elmfat\dfs_elm.o
 .riscv.attributes
                0x0000000000000402       0x26 build\kernel\components\drivers\audio\audio.o
 .riscv.attributes
                0x0000000000000428       0x26 build\kernel\components\drivers\audio\audio_pipe.o
 .riscv.attributes
                0x000000000000044e       0x26 build\kernel\components\drivers\hwtimer\hwtimer.o
 .riscv.attributes
                0x0000000000000474       0x26 build\kernel\components\drivers\i2c\i2c_core.o
 .riscv.attributes
                0x000000000000049a       0x26 build\kernel\components\drivers\i2c\i2c_dev.o
 .riscv.attributes
                0x00000000000004c0       0x26 build\kernel\components\drivers\i2c\i2c-bit-ops.o
 .riscv.attributes
                0x00000000000004e6       0x26 build\kernel\components\drivers\misc\adc.o
 .riscv.attributes
                0x000000000000050c       0x26 build\kernel\components\drivers\misc\rt_drv_pwm.o
 .riscv.attributes
                0x0000000000000532       0x26 build\kernel\components\drivers\misc\pin.o
 .riscv.attributes
                0x0000000000000558       0x26 build\kernel\components\drivers\rtc\rtc.o
 .riscv.attributes
                0x000000000000057e       0x26 build\kernel\components\drivers\rtc\alarm.o
 .riscv.attributes
                0x00000000000005a4       0x26 build\kernel\components\drivers\sdio\mmc.o
 .riscv.attributes
                0x00000000000005ca       0x26 build\kernel\components\drivers\sdio\sd.o
 .riscv.attributes
                0x00000000000005f0       0x26 build\kernel\components\drivers\sdio\block_dev.o
 .riscv.attributes
                0x0000000000000616       0x26 build\kernel\components\drivers\sdio\sdio.o
 .riscv.attributes
                0x000000000000063c       0x26 build\kernel\components\drivers\sdio\mmcsd_core.o
 .riscv.attributes
                0x0000000000000662       0x26 build\kernel\components\drivers\serial\serial.o
 .riscv.attributes
                0x0000000000000688       0x26 build\kernel\components\drivers\src\dataqueue.o
 .riscv.attributes
                0x00000000000006ae       0x26 build\kernel\components\drivers\src\ringbuffer.o
 .riscv.attributes
                0x00000000000006d4       0x26 build\kernel\components\drivers\src\completion.o
 .riscv.attributes
                0x00000000000006fa       0x26 build\kernel\components\drivers\watchdog\watchdog.o
 .riscv.attributes
                0x0000000000000720       0x26 build\kernel\components\finsh\finsh_node.o
 .riscv.attributes
                0x0000000000000746       0x26 build\kernel\components\finsh\finsh_parser.o
 .riscv.attributes
                0x000000000000076c       0x26 build\kernel\components\finsh\cmd.o
 .riscv.attributes
                0x0000000000000792       0x26 build\kernel\components\finsh\finsh_vm.o
 .riscv.attributes
                0x00000000000007b8       0x26 build\kernel\components\finsh\msh_file.o
 .riscv.attributes
                0x00000000000007de       0x26 build\kernel\components\finsh\msh.o
 .riscv.attributes
                0x0000000000000804       0x26 build\kernel\components\finsh\shell.o
 .riscv.attributes
                0x000000000000082a       0x26 build\kernel\components\finsh\finsh_var.o
 .riscv.attributes
                0x0000000000000850       0x26 build\kernel\components\finsh\finsh_compiler.o
 .riscv.attributes
                0x0000000000000876       0x26 build\kernel\components\finsh\finsh_heap.o
 .riscv.attributes
                0x000000000000089c       0x26 build\kernel\components\finsh\finsh_ops.o
 .riscv.attributes
                0x00000000000008c2       0x26 build\kernel\components\finsh\finsh_error.o
 .riscv.attributes
                0x00000000000008e8       0x26 build\kernel\components\finsh\finsh_token.o
 .riscv.attributes
                0x000000000000090e       0x26 build\kernel\components\finsh\finsh_init.o
 .riscv.attributes
                0x0000000000000934       0x26 build\kernel\components\libc\compilers\common\time.o
 .riscv.attributes
                0x000000000000095a       0x26 libraries\hal_drivers\drv_gpio.o
 .riscv.attributes
                0x0000000000000980       0x26 libraries\hal_drivers\drv_rtc.o
 .riscv.attributes
                0x00000000000009a6       0x26 libraries\hal_drivers\drv_soft_i2c.o
 .riscv.attributes
                0x00000000000009cc       0x26 libraries\hal_drivers\drv_wdt.o
 .riscv.attributes
                0x00000000000009f2       0x26 libraries\hal_drivers\drv_sdio.o
 .riscv.attributes
                0x0000000000000a18       0x26 libraries\hal_drivers\drv_adc.o
 .riscv.attributes
                0x0000000000000a3e       0x26 libraries\hal_drivers\drv_usart.o
 .riscv.attributes
                0x0000000000000a64       0x26 libraries\hal_drivers\drv_pwm.o
 .riscv.attributes
                0x0000000000000a8a       0x26 libraries\hal_drivers\drv_hwtimer.o
 .riscv.attributes
                0x0000000000000ab0       0x24 libcpu\cpu\context_gcc.o
 .riscv.attributes
                0x0000000000000ad4       0x26 libcpu\cpu\cpuport.o
 .riscv.attributes
                0x0000000000000afa       0x26 libcpu\cpu\interrupt.o
 .riscv.attributes
                0x0000000000000b20       0x26 libraries\hal_libraries\ab32vg1_hal\source\ab32vg1_hal_gpio.o
 .riscv.attributes
                0x0000000000000b46       0x26 libraries\hal_libraries\ab32vg1_hal\source\ab32vg1_hal_uart.o
 .riscv.attributes
                0x0000000000000b6c       0x26 libraries\hal_libraries\ab32vg1_hal\source\ab32vg1_hal.o
 .riscv.attributes
                0x0000000000000b92       0x26 libraries\hal_libraries\ab32vg1_hal\source\ab32vg1_hal_rcu.o
 .riscv.attributes
                0x0000000000000bb8       0x24 libraries\hal_libraries\bmsis\source\startup.o
 .riscv.attributes
                0x0000000000000bdc       0x26 libraries\hal_libraries\bmsis\source\system_ab32vgx.o
 .riscv.attributes
                0x0000000000000c02       0x21 d:/program_files/programming/rt-threadstudio/repo/extract/toolchain_support_packages/risc-v/risc-v-gcc/10.1.0/bin/../lib/gcc/riscv64-unknown-elf/10.1.0/rv32im/ilp32\libgcc.a(_udivdi3.o)
 .riscv.attributes
                0x0000000000000c23       0x21 d:/program_files/programming/rt-threadstudio/repo/extract/toolchain_support_packages/risc-v/risc-v-gcc/10.1.0/bin/../lib/gcc/riscv64-unknown-elf/10.1.0/rv32im/ilp32\libgcc.a(divdf3.o)
 .riscv.attributes
                0x0000000000000c44       0x21 d:/program_files/programming/rt-threadstudio/repo/extract/toolchain_support_packages/risc-v/risc-v-gcc/10.1.0/bin/../lib/gcc/riscv64-unknown-elf/10.1.0/rv32im/ilp32\libgcc.a(muldf3.o)
 .riscv.attributes
                0x0000000000000c65       0x21 d:/program_files/programming/rt-threadstudio/repo/extract/toolchain_support_packages/risc-v/risc-v-gcc/10.1.0/bin/../lib/gcc/riscv64-unknown-elf/10.1.0/rv32im/ilp32\libgcc.a(fixdfsi.o)
 .riscv.attributes
                0x0000000000000c86       0x21 d:/program_files/programming/rt-threadstudio/repo/extract/toolchain_support_packages/risc-v/risc-v-gcc/10.1.0/bin/../lib/gcc/riscv64-unknown-elf/10.1.0/rv32im/ilp32\libgcc.a(floatunsidf.o)
 .riscv.attributes
                0x0000000000000ca7       0x21 d:/program_files/programming/rt-threadstudio/repo/extract/toolchain_support_packages/risc-v/risc-v-gcc/10.1.0/bin/../lib/gcc/riscv64-unknown-elf/10.1.0/rv32im/ilp32\libgcc.a(addsf3.o)
 .riscv.attributes
                0x0000000000000cc8       0x21 d:/program_files/programming/rt-threadstudio/repo/extract/toolchain_support_packages/risc-v/risc-v-gcc/10.1.0/bin/../lib/gcc/riscv64-unknown-elf/10.1.0/rv32im/ilp32\libgcc.a(divsf3.o)
 .riscv.attributes
                0x0000000000000ce9       0x21 d:/program_files/programming/rt-threadstudio/repo/extract/toolchain_support_packages/risc-v/risc-v-gcc/10.1.0/bin/../lib/gcc/riscv64-unknown-elf/10.1.0/rv32im/ilp32\libgcc.a(eqsf2.o)
 .riscv.attributes
                0x0000000000000d0a       0x21 d:/program_files/programming/rt-threadstudio/repo/extract/toolchain_support_packages/risc-v/risc-v-gcc/10.1.0/bin/../lib/gcc/riscv64-unknown-elf/10.1.0/rv32im/ilp32\libgcc.a(gesf2.o)
 .riscv.attributes
                0x0000000000000d2b       0x21 d:/program_files/programming/rt-threadstudio/repo/extract/toolchain_support_packages/risc-v/risc-v-gcc/10.1.0/bin/../lib/gcc/riscv64-unknown-elf/10.1.0/rv32im/ilp32\libgcc.a(lesf2.o)
 .riscv.attributes
                0x0000000000000d4c       0x21 d:/program_files/programming/rt-threadstudio/repo/extract/toolchain_support_packages/risc-v/risc-v-gcc/10.1.0/bin/../lib/gcc/riscv64-unknown-elf/10.1.0/rv32im/ilp32\libgcc.a(mulsf3.o)
 .riscv.attributes
                0x0000000000000d6d       0x21 d:/program_files/programming/rt-threadstudio/repo/extract/toolchain_support_packages/risc-v/risc-v-gcc/10.1.0/bin/../lib/gcc/riscv64-unknown-elf/10.1.0/rv32im/ilp32\libgcc.a(subsf3.o)
 .riscv.attributes
                0x0000000000000d8e       0x21 d:/program_files/programming/rt-threadstudio/repo/extract/toolchain_support_packages/risc-v/risc-v-gcc/10.1.0/bin/../lib/gcc/riscv64-unknown-elf/10.1.0/rv32im/ilp32\libgcc.a(fixsfsi.o)
 .riscv.attributes
                0x0000000000000daf       0x21 d:/program_files/programming/rt-threadstudio/repo/extract/toolchain_support_packages/risc-v/risc-v-gcc/10.1.0/bin/../lib/gcc/riscv64-unknown-elf/10.1.0/rv32im/ilp32\libgcc.a(fixunssfsi.o)
 .riscv.attributes
                0x0000000000000dd0       0x21 d:/program_files/programming/rt-threadstudio/repo/extract/toolchain_support_packages/risc-v/risc-v-gcc/10.1.0/bin/../lib/gcc/riscv64-unknown-elf/10.1.0/rv32im/ilp32\libgcc.a(floatsisf.o)
 .riscv.attributes
                0x0000000000000df1       0x21 d:/program_files/programming/rt-threadstudio/repo/extract/toolchain_support_packages/risc-v/risc-v-gcc/10.1.0/bin/../lib/gcc/riscv64-unknown-elf/10.1.0/rv32im/ilp32\libgcc.a(floatunsisf.o)
 .riscv.attributes
                0x0000000000000e12       0x21 d:/program_files/programming/rt-threadstudio/repo/extract/toolchain_support_packages/risc-v/risc-v-gcc/10.1.0/bin/../lib/gcc/riscv64-unknown-elf/10.1.0/rv32im/ilp32\libgcc.a(_clz.o)
 .riscv.attributes
                0x0000000000000e33       0x21 d:/program_files/programming/rt-threadstudio/repo/extract/toolchain_support_packages/risc-v/risc-v-gcc/10.1.0/bin/../lib/gcc/riscv64-unknown-elf/10.1.0/rv32im/ilp32\libgcc.a(_clzsi2.o)
 .riscv.attributes
                0x0000000000000e54       0x21 d:/program_files/programming/rt-threadstudio/repo/extract/toolchain_support_packages/risc-v/risc-v-gcc/10.1.0/bin/../lib/gcc/riscv64-unknown-elf/10.1.0/../../../../riscv64-unknown-elf/lib/rv32im/ilp32\libc.a(lib_a-errno.o)
 .riscv.attributes
                0x0000000000000e75       0x21 d:/program_files/programming/rt-threadstudio/repo/extract/toolchain_support_packages/risc-v/risc-v-gcc/10.1.0/bin/../lib/gcc/riscv64-unknown-elf/10.1.0/../../../../riscv64-unknown-elf/lib/rv32im/ilp32\libc.a(lib_a-impure.o)
 .riscv.attributes
                0x0000000000000e96       0x21 d:/program_files/programming/rt-threadstudio/repo/extract/toolchain_support_packages/risc-v/risc-v-gcc/10.1.0/bin/../lib/gcc/riscv64-unknown-elf/10.1.0/../../../../riscv64-unknown-elf/lib/rv32im/ilp32\libc.a(lib_a-strrchr.o)
 .riscv.attributes
                0x0000000000000eb7       0x21 d:/program_files/programming/rt-threadstudio/repo/extract/toolchain_support_packages/risc-v/risc-v-gcc/10.1.0/bin/../lib/gcc/riscv64-unknown-elf/10.1.0/../../../../riscv64-unknown-elf/lib/rv32im/ilp32\libc.a(lib_a-strchr.o)

.debug_info     0x0000000000000000     0x38dc
 .debug_info    0x0000000000000000      0x7b2 d:/program_files/programming/rt-threadstudio/repo/extract/toolchain_support_packages/risc-v/risc-v-gcc/10.1.0/bin/../lib/gcc/riscv64-unknown-elf/10.1.0/rv32im/ilp32\libgcc.a(_udivdi3.o)
 .debug_info    0x00000000000007b2      0x72a d:/program_files/programming/rt-threadstudio/repo/extract/toolchain_support_packages/risc-v/risc-v-gcc/10.1.0/bin/../lib/gcc/riscv64-unknown-elf/10.1.0/rv32im/ilp32\libgcc.a(divdf3.o)
 .debug_info    0x0000000000000edc      0x766 d:/program_files/programming/rt-threadstudio/repo/extract/toolchain_support_packages/risc-v/risc-v-gcc/10.1.0/bin/../lib/gcc/riscv64-unknown-elf/10.1.0/rv32im/ilp32\libgcc.a(muldf3.o)
 .debug_info    0x0000000000001642      0x1e7 d:/program_files/programming/rt-threadstudio/repo/extract/toolchain_support_packages/risc-v/risc-v-gcc/10.1.0/bin/../lib/gcc/riscv64-unknown-elf/10.1.0/rv32im/ilp32\libgcc.a(fixdfsi.o)
 .debug_info    0x0000000000001829      0x28e d:/program_files/programming/rt-threadstudio/repo/extract/toolchain_support_packages/risc-v/risc-v-gcc/10.1.0/bin/../lib/gcc/riscv64-unknown-elf/10.1.0/rv32im/ilp32\libgcc.a(floatunsidf.o)
 .debug_info    0x0000000000001ab7      0x33c d:/program_files/programming/rt-threadstudio/repo/extract/toolchain_support_packages/risc-v/risc-v-gcc/10.1.0/bin/../lib/gcc/riscv64-unknown-elf/10.1.0/rv32im/ilp32\libgcc.a(addsf3.o)
 .debug_info    0x0000000000001df3      0x3a3 d:/program_files/programming/rt-threadstudio/repo/extract/toolchain_support_packages/risc-v/risc-v-gcc/10.1.0/bin/../lib/gcc/riscv64-unknown-elf/10.1.0/rv32im/ilp32\libgcc.a(divsf3.o)
 .debug_info    0x0000000000002196      0x227 d:/program_files/programming/rt-threadstudio/repo/extract/toolchain_support_packages/risc-v/risc-v-gcc/10.1.0/bin/../lib/gcc/riscv64-unknown-elf/10.1.0/rv32im/ilp32\libgcc.a(eqsf2.o)
 .debug_info    0x00000000000023bd      0x22a d:/program_files/programming/rt-threadstudio/repo/extract/toolchain_support_packages/risc-v/risc-v-gcc/10.1.0/bin/../lib/gcc/riscv64-unknown-elf/10.1.0/rv32im/ilp32\libgcc.a(gesf2.o)
 .debug_info    0x00000000000025e7      0x22a d:/program_files/programming/rt-threadstudio/repo/extract/toolchain_support_packages/risc-v/risc-v-gcc/10.1.0/bin/../lib/gcc/riscv64-unknown-elf/10.1.0/rv32im/ilp32\libgcc.a(lesf2.o)
 .debug_info    0x0000000000002811      0x394 d:/program_files/programming/rt-threadstudio/repo/extract/toolchain_support_packages/risc-v/risc-v-gcc/10.1.0/bin/../lib/gcc/riscv64-unknown-elf/10.1.0/rv32im/ilp32\libgcc.a(mulsf3.o)
 .debug_info    0x0000000000002ba5      0x33c d:/program_files/programming/rt-threadstudio/repo/extract/toolchain_support_packages/risc-v/risc-v-gcc/10.1.0/bin/../lib/gcc/riscv64-unknown-elf/10.1.0/rv32im/ilp32\libgcc.a(subsf3.o)
 .debug_info    0x0000000000002ee1      0x1c7 d:/program_files/programming/rt-threadstudio/repo/extract/toolchain_support_packages/risc-v/risc-v-gcc/10.1.0/bin/../lib/gcc/riscv64-unknown-elf/10.1.0/rv32im/ilp32\libgcc.a(fixsfsi.o)
 .debug_info    0x00000000000030a8      0x1b4 d:/program_files/programming/rt-threadstudio/repo/extract/toolchain_support_packages/risc-v/risc-v-gcc/10.1.0/bin/../lib/gcc/riscv64-unknown-elf/10.1.0/rv32im/ilp32\libgcc.a(fixunssfsi.o)
 .debug_info    0x000000000000325c      0x23c d:/program_files/programming/rt-threadstudio/repo/extract/toolchain_support_packages/risc-v/risc-v-gcc/10.1.0/bin/../lib/gcc/riscv64-unknown-elf/10.1.0/rv32im/ilp32\libgcc.a(floatsisf.o)
 .debug_info    0x0000000000003498      0x229 d:/program_files/programming/rt-threadstudio/repo/extract/toolchain_support_packages/risc-v/risc-v-gcc/10.1.0/bin/../lib/gcc/riscv64-unknown-elf/10.1.0/rv32im/ilp32\libgcc.a(floatunsisf.o)
 .debug_info    0x00000000000036c1       0xd7 d:/program_files/programming/rt-threadstudio/repo/extract/toolchain_support_packages/risc-v/risc-v-gcc/10.1.0/bin/../lib/gcc/riscv64-unknown-elf/10.1.0/rv32im/ilp32\libgcc.a(_clz.o)
 .debug_info    0x0000000000003798      0x144 d:/program_files/programming/rt-threadstudio/repo/extract/toolchain_support_packages/risc-v/risc-v-gcc/10.1.0/bin/../lib/gcc/riscv64-unknown-elf/10.1.0/rv32im/ilp32\libgcc.a(_clzsi2.o)

.debug_abbrev   0x0000000000000000     0x178c
 .debug_abbrev  0x0000000000000000      0x19d d:/program_files/programming/rt-threadstudio/repo/extract/toolchain_support_packages/risc-v/risc-v-gcc/10.1.0/bin/../lib/gcc/riscv64-unknown-elf/10.1.0/rv32im/ilp32\libgcc.a(_udivdi3.o)
 .debug_abbrev  0x000000000000019d      0x173 d:/program_files/programming/rt-threadstudio/repo/extract/toolchain_support_packages/risc-v/risc-v-gcc/10.1.0/bin/../lib/gcc/riscv64-unknown-elf/10.1.0/rv32im/ilp32\libgcc.a(divdf3.o)
 .debug_abbrev  0x0000000000000310      0x185 d:/program_files/programming/rt-threadstudio/repo/extract/toolchain_support_packages/risc-v/risc-v-gcc/10.1.0/bin/../lib/gcc/riscv64-unknown-elf/10.1.0/rv32im/ilp32\libgcc.a(muldf3.o)
 .debug_abbrev  0x0000000000000495      0x15e d:/program_files/programming/rt-threadstudio/repo/extract/toolchain_support_packages/risc-v/risc-v-gcc/10.1.0/bin/../lib/gcc/riscv64-unknown-elf/10.1.0/rv32im/ilp32\libgcc.a(fixdfsi.o)
 .debug_abbrev  0x00000000000005f3      0x164 d:/program_files/programming/rt-threadstudio/repo/extract/toolchain_support_packages/risc-v/risc-v-gcc/10.1.0/bin/../lib/gcc/riscv64-unknown-elf/10.1.0/rv32im/ilp32\libgcc.a(floatunsidf.o)
 .debug_abbrev  0x0000000000000757      0x161 d:/program_files/programming/rt-threadstudio/repo/extract/toolchain_support_packages/risc-v/risc-v-gcc/10.1.0/bin/../lib/gcc/riscv64-unknown-elf/10.1.0/rv32im/ilp32\libgcc.a(addsf3.o)
 .debug_abbrev  0x00000000000008b8      0x14c d:/program_files/programming/rt-threadstudio/repo/extract/toolchain_support_packages/risc-v/risc-v-gcc/10.1.0/bin/../lib/gcc/riscv64-unknown-elf/10.1.0/rv32im/ilp32\libgcc.a(divsf3.o)
 .debug_abbrev  0x0000000000000a04      0x129 d:/program_files/programming/rt-threadstudio/repo/extract/toolchain_support_packages/risc-v/risc-v-gcc/10.1.0/bin/../lib/gcc/riscv64-unknown-elf/10.1.0/rv32im/ilp32\libgcc.a(eqsf2.o)
 .debug_abbrev  0x0000000000000b2d      0x14d d:/program_files/programming/rt-threadstudio/repo/extract/toolchain_support_packages/risc-v/risc-v-gcc/10.1.0/bin/../lib/gcc/riscv64-unknown-elf/10.1.0/rv32im/ilp32\libgcc.a(gesf2.o)
 .debug_abbrev  0x0000000000000c7a      0x14d d:/program_files/programming/rt-threadstudio/repo/extract/toolchain_support_packages/risc-v/risc-v-gcc/10.1.0/bin/../lib/gcc/riscv64-unknown-elf/10.1.0/rv32im/ilp32\libgcc.a(lesf2.o)
 .debug_abbrev  0x0000000000000dc7      0x166 d:/program_files/programming/rt-threadstudio/repo/extract/toolchain_support_packages/risc-v/risc-v-gcc/10.1.0/bin/../lib/gcc/riscv64-unknown-elf/10.1.0/rv32im/ilp32\libgcc.a(mulsf3.o)
 .debug_abbrev  0x0000000000000f2d      0x161 d:/program_files/programming/rt-threadstudio/repo/extract/toolchain_support_packages/risc-v/risc-v-gcc/10.1.0/bin/../lib/gcc/riscv64-unknown-elf/10.1.0/rv32im/ilp32\libgcc.a(subsf3.o)
 .debug_abbrev  0x000000000000108e      0x15e d:/program_files/programming/rt-threadstudio/repo/extract/toolchain_support_packages/risc-v/risc-v-gcc/10.1.0/bin/../lib/gcc/riscv64-unknown-elf/10.1.0/rv32im/ilp32\libgcc.a(fixsfsi.o)
 .debug_abbrev  0x00000000000011ec      0x14d d:/program_files/programming/rt-threadstudio/repo/extract/toolchain_support_packages/risc-v/risc-v-gcc/10.1.0/bin/../lib/gcc/riscv64-unknown-elf/10.1.0/rv32im/ilp32\libgcc.a(fixunssfsi.o)
 .debug_abbrev  0x0000000000001339      0x184 d:/program_files/programming/rt-threadstudio/repo/extract/toolchain_support_packages/risc-v/risc-v-gcc/10.1.0/bin/../lib/gcc/riscv64-unknown-elf/10.1.0/rv32im/ilp32\libgcc.a(floatsisf.o)
 .debug_abbrev  0x00000000000014bd      0x195 d:/program_files/programming/rt-threadstudio/repo/extract/toolchain_support_packages/risc-v/risc-v-gcc/10.1.0/bin/../lib/gcc/riscv64-unknown-elf/10.1.0/rv32im/ilp32\libgcc.a(floatunsisf.o)
 .debug_abbrev  0x0000000000001652       0x70 d:/program_files/programming/rt-threadstudio/repo/extract/toolchain_support_packages/risc-v/risc-v-gcc/10.1.0/bin/../lib/gcc/riscv64-unknown-elf/10.1.0/rv32im/ilp32\libgcc.a(_clz.o)
 .debug_abbrev  0x00000000000016c2       0xca d:/program_files/programming/rt-threadstudio/repo/extract/toolchain_support_packages/risc-v/risc-v-gcc/10.1.0/bin/../lib/gcc/riscv64-unknown-elf/10.1.0/rv32im/ilp32\libgcc.a(_clzsi2.o)

.debug_loc      0x0000000000000000     0x5b86
 .debug_loc     0x0000000000000000      0xbcd d:/program_files/programming/rt-threadstudio/repo/extract/toolchain_support_packages/risc-v/risc-v-gcc/10.1.0/bin/../lib/gcc/riscv64-unknown-elf/10.1.0/rv32im/ilp32\libgcc.a(_udivdi3.o)
 .debug_loc     0x0000000000000bcd     0x1494 d:/program_files/programming/rt-threadstudio/repo/extract/toolchain_support_packages/risc-v/risc-v-gcc/10.1.0/bin/../lib/gcc/riscv64-unknown-elf/10.1.0/rv32im/ilp32\libgcc.a(divdf3.o)
 .debug_loc     0x0000000000002061      0xd56 d:/program_files/programming/rt-threadstudio/repo/extract/toolchain_support_packages/risc-v/risc-v-gcc/10.1.0/bin/../lib/gcc/riscv64-unknown-elf/10.1.0/rv32im/ilp32\libgcc.a(muldf3.o)
 .debug_loc     0x0000000000002db7      0x181 d:/program_files/programming/rt-threadstudio/repo/extract/toolchain_support_packages/risc-v/risc-v-gcc/10.1.0/bin/../lib/gcc/riscv64-unknown-elf/10.1.0/rv32im/ilp32\libgcc.a(fixdfsi.o)
 .debug_loc     0x0000000000002f38      0x14f d:/program_files/programming/rt-threadstudio/repo/extract/toolchain_support_packages/risc-v/risc-v-gcc/10.1.0/bin/../lib/gcc/riscv64-unknown-elf/10.1.0/rv32im/ilp32\libgcc.a(floatunsidf.o)
 .debug_loc     0x0000000000003087      0x909 d:/program_files/programming/rt-threadstudio/repo/extract/toolchain_support_packages/risc-v/risc-v-gcc/10.1.0/bin/../lib/gcc/riscv64-unknown-elf/10.1.0/rv32im/ilp32\libgcc.a(addsf3.o)
 .debug_loc     0x0000000000003990      0x74d d:/program_files/programming/rt-threadstudio/repo/extract/toolchain_support_packages/risc-v/risc-v-gcc/10.1.0/bin/../lib/gcc/riscv64-unknown-elf/10.1.0/rv32im/ilp32\libgcc.a(divsf3.o)
 .debug_loc     0x00000000000040dd       0x46 d:/program_files/programming/rt-threadstudio/repo/extract/toolchain_support_packages/risc-v/risc-v-gcc/10.1.0/bin/../lib/gcc/riscv64-unknown-elf/10.1.0/rv32im/ilp32\libgcc.a(eqsf2.o)
 .debug_loc     0x0000000000004123      0x145 d:/program_files/programming/rt-threadstudio/repo/extract/toolchain_support_packages/risc-v/risc-v-gcc/10.1.0/bin/../lib/gcc/riscv64-unknown-elf/10.1.0/rv32im/ilp32\libgcc.a(gesf2.o)
 .debug_loc     0x0000000000004268      0x145 d:/program_files/programming/rt-threadstudio/repo/extract/toolchain_support_packages/risc-v/risc-v-gcc/10.1.0/bin/../lib/gcc/riscv64-unknown-elf/10.1.0/rv32im/ilp32\libgcc.a(lesf2.o)
 .debug_loc     0x00000000000043ad      0x5e4 d:/program_files/programming/rt-threadstudio/repo/extract/toolchain_support_packages/risc-v/risc-v-gcc/10.1.0/bin/../lib/gcc/riscv64-unknown-elf/10.1.0/rv32im/ilp32\libgcc.a(mulsf3.o)
 .debug_loc     0x0000000000004991      0xc52 d:/program_files/programming/rt-threadstudio/repo/extract/toolchain_support_packages/risc-v/risc-v-gcc/10.1.0/bin/../lib/gcc/riscv64-unknown-elf/10.1.0/rv32im/ilp32\libgcc.a(subsf3.o)
 .debug_loc     0x00000000000055e3      0x12f d:/program_files/programming/rt-threadstudio/repo/extract/toolchain_support_packages/risc-v/risc-v-gcc/10.1.0/bin/../lib/gcc/riscv64-unknown-elf/10.1.0/rv32im/ilp32\libgcc.a(fixsfsi.o)
 .debug_loc     0x0000000000005712      0x113 d:/program_files/programming/rt-threadstudio/repo/extract/toolchain_support_packages/risc-v/risc-v-gcc/10.1.0/bin/../lib/gcc/riscv64-unknown-elf/10.1.0/rv32im/ilp32\libgcc.a(fixunssfsi.o)
 .debug_loc     0x0000000000005825      0x191 d:/program_files/programming/rt-threadstudio/repo/extract/toolchain_support_packages/risc-v/risc-v-gcc/10.1.0/bin/../lib/gcc/riscv64-unknown-elf/10.1.0/rv32im/ilp32\libgcc.a(floatsisf.o)
 .debug_loc     0x00000000000059b6      0x165 d:/program_files/programming/rt-threadstudio/repo/extract/toolchain_support_packages/risc-v/risc-v-gcc/10.1.0/bin/../lib/gcc/riscv64-unknown-elf/10.1.0/rv32im/ilp32\libgcc.a(floatunsisf.o)
 .debug_loc     0x0000000000005b1b       0x6b d:/program_files/programming/rt-threadstudio/repo/extract/toolchain_support_packages/risc-v/risc-v-gcc/10.1.0/bin/../lib/gcc/riscv64-unknown-elf/10.1.0/rv32im/ilp32\libgcc.a(_clzsi2.o)

.debug_aranges  0x0000000000000000      0x238
 .debug_aranges
                0x0000000000000000       0x20 d:/program_files/programming/rt-threadstudio/repo/extract/toolchain_support_packages/risc-v/risc-v-gcc/10.1.0/bin/../lib/gcc/riscv64-unknown-elf/10.1.0/rv32im/ilp32\libgcc.a(_udivdi3.o)
 .debug_aranges
                0x0000000000000020       0x20 d:/program_files/programming/rt-threadstudio/repo/extract/toolchain_support_packages/risc-v/risc-v-gcc/10.1.0/bin/../lib/gcc/riscv64-unknown-elf/10.1.0/rv32im/ilp32\libgcc.a(divdf3.o)
 .debug_aranges
                0x0000000000000040       0x20 d:/program_files/programming/rt-threadstudio/repo/extract/toolchain_support_packages/risc-v/risc-v-gcc/10.1.0/bin/../lib/gcc/riscv64-unknown-elf/10.1.0/rv32im/ilp32\libgcc.a(muldf3.o)
 .debug_aranges
                0x0000000000000060       0x20 d:/program_files/programming/rt-threadstudio/repo/extract/toolchain_support_packages/risc-v/risc-v-gcc/10.1.0/bin/../lib/gcc/riscv64-unknown-elf/10.1.0/rv32im/ilp32\libgcc.a(fixdfsi.o)
 .debug_aranges
                0x0000000000000080       0x20 d:/program_files/programming/rt-threadstudio/repo/extract/toolchain_support_packages/risc-v/risc-v-gcc/10.1.0/bin/../lib/gcc/riscv64-unknown-elf/10.1.0/rv32im/ilp32\libgcc.a(floatunsidf.o)
 .debug_aranges
                0x00000000000000a0       0x20 d:/program_files/programming/rt-threadstudio/repo/extract/toolchain_support_packages/risc-v/risc-v-gcc/10.1.0/bin/../lib/gcc/riscv64-unknown-elf/10.1.0/rv32im/ilp32\libgcc.a(addsf3.o)
 .debug_aranges
                0x00000000000000c0       0x20 d:/program_files/programming/rt-threadstudio/repo/extract/toolchain_support_packages/risc-v/risc-v-gcc/10.1.0/bin/../lib/gcc/riscv64-unknown-elf/10.1.0/rv32im/ilp32\libgcc.a(divsf3.o)
 .debug_aranges
                0x00000000000000e0       0x20 d:/program_files/programming/rt-threadstudio/repo/extract/toolchain_support_packages/risc-v/risc-v-gcc/10.1.0/bin/../lib/gcc/riscv64-unknown-elf/10.1.0/rv32im/ilp32\libgcc.a(eqsf2.o)
 .debug_aranges
                0x0000000000000100       0x20 d:/program_files/programming/rt-threadstudio/repo/extract/toolchain_support_packages/risc-v/risc-v-gcc/10.1.0/bin/../lib/gcc/riscv64-unknown-elf/10.1.0/rv32im/ilp32\libgcc.a(gesf2.o)
 .debug_aranges
                0x0000000000000120       0x20 d:/program_files/programming/rt-threadstudio/repo/extract/toolchain_support_packages/risc-v/risc-v-gcc/10.1.0/bin/../lib/gcc/riscv64-unknown-elf/10.1.0/rv32im/ilp32\libgcc.a(lesf2.o)
 .debug_aranges
                0x0000000000000140       0x20 d:/program_files/programming/rt-threadstudio/repo/extract/toolchain_support_packages/risc-v/risc-v-gcc/10.1.0/bin/../lib/gcc/riscv64-unknown-elf/10.1.0/rv32im/ilp32\libgcc.a(mulsf3.o)
 .debug_aranges
                0x0000000000000160       0x20 d:/program_files/programming/rt-threadstudio/repo/extract/toolchain_support_packages/risc-v/risc-v-gcc/10.1.0/bin/../lib/gcc/riscv64-unknown-elf/10.1.0/rv32im/ilp32\libgcc.a(subsf3.o)
 .debug_aranges
                0x0000000000000180       0x20 d:/program_files/programming/rt-threadstudio/repo/extract/toolchain_support_packages/risc-v/risc-v-gcc/10.1.0/bin/../lib/gcc/riscv64-unknown-elf/10.1.0/rv32im/ilp32\libgcc.a(fixsfsi.o)
 .debug_aranges
                0x00000000000001a0       0x20 d:/program_files/programming/rt-threadstudio/repo/extract/toolchain_support_packages/risc-v/risc-v-gcc/10.1.0/bin/../lib/gcc/riscv64-unknown-elf/10.1.0/rv32im/ilp32\libgcc.a(fixunssfsi.o)
 .debug_aranges
                0x00000000000001c0       0x20 d:/program_files/programming/rt-threadstudio/repo/extract/toolchain_support_packages/risc-v/risc-v-gcc/10.1.0/bin/../lib/gcc/riscv64-unknown-elf/10.1.0/rv32im/ilp32\libgcc.a(floatsisf.o)
 .debug_aranges
                0x00000000000001e0       0x20 d:/program_files/programming/rt-threadstudio/repo/extract/toolchain_support_packages/risc-v/risc-v-gcc/10.1.0/bin/../lib/gcc/riscv64-unknown-elf/10.1.0/rv32im/ilp32\libgcc.a(floatunsisf.o)
 .debug_aranges
                0x0000000000000200       0x18 d:/program_files/programming/rt-threadstudio/repo/extract/toolchain_support_packages/risc-v/risc-v-gcc/10.1.0/bin/../lib/gcc/riscv64-unknown-elf/10.1.0/rv32im/ilp32\libgcc.a(_clz.o)
 .debug_aranges
                0x0000000000000218       0x20 d:/program_files/programming/rt-threadstudio/repo/extract/toolchain_support_packages/risc-v/risc-v-gcc/10.1.0/bin/../lib/gcc/riscv64-unknown-elf/10.1.0/rv32im/ilp32\libgcc.a(_clzsi2.o)

.debug_ranges   0x0000000000000000      0xb40
 .debug_ranges  0x0000000000000000       0xf8 d:/program_files/programming/rt-threadstudio/repo/extract/toolchain_support_packages/risc-v/risc-v-gcc/10.1.0/bin/../lib/gcc/riscv64-unknown-elf/10.1.0/rv32im/ilp32\libgcc.a(_udivdi3.o)
 .debug_ranges  0x00000000000000f8      0x198 d:/program_files/programming/rt-threadstudio/repo/extract/toolchain_support_packages/risc-v/risc-v-gcc/10.1.0/bin/../lib/gcc/riscv64-unknown-elf/10.1.0/rv32im/ilp32\libgcc.a(divdf3.o)
 .debug_ranges  0x0000000000000290      0x1e0 d:/program_files/programming/rt-threadstudio/repo/extract/toolchain_support_packages/risc-v/risc-v-gcc/10.1.0/bin/../lib/gcc/riscv64-unknown-elf/10.1.0/rv32im/ilp32\libgcc.a(muldf3.o)
 .debug_ranges  0x0000000000000470       0x18 d:/program_files/programming/rt-threadstudio/repo/extract/toolchain_support_packages/risc-v/risc-v-gcc/10.1.0/bin/../lib/gcc/riscv64-unknown-elf/10.1.0/rv32im/ilp32\libgcc.a(fixdfsi.o)
 .debug_ranges  0x0000000000000488       0x70 d:/program_files/programming/rt-threadstudio/repo/extract/toolchain_support_packages/risc-v/risc-v-gcc/10.1.0/bin/../lib/gcc/riscv64-unknown-elf/10.1.0/rv32im/ilp32\libgcc.a(floatunsidf.o)
 .debug_ranges  0x00000000000004f8      0x168 d:/program_files/programming/rt-threadstudio/repo/extract/toolchain_support_packages/risc-v/risc-v-gcc/10.1.0/bin/../lib/gcc/riscv64-unknown-elf/10.1.0/rv32im/ilp32\libgcc.a(addsf3.o)
 .debug_ranges  0x0000000000000660       0xc0 d:/program_files/programming/rt-threadstudio/repo/extract/toolchain_support_packages/risc-v/risc-v-gcc/10.1.0/bin/../lib/gcc/riscv64-unknown-elf/10.1.0/rv32im/ilp32\libgcc.a(divsf3.o)
 .debug_ranges  0x0000000000000720       0x38 d:/program_files/programming/rt-threadstudio/repo/extract/toolchain_support_packages/risc-v/risc-v-gcc/10.1.0/bin/../lib/gcc/riscv64-unknown-elf/10.1.0/rv32im/ilp32\libgcc.a(eqsf2.o)
 .debug_ranges  0x0000000000000758       0x70 d:/program_files/programming/rt-threadstudio/repo/extract/toolchain_support_packages/risc-v/risc-v-gcc/10.1.0/bin/../lib/gcc/riscv64-unknown-elf/10.1.0/rv32im/ilp32\libgcc.a(gesf2.o)
 .debug_ranges  0x00000000000007c8       0x70 d:/program_files/programming/rt-threadstudio/repo/extract/toolchain_support_packages/risc-v/risc-v-gcc/10.1.0/bin/../lib/gcc/riscv64-unknown-elf/10.1.0/rv32im/ilp32\libgcc.a(lesf2.o)
 .debug_ranges  0x0000000000000838       0xa8 d:/program_files/programming/rt-threadstudio/repo/extract/toolchain_support_packages/risc-v/risc-v-gcc/10.1.0/bin/../lib/gcc/riscv64-unknown-elf/10.1.0/rv32im/ilp32\libgcc.a(mulsf3.o)
 .debug_ranges  0x00000000000008e0      0x170 d:/program_files/programming/rt-threadstudio/repo/extract/toolchain_support_packages/risc-v/risc-v-gcc/10.1.0/bin/../lib/gcc/riscv64-unknown-elf/10.1.0/rv32im/ilp32\libgcc.a(subsf3.o)
 .debug_ranges  0x0000000000000a50       0x18 d:/program_files/programming/rt-threadstudio/repo/extract/toolchain_support_packages/risc-v/risc-v-gcc/10.1.0/bin/../lib/gcc/riscv64-unknown-elf/10.1.0/rv32im/ilp32\libgcc.a(fixsfsi.o)
 .debug_ranges  0x0000000000000a68       0x18 d:/program_files/programming/rt-threadstudio/repo/extract/toolchain_support_packages/risc-v/risc-v-gcc/10.1.0/bin/../lib/gcc/riscv64-unknown-elf/10.1.0/rv32im/ilp32\libgcc.a(fixunssfsi.o)
 .debug_ranges  0x0000000000000a80       0x50 d:/program_files/programming/rt-threadstudio/repo/extract/toolchain_support_packages/risc-v/risc-v-gcc/10.1.0/bin/../lib/gcc/riscv64-unknown-elf/10.1.0/rv32im/ilp32\libgcc.a(floatsisf.o)
 .debug_ranges  0x0000000000000ad0       0x50 d:/program_files/programming/rt-threadstudio/repo/extract/toolchain_support_packages/risc-v/risc-v-gcc/10.1.0/bin/../lib/gcc/riscv64-unknown-elf/10.1.0/rv32im/ilp32\libgcc.a(floatunsisf.o)
 .debug_ranges  0x0000000000000b20       0x20 d:/program_files/programming/rt-threadstudio/repo/extract/toolchain_support_packages/risc-v/risc-v-gcc/10.1.0/bin/../lib/gcc/riscv64-unknown-elf/10.1.0/rv32im/ilp32\libgcc.a(_clzsi2.o)

.debug_line     0x0000000000000000     0x61fb
 .debug_line    0x0000000000000000      0x764 d:/program_files/programming/rt-threadstudio/repo/extract/toolchain_support_packages/risc-v/risc-v-gcc/10.1.0/bin/../lib/gcc/riscv64-unknown-elf/10.1.0/rv32im/ilp32\libgcc.a(_udivdi3.o)
 .debug_line    0x0000000000000764      0xf7f d:/program_files/programming/rt-threadstudio/repo/extract/toolchain_support_packages/risc-v/risc-v-gcc/10.1.0/bin/../lib/gcc/riscv64-unknown-elf/10.1.0/rv32im/ilp32\libgcc.a(divdf3.o)
 .debug_line    0x00000000000016e3      0xdba d:/program_files/programming/rt-threadstudio/repo/extract/toolchain_support_packages/risc-v/risc-v-gcc/10.1.0/bin/../lib/gcc/riscv64-unknown-elf/10.1.0/rv32im/ilp32\libgcc.a(muldf3.o)
 .debug_line    0x000000000000249d      0x229 d:/program_files/programming/rt-threadstudio/repo/extract/toolchain_support_packages/risc-v/risc-v-gcc/10.1.0/bin/../lib/gcc/riscv64-unknown-elf/10.1.0/rv32im/ilp32\libgcc.a(fixdfsi.o)
 .debug_line    0x00000000000026c6      0x283 d:/program_files/programming/rt-threadstudio/repo/extract/toolchain_support_packages/risc-v/risc-v-gcc/10.1.0/bin/../lib/gcc/riscv64-unknown-elf/10.1.0/rv32im/ilp32\libgcc.a(floatunsidf.o)
 .debug_line    0x0000000000002949      0xa49 d:/program_files/programming/rt-threadstudio/repo/extract/toolchain_support_packages/risc-v/risc-v-gcc/10.1.0/bin/../lib/gcc/riscv64-unknown-elf/10.1.0/rv32im/ilp32\libgcc.a(addsf3.o)
 .debug_line    0x0000000000003392      0x859 d:/program_files/programming/rt-threadstudio/repo/extract/toolchain_support_packages/risc-v/risc-v-gcc/10.1.0/bin/../lib/gcc/riscv64-unknown-elf/10.1.0/rv32im/ilp32\libgcc.a(divsf3.o)
 .debug_line    0x0000000000003beb      0x22b d:/program_files/programming/rt-threadstudio/repo/extract/toolchain_support_packages/risc-v/risc-v-gcc/10.1.0/bin/../lib/gcc/riscv64-unknown-elf/10.1.0/rv32im/ilp32\libgcc.a(eqsf2.o)
 .debug_line    0x0000000000003e16      0x302 d:/program_files/programming/rt-threadstudio/repo/extract/toolchain_support_packages/risc-v/risc-v-gcc/10.1.0/bin/../lib/gcc/riscv64-unknown-elf/10.1.0/rv32im/ilp32\libgcc.a(gesf2.o)
 .debug_line    0x0000000000004118      0x302 d:/program_files/programming/rt-threadstudio/repo/extract/toolchain_support_packages/risc-v/risc-v-gcc/10.1.0/bin/../lib/gcc/riscv64-unknown-elf/10.1.0/rv32im/ilp32\libgcc.a(lesf2.o)
 .debug_line    0x000000000000441a      0x76a d:/program_files/programming/rt-threadstudio/repo/extract/toolchain_support_packages/risc-v/risc-v-gcc/10.1.0/bin/../lib/gcc/riscv64-unknown-elf/10.1.0/rv32im/ilp32\libgcc.a(mulsf3.o)
 .debug_line    0x0000000000004b84      0xaa9 d:/program_files/programming/rt-threadstudio/repo/extract/toolchain_support_packages/risc-v/risc-v-gcc/10.1.0/bin/../lib/gcc/riscv64-unknown-elf/10.1.0/rv32im/ilp32\libgcc.a(subsf3.o)
 .debug_line    0x000000000000562d      0x219 d:/program_files/programming/rt-threadstudio/repo/extract/toolchain_support_packages/risc-v/risc-v-gcc/10.1.0/bin/../lib/gcc/riscv64-unknown-elf/10.1.0/rv32im/ilp32\libgcc.a(fixsfsi.o)
 .debug_line    0x0000000000005846      0x1aa d:/program_files/programming/rt-threadstudio/repo/extract/toolchain_support_packages/risc-v/risc-v-gcc/10.1.0/bin/../lib/gcc/riscv64-unknown-elf/10.1.0/rv32im/ilp32\libgcc.a(fixunssfsi.o)
 .debug_line    0x00000000000059f0      0x351 d:/program_files/programming/rt-threadstudio/repo/extract/toolchain_support_packages/risc-v/risc-v-gcc/10.1.0/bin/../lib/gcc/riscv64-unknown-elf/10.1.0/rv32im/ilp32\libgcc.a(floatsisf.o)
 .debug_line    0x0000000000005d41      0x352 d:/program_files/programming/rt-threadstudio/repo/extract/toolchain_support_packages/risc-v/risc-v-gcc/10.1.0/bin/../lib/gcc/riscv64-unknown-elf/10.1.0/rv32im/ilp32\libgcc.a(floatunsisf.o)
 .debug_line    0x0000000000006093       0x6e d:/program_files/programming/rt-threadstudio/repo/extract/toolchain_support_packages/risc-v/risc-v-gcc/10.1.0/bin/../lib/gcc/riscv64-unknown-elf/10.1.0/rv32im/ilp32\libgcc.a(_clz.o)
 .debug_line    0x0000000000006101       0xfa d:/program_files/programming/rt-threadstudio/repo/extract/toolchain_support_packages/risc-v/risc-v-gcc/10.1.0/bin/../lib/gcc/riscv64-unknown-elf/10.1.0/rv32im/ilp32\libgcc.a(_clzsi2.o)

.debug_str      0x0000000000000000      0xd9f
 .debug_str     0x0000000000000000      0x286 d:/program_files/programming/rt-threadstudio/repo/extract/toolchain_support_packages/risc-v/risc-v-gcc/10.1.0/bin/../lib/gcc/riscv64-unknown-elf/10.1.0/rv32im/ilp32\libgcc.a(_udivdi3.o)
                                        0x2e6 (size before relaxing)
 .debug_str     0x0000000000000286      0x2d6 d:/program_files/programming/rt-threadstudio/repo/extract/toolchain_support_packages/risc-v/risc-v-gcc/10.1.0/bin/../lib/gcc/riscv64-unknown-elf/10.1.0/rv32im/ilp32\libgcc.a(divdf3.o)
                                        0x403 (size before relaxing)
 .debug_str     0x000000000000055c      0x176 d:/program_files/programming/rt-threadstudio/repo/extract/toolchain_support_packages/risc-v/risc-v-gcc/10.1.0/bin/../lib/gcc/riscv64-unknown-elf/10.1.0/rv32im/ilp32\libgcc.a(muldf3.o)
                                        0x45b (size before relaxing)
 .debug_str     0x00000000000006d2       0x66 d:/program_files/programming/rt-threadstudio/repo/extract/toolchain_support_packages/risc-v/risc-v-gcc/10.1.0/bin/../lib/gcc/riscv64-unknown-elf/10.1.0/rv32im/ilp32\libgcc.a(fixdfsi.o)
                                        0x24f (size before relaxing)
 .debug_str     0x0000000000000738      0x10c d:/program_files/programming/rt-threadstudio/repo/extract/toolchain_support_packages/risc-v/risc-v-gcc/10.1.0/bin/../lib/gcc/riscv64-unknown-elf/10.1.0/rv32im/ilp32\libgcc.a(floatunsidf.o)
                                        0x2eb (size before relaxing)
 .debug_str     0x0000000000000844      0x108 d:/program_files/programming/rt-threadstudio/repo/extract/toolchain_support_packages/risc-v/risc-v-gcc/10.1.0/bin/../lib/gcc/riscv64-unknown-elf/10.1.0/rv32im/ilp32\libgcc.a(addsf3.o)
                                        0x304 (size before relaxing)
 .debug_str     0x000000000000094c       0xf1 d:/program_files/programming/rt-threadstudio/repo/extract/toolchain_support_packages/risc-v/risc-v-gcc/10.1.0/bin/../lib/gcc/riscv64-unknown-elf/10.1.0/rv32im/ilp32\libgcc.a(divsf3.o)
                                        0x36e (size before relaxing)
 .debug_str     0x0000000000000a3d       0x6e d:/program_files/programming/rt-threadstudio/repo/extract/toolchain_support_packages/risc-v/risc-v-gcc/10.1.0/bin/../lib/gcc/riscv64-unknown-elf/10.1.0/rv32im/ilp32\libgcc.a(eqsf2.o)
                                        0x236 (size before relaxing)
 .debug_str     0x0000000000000aab       0x73 d:/program_files/programming/rt-threadstudio/repo/extract/toolchain_support_packages/risc-v/risc-v-gcc/10.1.0/bin/../lib/gcc/riscv64-unknown-elf/10.1.0/rv32im/ilp32\libgcc.a(gesf2.o)
                                        0x25a (size before relaxing)
 .debug_str     0x0000000000000b1e       0x4f d:/program_files/programming/rt-threadstudio/repo/extract/toolchain_support_packages/risc-v/risc-v-gcc/10.1.0/bin/../lib/gcc/riscv64-unknown-elf/10.1.0/rv32im/ilp32\libgcc.a(lesf2.o)
                                        0x25a (size before relaxing)
 .debug_str     0x0000000000000b6d       0x83 d:/program_files/programming/rt-threadstudio/repo/extract/toolchain_support_packages/risc-v/risc-v-gcc/10.1.0/bin/../lib/gcc/riscv64-unknown-elf/10.1.0/rv32im/ilp32\libgcc.a(mulsf3.o)
                                        0x329 (size before relaxing)
 .debug_str     0x0000000000000bf0       0x51 d:/program_files/programming/rt-threadstudio/repo/extract/toolchain_support_packages/risc-v/risc-v-gcc/10.1.0/bin/../lib/gcc/riscv64-unknown-elf/10.1.0/rv32im/ilp32\libgcc.a(subsf3.o)
                                        0x304 (size before relaxing)
 .debug_str     0x0000000000000c41       0x53 d:/program_files/programming/rt-threadstudio/repo/extract/toolchain_support_packages/risc-v/risc-v-gcc/10.1.0/bin/../lib/gcc/riscv64-unknown-elf/10.1.0/rv32im/ilp32\libgcc.a(fixsfsi.o)
                                        0x23d (size before relaxing)
 .debug_str     0x0000000000000c94       0x59 d:/program_files/programming/rt-threadstudio/repo/extract/toolchain_support_packages/risc-v/risc-v-gcc/10.1.0/bin/../lib/gcc/riscv64-unknown-elf/10.1.0/rv32im/ilp32\libgcc.a(fixunssfsi.o)
                                        0x23c (size before relaxing)
 .debug_str     0x0000000000000ced       0x57 d:/program_files/programming/rt-threadstudio/repo/extract/toolchain_support_packages/risc-v/risc-v-gcc/10.1.0/bin/../lib/gcc/riscv64-unknown-elf/10.1.0/rv32im/ilp32\libgcc.a(floatsisf.o)
                                        0x2cf (size before relaxing)
 .debug_str     0x0000000000000d44       0x5b d:/program_files/programming/rt-threadstudio/repo/extract/toolchain_support_packages/risc-v/risc-v-gcc/10.1.0/bin/../lib/gcc/riscv64-unknown-elf/10.1.0/rv32im/ilp32\libgcc.a(floatunsisf.o)
                                        0x2cc (size before relaxing)
 .debug_str     0x0000000000000d9f      0x22d d:/program_files/programming/rt-threadstudio/repo/extract/toolchain_support_packages/risc-v/risc-v-gcc/10.1.0/bin/../lib/gcc/riscv64-unknown-elf/10.1.0/rv32im/ilp32\libgcc.a(_clz.o)
 .debug_str     0x0000000000000d9f      0x24a d:/program_files/programming/rt-threadstudio/repo/extract/toolchain_support_packages/risc-v/risc-v-gcc/10.1.0/bin/../lib/gcc/riscv64-unknown-elf/10.1.0/rv32im/ilp32\libgcc.a(_clzsi2.o)

.debug_frame    0x0000000000000000      0x340
 .debug_frame   0x0000000000000000       0x58 d:/program_files/programming/rt-threadstudio/repo/extract/toolchain_support_packages/risc-v/risc-v-gcc/10.1.0/bin/../lib/gcc/riscv64-unknown-elf/10.1.0/rv32im/ilp32\libgcc.a(divdf3.o)
 .debug_frame   0x0000000000000058       0x54 d:/program_files/programming/rt-threadstudio/repo/extract/toolchain_support_packages/risc-v/risc-v-gcc/10.1.0/bin/../lib/gcc/riscv64-unknown-elf/10.1.0/rv32im/ilp32\libgcc.a(muldf3.o)
 .debug_frame   0x00000000000000ac       0x20 d:/program_files/programming/rt-threadstudio/repo/extract/toolchain_support_packages/risc-v/risc-v-gcc/10.1.0/bin/../lib/gcc/riscv64-unknown-elf/10.1.0/rv32im/ilp32\libgcc.a(fixdfsi.o)
 .debug_frame   0x00000000000000cc       0x34 d:/program_files/programming/rt-threadstudio/repo/extract/toolchain_support_packages/risc-v/risc-v-gcc/10.1.0/bin/../lib/gcc/riscv64-unknown-elf/10.1.0/rv32im/ilp32\libgcc.a(floatunsidf.o)
 .debug_frame   0x0000000000000100       0x40 d:/program_files/programming/rt-threadstudio/repo/extract/toolchain_support_packages/risc-v/risc-v-gcc/10.1.0/bin/../lib/gcc/riscv64-unknown-elf/10.1.0/rv32im/ilp32\libgcc.a(addsf3.o)
 .debug_frame   0x0000000000000140       0x4c d:/program_files/programming/rt-threadstudio/repo/extract/toolchain_support_packages/risc-v/risc-v-gcc/10.1.0/bin/../lib/gcc/riscv64-unknown-elf/10.1.0/rv32im/ilp32\libgcc.a(divsf3.o)
 .debug_frame   0x000000000000018c       0x20 d:/program_files/programming/rt-threadstudio/repo/extract/toolchain_support_packages/risc-v/risc-v-gcc/10.1.0/bin/../lib/gcc/riscv64-unknown-elf/10.1.0/rv32im/ilp32\libgcc.a(eqsf2.o)
 .debug_frame   0x00000000000001ac       0x20 d:/program_files/programming/rt-threadstudio/repo/extract/toolchain_support_packages/risc-v/risc-v-gcc/10.1.0/bin/../lib/gcc/riscv64-unknown-elf/10.1.0/rv32im/ilp32\libgcc.a(gesf2.o)
 .debug_frame   0x00000000000001cc       0x20 d:/program_files/programming/rt-threadstudio/repo/extract/toolchain_support_packages/risc-v/risc-v-gcc/10.1.0/bin/../lib/gcc/riscv64-unknown-elf/10.1.0/rv32im/ilp32\libgcc.a(lesf2.o)
 .debug_frame   0x00000000000001ec       0x48 d:/program_files/programming/rt-threadstudio/repo/extract/toolchain_support_packages/risc-v/risc-v-gcc/10.1.0/bin/../lib/gcc/riscv64-unknown-elf/10.1.0/rv32im/ilp32\libgcc.a(mulsf3.o)
 .debug_frame   0x0000000000000234       0x40 d:/program_files/programming/rt-threadstudio/repo/extract/toolchain_support_packages/risc-v/risc-v-gcc/10.1.0/bin/../lib/gcc/riscv64-unknown-elf/10.1.0/rv32im/ilp32\libgcc.a(subsf3.o)
 .debug_frame   0x0000000000000274       0x20 d:/program_files/programming/rt-threadstudio/repo/extract/toolchain_support_packages/risc-v/risc-v-gcc/10.1.0/bin/../lib/gcc/riscv64-unknown-elf/10.1.0/rv32im/ilp32\libgcc.a(fixsfsi.o)
 .debug_frame   0x0000000000000294       0x20 d:/program_files/programming/rt-threadstudio/repo/extract/toolchain_support_packages/risc-v/risc-v-gcc/10.1.0/bin/../lib/gcc/riscv64-unknown-elf/10.1.0/rv32im/ilp32\libgcc.a(fixunssfsi.o)
 .debug_frame   0x00000000000002b4       0x38 d:/program_files/programming/rt-threadstudio/repo/extract/toolchain_support_packages/risc-v/risc-v-gcc/10.1.0/bin/../lib/gcc/riscv64-unknown-elf/10.1.0/rv32im/ilp32\libgcc.a(floatsisf.o)
 .debug_frame   0x00000000000002ec       0x34 d:/program_files/programming/rt-threadstudio/repo/extract/toolchain_support_packages/risc-v/risc-v-gcc/10.1.0/bin/../lib/gcc/riscv64-unknown-elf/10.1.0/rv32im/ilp32\libgcc.a(floatunsisf.o)
 .debug_frame   0x0000000000000320       0x20 d:/program_files/programming/rt-threadstudio/repo/extract/toolchain_support_packages/risc-v/risc-v-gcc/10.1.0/bin/../lib/gcc/riscv64-unknown-elf/10.1.0/rv32im/ilp32\libgcc.a(_clzsi2.o)

Cross Reference Table

Symbol                                            File
HAL_UART_MspInit                                  libraries\hal_libraries\ab32vg1_hal\source\ab32vg1_hal_uart.o
OP_add_byte                                       build\kernel\components\finsh\finsh_ops.o
OP_add_dword                                      build\kernel\components\finsh\finsh_ops.o
OP_add_word                                       build\kernel\components\finsh\finsh_ops.o
OP_and_byte                                       build\kernel\components\finsh\finsh_ops.o
OP_and_dword                                      build\kernel\components\finsh\finsh_ops.o
OP_and_word                                       build\kernel\components\finsh\finsh_ops.o
OP_bw_byte                                        build\kernel\components\finsh\finsh_ops.o
OP_bw_dword                                       build\kernel\components\finsh\finsh_ops.o
OP_bw_word                                        build\kernel\components\finsh\finsh_ops.o
OP_call                                           build\kernel\components\finsh\finsh_ops.o
OP_div_byte                                       build\kernel\components\finsh\finsh_ops.o
OP_div_dword                                      build\kernel\components\finsh\finsh_ops.o
OP_div_word                                       build\kernel\components\finsh\finsh_ops.o
OP_ld_byte                                        build\kernel\components\finsh\finsh_ops.o
OP_ld_dword                                       build\kernel\components\finsh\finsh_ops.o
OP_ld_value_byte                                  build\kernel\components\finsh\finsh_ops.o
OP_ld_value_byte_stack                            build\kernel\components\finsh\finsh_ops.o
OP_ld_value_dword                                 build\kernel\components\finsh\finsh_ops.o
OP_ld_value_dword_stack                           build\kernel\components\finsh\finsh_ops.o
OP_ld_value_word                                  build\kernel\components\finsh\finsh_ops.o
OP_ld_value_word_stack                            build\kernel\components\finsh\finsh_ops.o
OP_ld_word                                        build\kernel\components\finsh\finsh_ops.o
OP_mod_byte                                       build\kernel\components\finsh\finsh_ops.o
OP_mod_dword                                      build\kernel\components\finsh\finsh_ops.o
OP_mod_word                                       build\kernel\components\finsh\finsh_ops.o
OP_mul_byte                                       build\kernel\components\finsh\finsh_ops.o
OP_mul_dword                                      build\kernel\components\finsh\finsh_ops.o
OP_mul_word                                       build\kernel\components\finsh\finsh_ops.o
OP_no_op                                          build\kernel\components\finsh\finsh_ops.o
OP_or_byte                                        build\kernel\components\finsh\finsh_ops.o
OP_or_dword                                       build\kernel\components\finsh\finsh_ops.o
OP_or_word                                        build\kernel\components\finsh\finsh_ops.o
OP_pop                                            build\kernel\components\finsh\finsh_ops.o
OP_shl_byte                                       build\kernel\components\finsh\finsh_ops.o
OP_shl_dword                                      build\kernel\components\finsh\finsh_ops.o
OP_shl_word                                       build\kernel\components\finsh\finsh_ops.o
OP_shr_byte                                       build\kernel\components\finsh\finsh_ops.o
OP_shr_dword                                      build\kernel\components\finsh\finsh_ops.o
OP_shr_word                                       build\kernel\components\finsh\finsh_ops.o
OP_st_byte                                        build\kernel\components\finsh\finsh_ops.o
OP_st_dword                                       build\kernel\components\finsh\finsh_ops.o
OP_st_word                                        build\kernel\components\finsh\finsh_ops.o
OP_sub_byte                                       build\kernel\components\finsh\finsh_ops.o
OP_sub_dword                                      build\kernel\components\finsh\finsh_ops.o
OP_sub_word                                       build\kernel\components\finsh\finsh_ops.o
OP_xor_byte                                       build\kernel\components\finsh\finsh_ops.o
OP_xor_dword                                      build\kernel\components\finsh\finsh_ops.o
OP_xor_word                                       build\kernel\components\finsh\finsh_ops.o
__addsf3                                          d:/program_files/programming/rt-threadstudio/repo/extract/toolchain_support_packages/risc-v/risc-v-gcc/10.1.0/bin/../lib/gcc/riscv64-unknown-elf/10.1.0/rv32im/ilp32\libgcc.a(addsf3.o)
                                                  build\kernel\components\drivers\hwtimer\hwtimer.o
__bss_size                                        libraries\hal_libraries\bmsis\source\startup.o
__bss_start                                       libraries\hal_libraries\bmsis\source\startup.o
__clz_tab                                         d:/program_files/programming/rt-threadstudio/repo/extract/toolchain_support_packages/risc-v/risc-v-gcc/10.1.0/bin/../lib/gcc/riscv64-unknown-elf/10.1.0/rv32im/ilp32\libgcc.a(_clz.o)
                                                  d:/program_files/programming/rt-threadstudio/repo/extract/toolchain_support_packages/risc-v/risc-v-gcc/10.1.0/bin/../lib/gcc/riscv64-unknown-elf/10.1.0/rv32im/ilp32\libgcc.a(_clzsi2.o)
                                                  d:/program_files/programming/rt-threadstudio/repo/extract/toolchain_support_packages/risc-v/risc-v-gcc/10.1.0/bin/../lib/gcc/riscv64-unknown-elf/10.1.0/rv32im/ilp32\libgcc.a(_udivdi3.o)
                                                  d:/program_files/programming/rt-threadstudio/repo/extract/toolchain_support_packages/risc-v/risc-v-gcc/10.1.0/bin/../lib/gcc/riscv64-unknown-elf/10.1.0/rv32im/ilp32\libgcc.a(_divdi3.o)
__clzsi2                                          d:/program_files/programming/rt-threadstudio/repo/extract/toolchain_support_packages/risc-v/risc-v-gcc/10.1.0/bin/../lib/gcc/riscv64-unknown-elf/10.1.0/rv32im/ilp32\libgcc.a(_clzsi2.o)
                                                  d:/program_files/programming/rt-threadstudio/repo/extract/toolchain_support_packages/risc-v/risc-v-gcc/10.1.0/bin/../lib/gcc/riscv64-unknown-elf/10.1.0/rv32im/ilp32\libgcc.a(floatunsisf.o)
                                                  d:/program_files/programming/rt-threadstudio/repo/extract/toolchain_support_packages/risc-v/risc-v-gcc/10.1.0/bin/../lib/gcc/riscv64-unknown-elf/10.1.0/rv32im/ilp32\libgcc.a(floatsisf.o)
                                                  d:/program_files/programming/rt-threadstudio/repo/extract/toolchain_support_packages/risc-v/risc-v-gcc/10.1.0/bin/../lib/gcc/riscv64-unknown-elf/10.1.0/rv32im/ilp32\libgcc.a(subsf3.o)
                                                  d:/program_files/programming/rt-threadstudio/repo/extract/toolchain_support_packages/risc-v/risc-v-gcc/10.1.0/bin/../lib/gcc/riscv64-unknown-elf/10.1.0/rv32im/ilp32\libgcc.a(mulsf3.o)
                                                  d:/program_files/programming/rt-threadstudio/repo/extract/toolchain_support_packages/risc-v/risc-v-gcc/10.1.0/bin/../lib/gcc/riscv64-unknown-elf/10.1.0/rv32im/ilp32\libgcc.a(divsf3.o)
                                                  d:/program_files/programming/rt-threadstudio/repo/extract/toolchain_support_packages/risc-v/risc-v-gcc/10.1.0/bin/../lib/gcc/riscv64-unknown-elf/10.1.0/rv32im/ilp32\libgcc.a(addsf3.o)
                                                  d:/program_files/programming/rt-threadstudio/repo/extract/toolchain_support_packages/risc-v/risc-v-gcc/10.1.0/bin/../lib/gcc/riscv64-unknown-elf/10.1.0/rv32im/ilp32\libgcc.a(floatunsidf.o)
                                                  d:/program_files/programming/rt-threadstudio/repo/extract/toolchain_support_packages/risc-v/risc-v-gcc/10.1.0/bin/../lib/gcc/riscv64-unknown-elf/10.1.0/rv32im/ilp32\libgcc.a(muldf3.o)
                                                  d:/program_files/programming/rt-threadstudio/repo/extract/toolchain_support_packages/risc-v/risc-v-gcc/10.1.0/bin/../lib/gcc/riscv64-unknown-elf/10.1.0/rv32im/ilp32\libgcc.a(divdf3.o)
__comm_lma                                        libraries\hal_libraries\bmsis\source\startup.o
__comm_size                                       libraries\hal_libraries\bmsis\source\startup.o
__comm_vma                                        libraries\hal_libraries\bmsis\source\startup.o
__divdf3                                          d:/program_files/programming/rt-threadstudio/repo/extract/toolchain_support_packages/risc-v/risc-v-gcc/10.1.0/bin/../lib/gcc/riscv64-unknown-elf/10.1.0/rv32im/ilp32\libgcc.a(divdf3.o)
                                                  build\kernel\components\drivers\misc\rt_drv_pwm.o
__divdi3                                          d:/program_files/programming/rt-threadstudio/repo/extract/toolchain_support_packages/risc-v/risc-v-gcc/10.1.0/bin/../lib/gcc/riscv64-unknown-elf/10.1.0/rv32im/ilp32\libgcc.a(_divdi3.o)
                                                  libraries\hal_drivers\drv_pwm.o
__divsf3                                          d:/program_files/programming/rt-threadstudio/repo/extract/toolchain_support_packages/risc-v/risc-v-gcc/10.1.0/bin/../lib/gcc/riscv64-unknown-elf/10.1.0/rv32im/ilp32\libgcc.a(divsf3.o)
                                                  build\kernel\components\drivers\hwtimer\hwtimer.o
__eqsf2                                           d:/program_files/programming/rt-threadstudio/repo/extract/toolchain_support_packages/risc-v/risc-v-gcc/10.1.0/bin/../lib/gcc/riscv64-unknown-elf/10.1.0/rv32im/ilp32\libgcc.a(eqsf2.o)
                                                  build\kernel\components\drivers\hwtimer\hwtimer.o
__errno                                           d:/program_files/programming/rt-threadstudio/repo/extract/toolchain_support_packages/risc-v/risc-v-gcc/10.1.0/bin/../lib/gcc/riscv64-unknown-elf/10.1.0/../../../../riscv64-unknown-elf/lib/rv32im/ilp32\libc.a(lib_a-errno.o)
                                                  build\kernel\components\libc\compilers\common\time.o
__fixdfsi                                         d:/program_files/programming/rt-threadstudio/repo/extract/toolchain_support_packages/risc-v/risc-v-gcc/10.1.0/bin/../lib/gcc/riscv64-unknown-elf/10.1.0/rv32im/ilp32\libgcc.a(fixdfsi.o)
                                                  build\kernel\components\drivers\misc\rt_drv_pwm.o
__fixsfsi                                         d:/program_files/programming/rt-threadstudio/repo/extract/toolchain_support_packages/risc-v/risc-v-gcc/10.1.0/bin/../lib/gcc/riscv64-unknown-elf/10.1.0/rv32im/ilp32\libgcc.a(fixsfsi.o)
                                                  build\kernel\components\drivers\hwtimer\hwtimer.o
__fixunssfsi                                      d:/program_files/programming/rt-threadstudio/repo/extract/toolchain_support_packages/risc-v/risc-v-gcc/10.1.0/bin/../lib/gcc/riscv64-unknown-elf/10.1.0/rv32im/ilp32\libgcc.a(fixunssfsi.o)
                                                  build\kernel\components\drivers\hwtimer\hwtimer.o
__floatsisf                                       d:/program_files/programming/rt-threadstudio/repo/extract/toolchain_support_packages/risc-v/risc-v-gcc/10.1.0/bin/../lib/gcc/riscv64-unknown-elf/10.1.0/rv32im/ilp32\libgcc.a(floatsisf.o)
                                                  build\kernel\components\drivers\hwtimer\hwtimer.o
__floatunsidf                                     d:/program_files/programming/rt-threadstudio/repo/extract/toolchain_support_packages/risc-v/risc-v-gcc/10.1.0/bin/../lib/gcc/riscv64-unknown-elf/10.1.0/rv32im/ilp32\libgcc.a(floatunsidf.o)
                                                  build\kernel\components\drivers\misc\rt_drv_pwm.o
__floatunsisf                                     d:/program_files/programming/rt-threadstudio/repo/extract/toolchain_support_packages/risc-v/risc-v-gcc/10.1.0/bin/../lib/gcc/riscv64-unknown-elf/10.1.0/rv32im/ilp32\libgcc.a(floatunsisf.o)
                                                  build\kernel\components\drivers\hwtimer\hwtimer.o
__fsym___cmd_adc                                  build\kernel\components\drivers\misc\adc.o
__fsym___cmd_adc_desc                             build\kernel\components\drivers\misc\adc.o
__fsym___cmd_adc_name                             build\kernel\components\drivers\misc\adc.o
__fsym___cmd_alarm_dump                           build\kernel\components\drivers\rtc\alarm.o
__fsym___cmd_alarm_dump_desc                      build\kernel\components\drivers\rtc\alarm.o
__fsym___cmd_alarm_dump_name                      build\kernel\components\drivers\rtc\alarm.o
__fsym___cmd_cat                                  build\kernel\components\finsh\msh_file.o
__fsym___cmd_cat_desc                             build\kernel\components\finsh\msh_file.o
__fsym___cmd_cat_name                             build\kernel\components\finsh\msh_file.o
__fsym___cmd_cd                                   build\kernel\components\finsh\msh_file.o
__fsym___cmd_cd_desc                              build\kernel\components\finsh\msh_file.o
__fsym___cmd_cd_name                              build\kernel\components\finsh\msh_file.o
__fsym___cmd_clear                                build\kernel\components\finsh\cmd.o
__fsym___cmd_clear_desc                           build\kernel\components\finsh\cmd.o
__fsym___cmd_clear_name                           build\kernel\components\finsh\cmd.o
__fsym___cmd_cp                                   build\kernel\components\finsh\msh_file.o
__fsym___cmd_cp_desc                              build\kernel\components\finsh\msh_file.o
__fsym___cmd_cp_name                              build\kernel\components\finsh\msh_file.o
__fsym___cmd_date                                 build\kernel\components\drivers\rtc\rtc.o
__fsym___cmd_date_desc                            build\kernel\components\drivers\rtc\rtc.o
__fsym___cmd_date_name                            build\kernel\components\drivers\rtc\rtc.o
__fsym___cmd_df                                   build\kernel\components\finsh\msh_file.o
__fsym___cmd_df_desc                              build\kernel\components\finsh\msh_file.o
__fsym___cmd_df_name                              build\kernel\components\finsh\msh_file.o
__fsym___cmd_echo                                 build\kernel\components\finsh\msh_file.o
__fsym___cmd_echo_desc                            build\kernel\components\finsh\msh_file.o
__fsym___cmd_echo_name                            build\kernel\components\finsh\msh_file.o
__fsym___cmd_exit                                 build\kernel\components\finsh\msh.o
__fsym___cmd_exit_desc                            build\kernel\components\finsh\msh.o
__fsym___cmd_exit_name                            build\kernel\components\finsh\msh.o
__fsym___cmd_free                                 build\kernel\components\finsh\msh.o
__fsym___cmd_free_desc                            build\kernel\components\finsh\msh.o
__fsym___cmd_free_name                            build\kernel\components\finsh\msh.o
__fsym___cmd_help                                 build\kernel\components\finsh\msh.o
__fsym___cmd_help_desc                            build\kernel\components\finsh\msh.o
__fsym___cmd_help_name                            build\kernel\components\finsh\msh.o
__fsym___cmd_list_date                            build\kernel\components\drivers\rtc\rtc.o
__fsym___cmd_list_date_desc                       build\kernel\components\drivers\rtc\rtc.o
__fsym___cmd_list_date_name                       build\kernel\components\drivers\rtc\rtc.o
__fsym___cmd_list_device                          build\kernel\components\finsh\cmd.o
__fsym___cmd_list_device_desc                     build\kernel\components\finsh\cmd.o
__fsym___cmd_list_device_name                     build\kernel\components\finsh\cmd.o
__fsym___cmd_list_event                           build\kernel\components\finsh\cmd.o
__fsym___cmd_list_event_desc                      build\kernel\components\finsh\cmd.o
__fsym___cmd_list_event_name                      build\kernel\components\finsh\cmd.o
__fsym___cmd_list_fd                              build\kernel\components\dfs\src\dfs.o
__fsym___cmd_list_fd_desc                         build\kernel\components\dfs\src\dfs.o
__fsym___cmd_list_fd_name                         build\kernel\components\dfs\src\dfs.o
__fsym___cmd_list_mailbox                         build\kernel\components\finsh\cmd.o
__fsym___cmd_list_mailbox_desc                    build\kernel\components\finsh\cmd.o
__fsym___cmd_list_mailbox_name                    build\kernel\components\finsh\cmd.o
__fsym___cmd_list_memheap                         build\kernel\components\finsh\cmd.o
__fsym___cmd_list_memheap_desc                    build\kernel\components\finsh\cmd.o
__fsym___cmd_list_memheap_name                    build\kernel\components\finsh\cmd.o
__fsym___cmd_list_mempool                         build\kernel\components\finsh\cmd.o
__fsym___cmd_list_mempool_desc                    build\kernel\components\finsh\cmd.o
__fsym___cmd_list_mempool_name                    build\kernel\components\finsh\cmd.o
__fsym___cmd_list_msgqueue                        build\kernel\components\finsh\cmd.o
__fsym___cmd_list_msgqueue_desc                   build\kernel\components\finsh\cmd.o
__fsym___cmd_list_msgqueue_name                   build\kernel\components\finsh\cmd.o
__fsym___cmd_list_mutex                           build\kernel\components\finsh\cmd.o
__fsym___cmd_list_mutex_desc                      build\kernel\components\finsh\cmd.o
__fsym___cmd_list_mutex_name                      build\kernel\components\finsh\cmd.o
__fsym___cmd_list_sem                             build\kernel\components\finsh\cmd.o
__fsym___cmd_list_sem_desc                        build\kernel\components\finsh\cmd.o
__fsym___cmd_list_sem_name                        build\kernel\components\finsh\cmd.o
__fsym___cmd_list_thread                          build\kernel\components\finsh\cmd.o
__fsym___cmd_list_thread_desc                     build\kernel\components\finsh\cmd.o
__fsym___cmd_list_thread_name                     build\kernel\components\finsh\cmd.o
__fsym___cmd_list_timer                           build\kernel\components\finsh\cmd.o
__fsym___cmd_list_timer_desc                      build\kernel\components\finsh\cmd.o
__fsym___cmd_list_timer_name                      build\kernel\components\finsh\cmd.o
__fsym___cmd_ls                                   build\kernel\components\finsh\msh_file.o
__fsym___cmd_ls_desc                              build\kernel\components\finsh\msh_file.o
__fsym___cmd_ls_name                              build\kernel\components\finsh\msh_file.o
__fsym___cmd_memheaptrace                         build\kernel\src\memheap.o
__fsym___cmd_memheaptrace_desc                    build\kernel\src\memheap.o
__fsym___cmd_memheaptrace_name                    build\kernel\src\memheap.o
__fsym___cmd_mkdir                                build\kernel\components\finsh\msh_file.o
__fsym___cmd_mkdir_desc                           build\kernel\components\finsh\msh_file.o
__fsym___cmd_mkdir_name                           build\kernel\components\finsh\msh_file.o
__fsym___cmd_mkfs                                 build\kernel\components\finsh\msh_file.o
__fsym___cmd_mkfs_desc                            build\kernel\components\finsh\msh_file.o
__fsym___cmd_mkfs_name                            build\kernel\components\finsh\msh_file.o
__fsym___cmd_mount                                build\kernel\components\finsh\msh_file.o
__fsym___cmd_mount_desc                           build\kernel\components\finsh\msh_file.o
__fsym___cmd_mount_name                           build\kernel\components\finsh\msh_file.o
__fsym___cmd_mv                                   build\kernel\components\finsh\msh_file.o
__fsym___cmd_mv_desc                              build\kernel\components\finsh\msh_file.o
__fsym___cmd_mv_name                              build\kernel\components\finsh\msh_file.o
__fsym___cmd_ps                                   build\kernel\components\finsh\msh.o
__fsym___cmd_ps_desc                              build\kernel\components\finsh\msh.o
__fsym___cmd_ps_name                              build\kernel\components\finsh\msh.o
__fsym___cmd_pwd                                  build\kernel\components\finsh\msh_file.o
__fsym___cmd_pwd_desc                             build\kernel\components\finsh\msh_file.o
__fsym___cmd_pwd_name                             build\kernel\components\finsh\msh_file.o
__fsym___cmd_pwm_disable                          build\kernel\components\drivers\misc\rt_drv_pwm.o
__fsym___cmd_pwm_disable_desc                     build\kernel\components\drivers\misc\rt_drv_pwm.o
__fsym___cmd_pwm_disable_name                     build\kernel\components\drivers\misc\rt_drv_pwm.o
__fsym___cmd_pwm_enable                           build\kernel\components\drivers\misc\rt_drv_pwm.o
__fsym___cmd_pwm_enable_desc                      build\kernel\components\drivers\misc\rt_drv_pwm.o
__fsym___cmd_pwm_enable_name                      build\kernel\components\drivers\misc\rt_drv_pwm.o
__fsym___cmd_pwm_get                              build\kernel\components\drivers\misc\rt_drv_pwm.o
__fsym___cmd_pwm_get_desc                         build\kernel\components\drivers\misc\rt_drv_pwm.o
__fsym___cmd_pwm_get_name                         build\kernel\components\drivers\misc\rt_drv_pwm.o
__fsym___cmd_pwm_set                              build\kernel\components\drivers\misc\rt_drv_pwm.o
__fsym___cmd_pwm_set_desc                         build\kernel\components\drivers\misc\rt_drv_pwm.o
__fsym___cmd_pwm_set_name                         build\kernel\components\drivers\misc\rt_drv_pwm.o
__fsym___cmd_rm                                   build\kernel\components\finsh\msh_file.o
__fsym___cmd_rm_desc                              build\kernel\components\finsh\msh_file.o
__fsym___cmd_rm_name                              build\kernel\components\finsh\msh_file.o
__fsym___cmd_umount                               build\kernel\components\finsh\msh_file.o
__fsym___cmd_umount_desc                          build\kernel\components\finsh\msh_file.o
__fsym___cmd_umount_name                          build\kernel\components\finsh\msh_file.o
__fsym___cmd_version                              build\kernel\components\finsh\cmd.o
__fsym___cmd_version_desc                         build\kernel\components\finsh\cmd.o
__fsym___cmd_version_name                         build\kernel\components\finsh\cmd.o
__fsym_cat                                        build\kernel\components\dfs\src\dfs_file.o
__fsym_cat_desc                                   build\kernel\components\dfs\src\dfs_file.o
__fsym_cat_name                                   build\kernel\components\dfs\src\dfs_file.o
__fsym_cd                                         build\kernel\components\dfs\src\dfs_posix.o
__fsym_cd_desc                                    build\kernel\components\dfs\src\dfs_posix.o
__fsym_cd_name                                    build\kernel\components\dfs\src\dfs_posix.o
__fsym_clear                                      build\kernel\components\finsh\cmd.o
__fsym_clear_desc                                 build\kernel\components\finsh\cmd.o
__fsym_clear_name                                 build\kernel\components\finsh\cmd.o
__fsym_copy                                       build\kernel\components\dfs\src\dfs_file.o
__fsym_copy_desc                                  build\kernel\components\dfs\src\dfs_file.o
__fsym_copy_name                                  build\kernel\components\dfs\src\dfs_file.o
__fsym_df                                         build\kernel\components\dfs\src\dfs_fs.o
__fsym_df_desc                                    build\kernel\components\dfs\src\dfs_fs.o
__fsym_df_name                                    build\kernel\components\dfs\src\dfs_fs.o
__fsym_hello                                      build\kernel\components\finsh\cmd.o
__fsym_hello_desc                                 build\kernel\components\finsh\cmd.o
__fsym_hello_name                                 build\kernel\components\finsh\cmd.o
__fsym_list                                       build\kernel\components\finsh\cmd.o
__fsym_list_date                                  build\kernel\components\drivers\rtc\rtc.o
__fsym_list_date_desc                             build\kernel\components\drivers\rtc\rtc.o
__fsym_list_date_name                             build\kernel\components\drivers\rtc\rtc.o
__fsym_list_desc                                  build\kernel\components\finsh\cmd.o
__fsym_list_device                                build\kernel\components\finsh\cmd.o
__fsym_list_device_desc                           build\kernel\components\finsh\cmd.o
__fsym_list_device_name                           build\kernel\components\finsh\cmd.o
__fsym_list_event                                 build\kernel\components\finsh\cmd.o
__fsym_list_event_desc                            build\kernel\components\finsh\cmd.o
__fsym_list_event_name                            build\kernel\components\finsh\cmd.o
__fsym_list_mailbox                               build\kernel\components\finsh\cmd.o
__fsym_list_mailbox_desc                          build\kernel\components\finsh\cmd.o
__fsym_list_mailbox_name                          build\kernel\components\finsh\cmd.o
__fsym_list_mem                                   build\kernel\src\mem.o
__fsym_list_mem_desc                              build\kernel\src\mem.o
__fsym_list_mem_name                              build\kernel\src\mem.o
__fsym_list_memheap                               build\kernel\components\finsh\cmd.o
__fsym_list_memheap_desc                          build\kernel\components\finsh\cmd.o
__fsym_list_memheap_name                          build\kernel\components\finsh\cmd.o
__fsym_list_mempool                               build\kernel\components\finsh\cmd.o
__fsym_list_mempool_desc                          build\kernel\components\finsh\cmd.o
__fsym_list_mempool_name                          build\kernel\components\finsh\cmd.o
__fsym_list_msgqueue                              build\kernel\components\finsh\cmd.o
__fsym_list_msgqueue_desc                         build\kernel\components\finsh\cmd.o
__fsym_list_msgqueue_name                         build\kernel\components\finsh\cmd.o
__fsym_list_mutex                                 build\kernel\components\finsh\cmd.o
__fsym_list_mutex_desc                            build\kernel\components\finsh\cmd.o
__fsym_list_mutex_name                            build\kernel\components\finsh\cmd.o
__fsym_list_name                                  build\kernel\components\finsh\cmd.o
__fsym_list_sem                                   build\kernel\components\finsh\cmd.o
__fsym_list_sem_desc                              build\kernel\components\finsh\cmd.o
__fsym_list_sem_name                              build\kernel\components\finsh\cmd.o
__fsym_list_thread                                build\kernel\components\finsh\cmd.o
__fsym_list_thread_desc                           build\kernel\components\finsh\cmd.o
__fsym_list_thread_name                           build\kernel\components\finsh\cmd.o
__fsym_list_timer                                 build\kernel\components\finsh\cmd.o
__fsym_list_timer_desc                            build\kernel\components\finsh\cmd.o
__fsym_list_timer_name                            build\kernel\components\finsh\cmd.o
__fsym_ls                                         build\kernel\components\dfs\src\dfs_file.o
__fsym_ls_desc                                    build\kernel\components\dfs\src\dfs_file.o
__fsym_ls_name                                    build\kernel\components\dfs\src\dfs_file.o
__fsym_mkdir                                      build\kernel\components\dfs\src\dfs_posix.o
__fsym_mkdir_desc                                 build\kernel\components\dfs\src\dfs_posix.o
__fsym_mkdir_name                                 build\kernel\components\dfs\src\dfs_posix.o
__fsym_mkfs                                       build\kernel\components\dfs\src\dfs_fs.o
__fsym_mkfs_desc                                  build\kernel\components\dfs\src\dfs_fs.o
__fsym_mkfs_name                                  build\kernel\components\dfs\src\dfs_fs.o
__fsym_msh                                        build\kernel\components\finsh\msh.o
__fsym_msh_desc                                   build\kernel\components\finsh\msh.o
__fsym_msh_name                                   build\kernel\components\finsh\msh.o
__fsym_pinGet                                     build\kernel\components\drivers\misc\pin.o
__fsym_pinGet_desc                                build\kernel\components\drivers\misc\pin.o
__fsym_pinGet_name                                build\kernel\components\drivers\misc\pin.o
__fsym_pinMode                                    build\kernel\components\drivers\misc\pin.o
__fsym_pinMode_desc                               build\kernel\components\drivers\misc\pin.o
__fsym_pinMode_name                               build\kernel\components\drivers\misc\pin.o
__fsym_pinRead                                    build\kernel\components\drivers\misc\pin.o
__fsym_pinRead_desc                               build\kernel\components\drivers\misc\pin.o
__fsym_pinRead_name                               build\kernel\components\drivers\misc\pin.o
__fsym_pinWrite                                   build\kernel\components\drivers\misc\pin.o
__fsym_pinWrite_desc                              build\kernel\components\drivers\misc\pin.o
__fsym_pinWrite_name                              build\kernel\components\drivers\misc\pin.o
__fsym_pwm_enable                                 build\kernel\components\drivers\misc\rt_drv_pwm.o
__fsym_pwm_enable_desc                            build\kernel\components\drivers\misc\rt_drv_pwm.o
__fsym_pwm_enable_name                            build\kernel\components\drivers\misc\rt_drv_pwm.o
__fsym_pwm_set                                    build\kernel\components\drivers\misc\rt_drv_pwm.o
__fsym_pwm_set_desc                               build\kernel\components\drivers\misc\rt_drv_pwm.o
__fsym_pwm_set_name                               build\kernel\components\drivers\misc\rt_drv_pwm.o
__fsym_rm                                         build\kernel\components\dfs\src\dfs_file.o
__fsym_rm_desc                                    build\kernel\components\dfs\src\dfs_file.o
__fsym_rm_name                                    build\kernel\components\dfs\src\dfs_file.o
__fsym_set_date                                   build\kernel\components\drivers\rtc\rtc.o
__fsym_set_date_desc                              build\kernel\components\drivers\rtc\rtc.o
__fsym_set_date_name                              build\kernel\components\drivers\rtc\rtc.o
__fsym_set_time                                   build\kernel\components\drivers\rtc\rtc.o
__fsym_set_time_desc                              build\kernel\components\drivers\rtc\rtc.o
__fsym_set_time_name                              build\kernel\components\drivers\rtc\rtc.o
__fsym_version                                    build\kernel\components\finsh\cmd.o
__fsym_version_desc                               build\kernel\components\finsh\cmd.o
__fsym_version_name                               build\kernel\components\finsh\cmd.o
__fsymtab_end                                     build\kernel\components\finsh\shell.o
__fsymtab_start                                   build\kernel\components\finsh\shell.o
__gesf2                                           d:/program_files/programming/rt-threadstudio/repo/extract/toolchain_support_packages/risc-v/risc-v-gcc/10.1.0/bin/../lib/gcc/riscv64-unknown-elf/10.1.0/rv32im/ilp32\libgcc.a(gesf2.o)
                                                  build\kernel\components\drivers\hwtimer\hwtimer.o
__gtsf2                                           d:/program_files/programming/rt-threadstudio/repo/extract/toolchain_support_packages/risc-v/risc-v-gcc/10.1.0/bin/../lib/gcc/riscv64-unknown-elf/10.1.0/rv32im/ilp32\libgcc.a(gesf2.o)
                                                  build\kernel\components\drivers\hwtimer\hwtimer.o
__heap_end                                        build\board\board.o
__heap_start                                      build\board\board.o
__irq_stack                                       libraries\hal_libraries\bmsis\source\startup.o
__irq_stack_size                                  libraries\hal_libraries\bmsis\source\startup.o
__irq_stack_start                                 libraries\hal_libraries\bmsis\source\startup.o
__lesf2                                           d:/program_files/programming/rt-threadstudio/repo/extract/toolchain_support_packages/risc-v/risc-v-gcc/10.1.0/bin/../lib/gcc/riscv64-unknown-elf/10.1.0/rv32im/ilp32\libgcc.a(lesf2.o)
__lowest_bit_bitmap                               build\kernel\src\kservice.o
__ltsf2                                           d:/program_files/programming/rt-threadstudio/repo/extract/toolchain_support_packages/risc-v/risc-v-gcc/10.1.0/bin/../lib/gcc/riscv64-unknown-elf/10.1.0/rv32im/ilp32\libgcc.a(lesf2.o)
                                                  build\kernel\components\drivers\hwtimer\hwtimer.o
__muldf3                                          d:/program_files/programming/rt-threadstudio/repo/extract/toolchain_support_packages/risc-v/risc-v-gcc/10.1.0/bin/../lib/gcc/riscv64-unknown-elf/10.1.0/rv32im/ilp32\libgcc.a(muldf3.o)
                                                  build\kernel\components\drivers\misc\rt_drv_pwm.o
__mulsf3                                          d:/program_files/programming/rt-threadstudio/repo/extract/toolchain_support_packages/risc-v/risc-v-gcc/10.1.0/bin/../lib/gcc/riscv64-unknown-elf/10.1.0/rv32im/ilp32\libgcc.a(mulsf3.o)
                                                  build\kernel\components\drivers\hwtimer\hwtimer.o
__nesf2                                           d:/program_files/programming/rt-threadstudio/repo/extract/toolchain_support_packages/risc-v/risc-v-gcc/10.1.0/bin/../lib/gcc/riscv64-unknown-elf/10.1.0/rv32im/ilp32\libgcc.a(eqsf2.o)
__ram1_lma                                        libraries\hal_libraries\bmsis\source\startup.o
__ram1_size                                       libraries\hal_libraries\bmsis\source\startup.o
__ram1_vma                                        libraries\hal_libraries\bmsis\source\startup.o
__riscv_restore_0                                 libraries\hal_libraries\ab32vg1_hal\libhal.a(save-restore.o)
                                                  libraries\hal_libraries\ab32vg1_hal\libhal.a(sys_err.o)
                                                  libraries\hal_drivers\drv_hwtimer.o
                                                  libraries\hal_drivers\drv_usart.o
                                                  libraries\hal_drivers\drv_sdio.o
                                                  libraries\hal_drivers\drv_wdt.o
                                                  libraries\hal_drivers\drv_rtc.o
                                                  build\kernel\components\libc\compilers\common\time.o
                                                  build\kernel\components\finsh\finsh_init.o
                                                  build\kernel\components\finsh\finsh_var.o
                                                  build\kernel\components\finsh\msh.o
                                                  build\kernel\components\finsh\msh_file.o
                                                  build\kernel\components\finsh\cmd.o
                                                  build\kernel\components\finsh\finsh_parser.o
                                                  build\kernel\components\finsh\finsh_node.o
                                                  build\kernel\components\drivers\sdio\mmcsd_core.o
                                                  build\kernel\components\drivers\sdio\sdio.o
                                                  build\kernel\components\drivers\sdio\block_dev.o
                                                  build\kernel\components\drivers\rtc\alarm.o
                                                  build\kernel\components\drivers\rtc\rtc.o
                                                  build\kernel\components\drivers\misc\pin.o
                                                  build\kernel\components\drivers\misc\rt_drv_pwm.o
                                                  build\kernel\components\drivers\misc\adc.o
                                                  build\kernel\components\drivers\hwtimer\hwtimer.o
                                                  build\kernel\components\dfs\filesystems\elmfat\dfs_elm.o
                                                  build\kernel\components\dfs\filesystems\devfs\devfs.o
                                                  build\kernel\components\dfs\src\dfs_file.o
                                                  build\kernel\components\dfs\src\dfs_fs.o
                                                  build\kernel\components\dfs\src\dfs_posix.o
                                                  build\kernel\src\clock.o
                                                  build\kernel\src\components.o
                                                  build\kernel\src\irq.o
                                                  build\kernel\src\scheduler.o
                                                  build\kernel\src\kservice.o
                                                  build\kernel\src\mem.o
                                                  build\kernel\src\thread.o
                                                  build\board\ab32vg1_hal_msp.o
                                                  build\board\board.o
                                                  build\board\ports\audio\drv_sound.o
                                                  build\applications\mnt.o
__riscv_restore_1                                 libraries\hal_libraries\ab32vg1_hal\libhal.a(save-restore.o)
                                                  libraries\hal_libraries\ab32vg1_hal\source\ab32vg1_hal_sd.o
                                                  libraries\hal_libraries\ab32vg1_hal\source\ab32vg1_hal_uart.o
                                                  libraries\hal_drivers\drv_hwtimer.o
                                                  libraries\hal_drivers\drv_pwm.o
                                                  libraries\hal_drivers\drv_usart.o
                                                  libraries\hal_drivers\drv_adc.o
                                                  libraries\hal_drivers\drv_sdio.o
                                                  libraries\hal_drivers\drv_wdt.o
                                                  libraries\hal_drivers\drv_soft_i2c.o
                                                  libraries\hal_drivers\drv_rtc.o
                                                  libraries\hal_drivers\drv_gpio.o
                                                  build\kernel\components\libc\compilers\newlib\minilib.o
                                                  build\kernel\components\libc\compilers\common\time.o
                                                  build\kernel\components\finsh\finsh_ops.o
                                                  build\kernel\components\finsh\finsh_heap.o
                                                  build\kernel\components\finsh\shell.o
                                                  build\kernel\components\finsh\msh_file.o
                                                  build\kernel\components\drivers\watchdog\watchdog.o
                                                  build\kernel\components\drivers\src\waitqueue.o
                                                  build\kernel\components\drivers\src\workqueue.o
                                                  build\kernel\components\drivers\src\completion.o
                                                  build\kernel\components\drivers\src\ringbuffer.o
                                                  build\kernel\components\drivers\src\dataqueue.o
                                                  build\kernel\components\drivers\src\pipe.o
                                                  build\kernel\components\drivers\src\ringblk_buf.o
                                                  build\kernel\components\drivers\serial\serial.o
                                                  build\kernel\components\drivers\sdio\mmcsd_core.o
                                                  build\kernel\components\drivers\sdio\sdio.o
                                                  build\kernel\components\drivers\sdio\sd.o
                                                  build\kernel\components\drivers\rtc\alarm.o
                                                  build\kernel\components\drivers\i2c\i2c-bit-ops.o
                                                  build\kernel\components\drivers\i2c\i2c_core.o
                                                  build\kernel\components\drivers\hwtimer\hwtimer.o
                                                  build\kernel\components\drivers\audio\audio_pipe.o
                                                  build\kernel\components\drivers\audio\audio.o
                                                  build\kernel\components\dfs\filesystems\elmfat\dfs_elm.o
                                                  build\kernel\components\dfs\filesystems\elmfat\ff.o
                                                  build\kernel\components\dfs\filesystems\devfs\devfs.o
                                                  build\kernel\components\dfs\src\dfs_file.o
                                                  build\kernel\components\dfs\src\dfs.o
                                                  build\kernel\components\dfs\src\dfs_fs.o
                                                  build\kernel\components\dfs\src\dfs_posix.o
                                                  build\kernel\src\clock.o
                                                  build\kernel\src\components.o
                                                  build\kernel\src\ipc.o
                                                  build\kernel\src\idle.o
                                                  build\kernel\src\memheap.o
                                                  build\kernel\src\irq.o
                                                  build\kernel\src\timer.o
                                                  build\kernel\src\scheduler.o
                                                  build\kernel\src\kservice.o
                                                  build\kernel\src\object.o
                                                  build\kernel\src\mem.o
                                                  build\kernel\src\device.o
                                                  build\kernel\src\thread.o
                                                  build\board\ports\audio\drv_sound.o
__riscv_restore_10                                libraries\hal_libraries\ab32vg1_hal\libhal.a(save-restore.o)
                                                  build\kernel\components\drivers\serial\serial.o
                                                  build\kernel\components\drivers\sdio\block_dev.o
                                                  build\kernel\components\drivers\hwtimer\hwtimer.o
                                                  build\kernel\components\dfs\filesystems\elmfat\ff.o
                                                  build\kernel\components\dfs\src\dfs_file.o
                                                  build\kernel\components\dfs\src\dfs.o
                                                  build\kernel\components\dfs\src\dfs_fs.o
                                                  build\kernel\src\timer.o
__riscv_restore_11                                libraries\hal_libraries\ab32vg1_hal\libhal.a(save-restore.o)
                                                  build\kernel\components\libc\compilers\common\time.o
                                                  build\kernel\components\finsh\finsh_token.o
                                                  build\kernel\components\finsh\finsh_parser.o
                                                  build\kernel\components\drivers\sdio\sdio.o
                                                  build\kernel\components\drivers\sdio\sd.o
                                                  build\kernel\components\dfs\filesystems\elmfat\ff.o
                                                  build\kernel\src\mempool.o
                                                  build\kernel\src\timer.o
                                                  build\kernel\src\kservice.o
__riscv_restore_12                                libraries\hal_libraries\ab32vg1_hal\libhal.a(save-restore.o)
                                                  libraries\hal_drivers\drv_sdio.o
                                                  build\kernel\components\finsh\msh_file.o
                                                  build\kernel\components\finsh\cmd.o
                                                  build\kernel\components\drivers\src\dataqueue.o
                                                  build\kernel\components\drivers\sdio\sdio.o
                                                  build\kernel\components\drivers\sdio\mmc.o
                                                  build\kernel\components\drivers\rtc\alarm.o
                                                  build\kernel\components\drivers\i2c\i2c-bit-ops.o
                                                  build\kernel\components\dfs\filesystems\elmfat\ff.o
                                                  build\kernel\src\ipc.o
__riscv_restore_2                                 libraries\hal_libraries\ab32vg1_hal\libhal.a(save-restore.o)
                                                  libraries\hal_libraries\ab32vg1_hal\source\ab32vg1_hal_sd.o
                                                  libraries\hal_drivers\drv_hwtimer.o
                                                  libraries\hal_drivers\drv_usart.o
                                                  libraries\hal_drivers\drv_soft_i2c.o
                                                  libraries\hal_drivers\drv_rtc.o
                                                  libraries\hal_drivers\drv_gpio.o
                                                  build\kernel\components\libc\compilers\common\time.o
                                                  build\kernel\components\finsh\finsh_token.o
                                                  build\kernel\components\finsh\finsh_heap.o
                                                  build\kernel\components\finsh\finsh_compiler.o
                                                  build\kernel\components\finsh\shell.o
                                                  build\kernel\components\finsh\msh_file.o
                                                  build\kernel\components\finsh\cmd.o
                                                  build\kernel\components\finsh\finsh_parser.o
                                                  build\kernel\components\finsh\finsh_node.o
                                                  build\kernel\components\drivers\src\waitqueue.o
                                                  build\kernel\components\drivers\src\workqueue.o
                                                  build\kernel\components\drivers\src\ringbuffer.o
                                                  build\kernel\components\drivers\src\dataqueue.o
                                                  build\kernel\components\drivers\src\pipe.o
                                                  build\kernel\components\drivers\src\ringblk_buf.o
                                                  build\kernel\components\drivers\serial\serial.o
                                                  build\kernel\components\drivers\sdio\mmcsd_core.o
                                                  build\kernel\components\drivers\sdio\sdio.o
                                                  build\kernel\components\drivers\sdio\sd.o
                                                  build\kernel\components\drivers\rtc\alarm.o
                                                  build\kernel\components\drivers\misc\pin.o
                                                  build\kernel\components\drivers\misc\rt_drv_pwm.o
                                                  build\kernel\components\drivers\misc\adc.o
                                                  build\kernel\components\drivers\i2c\i2c-bit-ops.o
                                                  build\kernel\components\drivers\i2c\i2c_dev.o
                                                  build\kernel\components\drivers\i2c\i2c_core.o
                                                  build\kernel\components\drivers\hwtimer\hwtimer.o
                                                  build\kernel\components\drivers\audio\audio_pipe.o
                                                  build\kernel\components\drivers\audio\audio.o
                                                  build\kernel\components\dfs\filesystems\elmfat\dfs_elm.o
                                                  build\kernel\components\dfs\filesystems\elmfat\ff.o
                                                  build\kernel\components\dfs\filesystems\devfs\devfs.o
                                                  build\kernel\components\dfs\src\dfs_file.o
                                                  build\kernel\components\dfs\src\dfs.o
                                                  build\kernel\components\dfs\src\dfs_fs.o
                                                  build\kernel\components\dfs\src\dfs_posix.o
                                                  build\kernel\src\components.o
                                                  build\kernel\src\ipc.o
                                                  build\kernel\src\timer.o
                                                  build\kernel\src\object.o
                                                  build\kernel\src\device.o
                                                  build\kernel\src\thread.o
                                                  build\board\ab32vg1_hal_msp.o
                                                  build\board\ports\audio\drv_sound.o
__riscv_restore_3                                 libraries\hal_libraries\ab32vg1_hal\libhal.a(save-restore.o)
                                                  libraries\hal_libraries\ab32vg1_hal\libhal.a(ab32vg1_hal_adc.o)
                                                  libcpu\cpu\cpuport.o
                                                  libraries\hal_drivers\drv_hwtimer.o
                                                  libraries\hal_drivers\drv_adc.o
                                                  libraries\hal_drivers\drv_sdio.o
                                                  libraries\hal_drivers\drv_rtc.o
                                                  build\kernel\components\libc\compilers\common\time.o
                                                  build\kernel\components\finsh\finsh_var.o
                                                  build\kernel\components\finsh\shell.o
                                                  build\kernel\components\finsh\msh_file.o
                                                  build\kernel\components\finsh\finsh_vm.o
                                                  build\kernel\components\finsh\finsh_parser.o
                                                  build\kernel\components\finsh\finsh_node.o
                                                  build\kernel\components\drivers\watchdog\watchdog.o
                                                  build\kernel\components\drivers\src\workqueue.o
                                                  build\kernel\components\drivers\src\completion.o
                                                  build\kernel\components\drivers\src\ringbuffer.o
                                                  build\kernel\components\drivers\src\pipe.o
                                                  build\kernel\components\drivers\serial\serial.o
                                                  build\kernel\components\drivers\sdio\mmcsd_core.o
                                                  build\kernel\components\drivers\sdio\sdio.o
                                                  build\kernel\components\drivers\sdio\block_dev.o
                                                  build\kernel\components\drivers\rtc\alarm.o
                                                  build\kernel\components\drivers\rtc\rtc.o
                                                  build\kernel\components\drivers\misc\pin.o
                                                  build\kernel\components\drivers\misc\rt_drv_pwm.o
                                                  build\kernel\components\drivers\i2c\i2c_dev.o
                                                  build\kernel\components\drivers\i2c\i2c_core.o
                                                  build\kernel\components\drivers\hwtimer\hwtimer.o
                                                  build\kernel\components\drivers\audio\audio.o
                                                  build\kernel\components\dfs\filesystems\elmfat\dfs_elm.o
                                                  build\kernel\components\dfs\filesystems\elmfat\ff.o
                                                  build\kernel\components\dfs\filesystems\devfs\devfs.o
                                                  build\kernel\components\dfs\src\dfs_file.o
                                                  build\kernel\components\dfs\src\dfs.o
                                                  build\kernel\components\dfs\src\dfs_fs.o
                                                  build\kernel\components\dfs\src\dfs_posix.o
                                                  build\kernel\src\ipc.o
                                                  build\kernel\src\idle.o
                                                  build\kernel\src\memheap.o
                                                  build\kernel\src\timer.o
                                                  build\kernel\src\kservice.o
                                                  build\kernel\src\mem.o
                                                  build\kernel\src\device.o
                                                  build\kernel\src\thread.o
                                                  build\board\ports\audio\drv_sound.o
__riscv_restore_4                                 libraries\hal_libraries\ab32vg1_hal\libhal.a(save-restore.o)
                                                  libraries\hal_libraries\ab32vg1_hal\source\ab32vg1_hal_sd.o
                                                  libcpu\cpu\interrupt.o
                                                  libraries\hal_drivers\drv_hwtimer.o
                                                  libraries\hal_drivers\drv_rtc.o
                                                  build\kernel\components\libc\compilers\common\time.o
                                                  build\kernel\components\finsh\finsh_token.o
                                                  build\kernel\components\finsh\finsh_heap.o
                                                  build\kernel\components\finsh\finsh_compiler.o
                                                  build\kernel\components\finsh\finsh_var.o
                                                  build\kernel\components\finsh\finsh_vm.o
                                                  build\kernel\components\finsh\cmd.o
                                                  build\kernel\components\finsh\finsh_parser.o
                                                  build\kernel\components\drivers\watchdog\watchdog.o
                                                  build\kernel\components\drivers\src\workqueue.o
                                                  build\kernel\components\drivers\src\dataqueue.o
                                                  build\kernel\components\drivers\src\ringblk_buf.o
                                                  build\kernel\components\drivers\serial\serial.o
                                                  build\kernel\components\drivers\sdio\sdio.o
                                                  build\kernel\components\drivers\sdio\sd.o
                                                  build\kernel\components\drivers\sdio\mmc.o
                                                  build\kernel\components\drivers\rtc\alarm.o
                                                  build\kernel\components\drivers\misc\pin.o
                                                  build\kernel\components\drivers\misc\rt_drv_pwm.o
                                                  build\kernel\components\drivers\misc\adc.o
                                                  build\kernel\components\drivers\i2c\i2c-bit-ops.o
                                                  build\kernel\components\drivers\i2c\i2c_dev.o
                                                  build\kernel\components\drivers\audio\audio_pipe.o
                                                  build\kernel\components\drivers\audio\audio.o
                                                  build\kernel\components\dfs\filesystems\elmfat\dfs_elm.o
                                                  build\kernel\components\dfs\filesystems\elmfat\ff.o
                                                  build\kernel\components\dfs\filesystems\devfs\devfs.o
                                                  build\kernel\components\dfs\src\dfs_file.o
                                                  build\kernel\components\dfs\src\dfs.o
                                                  build\kernel\components\dfs\src\dfs_fs.o
                                                  build\kernel\components\dfs\src\dfs_posix.o
                                                  build\kernel\src\mempool.o
                                                  build\kernel\src\ipc.o
                                                  build\kernel\src\memheap.o
                                                  build\kernel\src\timer.o
                                                  build\kernel\src\object.o
                                                  build\kernel\src\mem.o
                                                  build\kernel\src\device.o
                                                  build\kernel\src\thread.o
__riscv_restore_5                                 libraries\hal_libraries\ab32vg1_hal\libhal.a(save-restore.o)
                                                  libraries\hal_libraries\ab32vg1_hal\source\ab32vg1_hal_sd.o
                                                  libraries\hal_drivers\drv_usart.o
                                                  libraries\hal_drivers\drv_sdio.o
                                                  build\kernel\components\finsh\finsh_token.o
                                                  build\kernel\components\finsh\msh.o
                                                  build\kernel\components\finsh\cmd.o
                                                  build\kernel\components\finsh\finsh_parser.o
                                                  build\kernel\components\drivers\src\waitqueue.o
                                                  build\kernel\components\drivers\src\completion.o
                                                  build\kernel\components\drivers\src\ringbuffer.o
                                                  build\kernel\components\drivers\src\pipe.o
                                                  build\kernel\components\drivers\src\ringblk_buf.o
                                                  build\kernel\components\drivers\sdio\mmcsd_core.o
                                                  build\kernel\components\drivers\sdio\sdio.o
                                                  build\kernel\components\drivers\sdio\block_dev.o
                                                  build\kernel\components\drivers\sdio\mmc.o
                                                  build\kernel\components\drivers\rtc\alarm.o
                                                  build\kernel\components\drivers\misc\adc.o
                                                  build\kernel\components\drivers\i2c\i2c_core.o
                                                  build\kernel\components\drivers\audio\audio_pipe.o
                                                  build\kernel\components\dfs\filesystems\elmfat\ff.o
                                                  build\kernel\components\dfs\filesystems\devfs\devfs.o
                                                  build\kernel\components\dfs\src\dfs_file.o
                                                  build\kernel\src\mempool.o
                                                  build\kernel\src\ipc.o
                                                  build\kernel\src\scheduler.o
                                                  build\kernel\src\kservice.o
                                                  build\kernel\src\mem.o
                                                  build\kernel\src\thread.o
__riscv_restore_6                                 libraries\hal_libraries\ab32vg1_hal\libhal.a(save-restore.o)
                                                  libraries\hal_libraries\bmsis\source\system_ab32vgx.o
                                                  libraries\hal_libraries\ab32vg1_hal\source\ab32vg1_hal_gpio.o
                                                  build\kernel\components\finsh\msh.o
                                                  build\kernel\components\finsh\cmd.o
                                                  build\kernel\components\finsh\finsh_parser.o
                                                  build\kernel\components\drivers\src\ringbuffer.o
                                                  build\kernel\components\drivers\sdio\sd.o
                                                  build\kernel\components\drivers\rtc\alarm.o
                                                  build\kernel\components\drivers\misc\adc.o
                                                  build\kernel\components\drivers\i2c\i2c-bit-ops.o
                                                  build\kernel\components\drivers\hwtimer\hwtimer.o
                                                  build\kernel\components\dfs\filesystems\elmfat\dfs_elm.o
                                                  build\kernel\components\dfs\filesystems\elmfat\ff.o
                                                  build\kernel\src\ipc.o
                                                  build\kernel\src\timer.o
                                                  build\kernel\src\thread.o
                                                  build\applications\mnt.o
__riscv_restore_7                                 libraries\hal_libraries\ab32vg1_hal\libhal.a(save-restore.o)
                                                  libraries\hal_drivers\drv_pwm.o
                                                  build\kernel\components\finsh\msh.o
                                                  build\kernel\components\finsh\msh_file.o
                                                  build\kernel\components\drivers\serial\serial.o
                                                  build\kernel\components\drivers\sdio\sdio.o
                                                  build\kernel\components\drivers\rtc\rtc.o
                                                  build\kernel\components\drivers\audio\audio.o
                                                  build\kernel\components\dfs\filesystems\elmfat\ff.o
                                                  build\kernel\components\dfs\filesystems\devfs\devfs.o
                                                  build\kernel\components\dfs\src\dfs.o
                                                  build\kernel\src\memheap.o
__riscv_restore_8                                 libraries\hal_libraries\ab32vg1_hal\libhal.a(save-restore.o)
                                                  build\kernel\components\finsh\finsh_var.o
                                                  build\kernel\components\finsh\msh.o
                                                  build\kernel\components\finsh\cmd.o
                                                  build\kernel\components\finsh\finsh_parser.o
                                                  build\kernel\components\drivers\sdio\sdio.o
                                                  build\kernel\components\drivers\sdio\block_dev.o
                                                  build\kernel\components\drivers\audio\audio.o
                                                  build\kernel\components\dfs\filesystems\elmfat\ff.o
                                                  build\kernel\src\memheap.o
                                                  build\kernel\src\object.o
                                                  build\kernel\src\thread.o
__riscv_restore_9                                 libraries\hal_libraries\ab32vg1_hal\libhal.a(save-restore.o)
                                                  libraries\hal_libraries\ab32vg1_hal\source\ab32vg1_hal_sd.o
                                                  build\kernel\components\finsh\finsh_compiler.o
                                                  build\kernel\components\finsh\cmd.o
                                                  build\kernel\components\finsh\finsh_parser.o
                                                  build\kernel\components\drivers\sdio\sdio.o
                                                  build\kernel\components\drivers\sdio\block_dev.o
                                                  build\kernel\components\drivers\audio\audio_pipe.o
                                                  build\kernel\components\dfs\filesystems\elmfat\ff.o
                                                  build\kernel\components\dfs\src\dfs_file.o
                                                  build\kernel\components\dfs\src\dfs_fs.o
__riscv_save_0                                    libraries\hal_libraries\ab32vg1_hal\libhal.a(save-restore.o)
                                                  libraries\hal_libraries\ab32vg1_hal\libhal.a(sys_err.o)
                                                  libraries\hal_drivers\drv_hwtimer.o
                                                  libraries\hal_drivers\drv_usart.o
                                                  libraries\hal_drivers\drv_sdio.o
                                                  libraries\hal_drivers\drv_wdt.o
                                                  libraries\hal_drivers\drv_rtc.o
                                                  build\kernel\components\libc\compilers\common\time.o
                                                  build\kernel\components\finsh\finsh_init.o
                                                  build\kernel\components\finsh\finsh_var.o
                                                  build\kernel\components\finsh\msh.o
                                                  build\kernel\components\finsh\msh_file.o
                                                  build\kernel\components\finsh\cmd.o
                                                  build\kernel\components\finsh\finsh_parser.o
                                                  build\kernel\components\finsh\finsh_node.o
                                                  build\kernel\components\drivers\sdio\mmcsd_core.o
                                                  build\kernel\components\drivers\sdio\sdio.o
                                                  build\kernel\components\drivers\sdio\block_dev.o
                                                  build\kernel\components\drivers\rtc\alarm.o
                                                  build\kernel\components\drivers\rtc\rtc.o
                                                  build\kernel\components\drivers\misc\pin.o
                                                  build\kernel\components\drivers\misc\rt_drv_pwm.o
                                                  build\kernel\components\drivers\misc\adc.o
                                                  build\kernel\components\drivers\hwtimer\hwtimer.o
                                                  build\kernel\components\dfs\filesystems\elmfat\dfs_elm.o
                                                  build\kernel\components\dfs\filesystems\devfs\devfs.o
                                                  build\kernel\components\dfs\src\dfs_file.o
                                                  build\kernel\components\dfs\src\dfs_fs.o
                                                  build\kernel\components\dfs\src\dfs_posix.o
                                                  build\kernel\src\clock.o
                                                  build\kernel\src\components.o
                                                  build\kernel\src\irq.o
                                                  build\kernel\src\scheduler.o
                                                  build\kernel\src\kservice.o
                                                  build\kernel\src\mem.o
                                                  build\kernel\src\thread.o
                                                  build\board\ab32vg1_hal_msp.o
                                                  build\board\board.o
                                                  build\board\ports\audio\drv_sound.o
                                                  build\applications\mnt.o
__riscv_save_1                                    libraries\hal_libraries\ab32vg1_hal\libhal.a(save-restore.o)
                                                  libraries\hal_libraries\ab32vg1_hal\source\ab32vg1_hal_sd.o
                                                  libraries\hal_libraries\ab32vg1_hal\source\ab32vg1_hal_uart.o
                                                  libraries\hal_drivers\drv_hwtimer.o
                                                  libraries\hal_drivers\drv_pwm.o
                                                  libraries\hal_drivers\drv_usart.o
                                                  libraries\hal_drivers\drv_adc.o
                                                  libraries\hal_drivers\drv_sdio.o
                                                  libraries\hal_drivers\drv_wdt.o
                                                  libraries\hal_drivers\drv_soft_i2c.o
                                                  libraries\hal_drivers\drv_rtc.o
                                                  libraries\hal_drivers\drv_gpio.o
                                                  build\kernel\components\libc\compilers\newlib\minilib.o
                                                  build\kernel\components\libc\compilers\common\time.o
                                                  build\kernel\components\finsh\finsh_ops.o
                                                  build\kernel\components\finsh\finsh_heap.o
                                                  build\kernel\components\finsh\shell.o
                                                  build\kernel\components\finsh\msh_file.o
                                                  build\kernel\components\drivers\watchdog\watchdog.o
                                                  build\kernel\components\drivers\src\waitqueue.o
                                                  build\kernel\components\drivers\src\workqueue.o
                                                  build\kernel\components\drivers\src\completion.o
                                                  build\kernel\components\drivers\src\ringbuffer.o
                                                  build\kernel\components\drivers\src\dataqueue.o
                                                  build\kernel\components\drivers\src\pipe.o
                                                  build\kernel\components\drivers\src\ringblk_buf.o
                                                  build\kernel\components\drivers\serial\serial.o
                                                  build\kernel\components\drivers\sdio\mmcsd_core.o
                                                  build\kernel\components\drivers\sdio\sdio.o
                                                  build\kernel\components\drivers\sdio\sd.o
                                                  build\kernel\components\drivers\rtc\alarm.o
                                                  build\kernel\components\drivers\i2c\i2c-bit-ops.o
                                                  build\kernel\components\drivers\i2c\i2c_core.o
                                                  build\kernel\components\drivers\hwtimer\hwtimer.o
                                                  build\kernel\components\drivers\audio\audio_pipe.o
                                                  build\kernel\components\drivers\audio\audio.o
                                                  build\kernel\components\dfs\filesystems\elmfat\dfs_elm.o
                                                  build\kernel\components\dfs\filesystems\elmfat\ff.o
                                                  build\kernel\components\dfs\filesystems\devfs\devfs.o
                                                  build\kernel\components\dfs\src\dfs_file.o
                                                  build\kernel\components\dfs\src\dfs.o
                                                  build\kernel\components\dfs\src\dfs_fs.o
                                                  build\kernel\components\dfs\src\dfs_posix.o
                                                  build\kernel\src\clock.o
                                                  build\kernel\src\components.o
                                                  build\kernel\src\ipc.o
                                                  build\kernel\src\idle.o
                                                  build\kernel\src\memheap.o
                                                  build\kernel\src\irq.o
                                                  build\kernel\src\timer.o
                                                  build\kernel\src\scheduler.o
                                                  build\kernel\src\kservice.o
                                                  build\kernel\src\object.o
                                                  build\kernel\src\mem.o
                                                  build\kernel\src\device.o
                                                  build\kernel\src\thread.o
                                                  build\board\ports\audio\drv_sound.o
__riscv_save_10                                   libraries\hal_libraries\ab32vg1_hal\libhal.a(save-restore.o)
                                                  build\kernel\components\drivers\serial\serial.o
                                                  build\kernel\components\drivers\sdio\block_dev.o
                                                  build\kernel\components\drivers\hwtimer\hwtimer.o
                                                  build\kernel\components\dfs\filesystems\elmfat\ff.o
                                                  build\kernel\components\dfs\src\dfs_file.o
                                                  build\kernel\components\dfs\src\dfs.o
                                                  build\kernel\components\dfs\src\dfs_fs.o
                                                  build\kernel\src\timer.o
__riscv_save_11                                   libraries\hal_libraries\ab32vg1_hal\libhal.a(save-restore.o)
                                                  build\kernel\components\libc\compilers\common\time.o
                                                  build\kernel\components\finsh\finsh_token.o
                                                  build\kernel\components\finsh\finsh_parser.o
                                                  build\kernel\components\drivers\sdio\sdio.o
                                                  build\kernel\components\drivers\sdio\sd.o
                                                  build\kernel\components\dfs\filesystems\elmfat\ff.o
                                                  build\kernel\src\mempool.o
                                                  build\kernel\src\timer.o
                                                  build\kernel\src\kservice.o
__riscv_save_12                                   libraries\hal_libraries\ab32vg1_hal\libhal.a(save-restore.o)
                                                  libraries\hal_drivers\drv_sdio.o
                                                  build\kernel\components\finsh\shell.o
                                                  build\kernel\components\finsh\msh_file.o
                                                  build\kernel\components\finsh\cmd.o
                                                  build\kernel\components\drivers\src\dataqueue.o
                                                  build\kernel\components\drivers\sdio\sdio.o
                                                  build\kernel\components\drivers\sdio\mmc.o
                                                  build\kernel\components\drivers\rtc\alarm.o
                                                  build\kernel\components\drivers\i2c\i2c-bit-ops.o
                                                  build\kernel\components\dfs\filesystems\elmfat\ff.o
                                                  build\kernel\src\ipc.o
__riscv_save_2                                    libraries\hal_libraries\ab32vg1_hal\libhal.a(save-restore.o)
                                                  libraries\hal_libraries\ab32vg1_hal\source\ab32vg1_hal_sd.o
                                                  libraries\hal_drivers\drv_hwtimer.o
                                                  libraries\hal_drivers\drv_usart.o
                                                  libraries\hal_drivers\drv_soft_i2c.o
                                                  libraries\hal_drivers\drv_rtc.o
                                                  libraries\hal_drivers\drv_gpio.o
                                                  build\kernel\components\libc\compilers\common\time.o
                                                  build\kernel\components\finsh\finsh_token.o
                                                  build\kernel\components\finsh\finsh_heap.o
                                                  build\kernel\components\finsh\finsh_compiler.o
                                                  build\kernel\components\finsh\shell.o
                                                  build\kernel\components\finsh\msh_file.o
                                                  build\kernel\components\finsh\cmd.o
                                                  build\kernel\components\finsh\finsh_parser.o
                                                  build\kernel\components\finsh\finsh_node.o
                                                  build\kernel\components\drivers\src\waitqueue.o
                                                  build\kernel\components\drivers\src\workqueue.o
                                                  build\kernel\components\drivers\src\ringbuffer.o
                                                  build\kernel\components\drivers\src\dataqueue.o
                                                  build\kernel\components\drivers\src\pipe.o
                                                  build\kernel\components\drivers\src\ringblk_buf.o
                                                  build\kernel\components\drivers\serial\serial.o
                                                  build\kernel\components\drivers\sdio\mmcsd_core.o
                                                  build\kernel\components\drivers\sdio\sdio.o
                                                  build\kernel\components\drivers\sdio\sd.o
                                                  build\kernel\components\drivers\rtc\alarm.o
                                                  build\kernel\components\drivers\misc\pin.o
                                                  build\kernel\components\drivers\misc\rt_drv_pwm.o
                                                  build\kernel\components\drivers\misc\adc.o
                                                  build\kernel\components\drivers\i2c\i2c-bit-ops.o
                                                  build\kernel\components\drivers\i2c\i2c_dev.o
                                                  build\kernel\components\drivers\i2c\i2c_core.o
                                                  build\kernel\components\drivers\hwtimer\hwtimer.o
                                                  build\kernel\components\drivers\audio\audio_pipe.o
                                                  build\kernel\components\drivers\audio\audio.o
                                                  build\kernel\components\dfs\filesystems\elmfat\dfs_elm.o
                                                  build\kernel\components\dfs\filesystems\elmfat\ff.o
                                                  build\kernel\components\dfs\filesystems\devfs\devfs.o
                                                  build\kernel\components\dfs\src\dfs_file.o
                                                  build\kernel\components\dfs\src\dfs.o
                                                  build\kernel\components\dfs\src\dfs_fs.o
                                                  build\kernel\components\dfs\src\dfs_posix.o
                                                  build\kernel\src\components.o
                                                  build\kernel\src\ipc.o
                                                  build\kernel\src\idle.o
                                                  build\kernel\src\timer.o
                                                  build\kernel\src\object.o
                                                  build\kernel\src\device.o
                                                  build\kernel\src\thread.o
                                                  build\board\ab32vg1_hal_msp.o
                                                  build\board\ports\audio\drv_sound.o
                                                  build\applications\main.o
__riscv_save_3                                    libraries\hal_libraries\ab32vg1_hal\libhal.a(save-restore.o)
                                                  libraries\hal_libraries\ab32vg1_hal\libhal.a(ab32vg1_hal_adc.o)
                                                  libcpu\cpu\cpuport.o
                                                  libraries\hal_drivers\drv_hwtimer.o
                                                  libraries\hal_drivers\drv_adc.o
                                                  libraries\hal_drivers\drv_sdio.o
                                                  libraries\hal_drivers\drv_rtc.o
                                                  build\kernel\components\libc\compilers\common\time.o
                                                  build\kernel\components\finsh\finsh_var.o
                                                  build\kernel\components\finsh\shell.o
                                                  build\kernel\components\finsh\msh_file.o
                                                  build\kernel\components\finsh\finsh_vm.o
                                                  build\kernel\components\finsh\finsh_parser.o
                                                  build\kernel\components\finsh\finsh_node.o
                                                  build\kernel\components\drivers\watchdog\watchdog.o
                                                  build\kernel\components\drivers\src\workqueue.o
                                                  build\kernel\components\drivers\src\completion.o
                                                  build\kernel\components\drivers\src\ringbuffer.o
                                                  build\kernel\components\drivers\src\pipe.o
                                                  build\kernel\components\drivers\serial\serial.o
                                                  build\kernel\components\drivers\sdio\mmcsd_core.o
                                                  build\kernel\components\drivers\sdio\sdio.o
                                                  build\kernel\components\drivers\sdio\block_dev.o
                                                  build\kernel\components\drivers\rtc\alarm.o
                                                  build\kernel\components\drivers\rtc\rtc.o
                                                  build\kernel\components\drivers\misc\pin.o
                                                  build\kernel\components\drivers\misc\rt_drv_pwm.o
                                                  build\kernel\components\drivers\i2c\i2c_dev.o
                                                  build\kernel\components\drivers\i2c\i2c_core.o
                                                  build\kernel\components\drivers\hwtimer\hwtimer.o
                                                  build\kernel\components\drivers\audio\audio.o
                                                  build\kernel\components\dfs\filesystems\elmfat\dfs_elm.o
                                                  build\kernel\components\dfs\filesystems\elmfat\ff.o
                                                  build\kernel\components\dfs\filesystems\devfs\devfs.o
                                                  build\kernel\components\dfs\src\dfs_file.o
                                                  build\kernel\components\dfs\src\dfs.o
                                                  build\kernel\components\dfs\src\dfs_fs.o
                                                  build\kernel\components\dfs\src\dfs_posix.o
                                                  build\kernel\src\ipc.o
                                                  build\kernel\src\idle.o
                                                  build\kernel\src\memheap.o
                                                  build\kernel\src\timer.o
                                                  build\kernel\src\kservice.o
                                                  build\kernel\src\mem.o
                                                  build\kernel\src\device.o
                                                  build\kernel\src\thread.o
                                                  build\board\ports\audio\drv_sound.o
__riscv_save_4                                    libraries\hal_libraries\ab32vg1_hal\libhal.a(save-restore.o)
                                                  libraries\hal_libraries\ab32vg1_hal\source\ab32vg1_hal_sd.o
                                                  libcpu\cpu\interrupt.o
                                                  libraries\hal_drivers\drv_hwtimer.o
                                                  libraries\hal_drivers\drv_rtc.o
                                                  build\kernel\components\libc\compilers\common\time.o
                                                  build\kernel\components\finsh\finsh_token.o
                                                  build\kernel\components\finsh\finsh_heap.o
                                                  build\kernel\components\finsh\finsh_compiler.o
                                                  build\kernel\components\finsh\finsh_var.o
                                                  build\kernel\components\finsh\finsh_vm.o
                                                  build\kernel\components\finsh\cmd.o
                                                  build\kernel\components\finsh\finsh_parser.o
                                                  build\kernel\components\drivers\watchdog\watchdog.o
                                                  build\kernel\components\drivers\src\workqueue.o
                                                  build\kernel\components\drivers\src\dataqueue.o
                                                  build\kernel\components\drivers\src\ringblk_buf.o
                                                  build\kernel\components\drivers\serial\serial.o
                                                  build\kernel\components\drivers\sdio\sdio.o
                                                  build\kernel\components\drivers\sdio\sd.o
                                                  build\kernel\components\drivers\sdio\mmc.o
                                                  build\kernel\components\drivers\rtc\alarm.o
                                                  build\kernel\components\drivers\misc\pin.o
                                                  build\kernel\components\drivers\misc\rt_drv_pwm.o
                                                  build\kernel\components\drivers\misc\adc.o
                                                  build\kernel\components\drivers\i2c\i2c-bit-ops.o
                                                  build\kernel\components\drivers\i2c\i2c_dev.o
                                                  build\kernel\components\drivers\audio\audio_pipe.o
                                                  build\kernel\components\drivers\audio\audio.o
                                                  build\kernel\components\dfs\filesystems\elmfat\dfs_elm.o
                                                  build\kernel\components\dfs\filesystems\elmfat\ff.o
                                                  build\kernel\components\dfs\filesystems\devfs\devfs.o
                                                  build\kernel\components\dfs\src\dfs_file.o
                                                  build\kernel\components\dfs\src\dfs.o
                                                  build\kernel\components\dfs\src\dfs_fs.o
                                                  build\kernel\components\dfs\src\dfs_posix.o
                                                  build\kernel\src\mempool.o
                                                  build\kernel\src\ipc.o
                                                  build\kernel\src\memheap.o
                                                  build\kernel\src\timer.o
                                                  build\kernel\src\object.o
                                                  build\kernel\src\mem.o
                                                  build\kernel\src\device.o
                                                  build\kernel\src\thread.o
__riscv_save_5                                    libraries\hal_libraries\ab32vg1_hal\libhal.a(save-restore.o)
                                                  libraries\hal_libraries\ab32vg1_hal\source\ab32vg1_hal_sd.o
                                                  libraries\hal_drivers\drv_usart.o
                                                  libraries\hal_drivers\drv_sdio.o
                                                  build\kernel\components\finsh\finsh_token.o
                                                  build\kernel\components\finsh\msh.o
                                                  build\kernel\components\finsh\cmd.o
                                                  build\kernel\components\finsh\finsh_parser.o
                                                  build\kernel\components\drivers\src\waitqueue.o
                                                  build\kernel\components\drivers\src\workqueue.o
                                                  build\kernel\components\drivers\src\completion.o
                                                  build\kernel\components\drivers\src\ringbuffer.o
                                                  build\kernel\components\drivers\src\pipe.o
                                                  build\kernel\components\drivers\src\ringblk_buf.o
                                                  build\kernel\components\drivers\sdio\mmcsd_core.o
                                                  build\kernel\components\drivers\sdio\sdio.o
                                                  build\kernel\components\drivers\sdio\block_dev.o
                                                  build\kernel\components\drivers\sdio\mmc.o
                                                  build\kernel\components\drivers\rtc\alarm.o
                                                  build\kernel\components\drivers\misc\adc.o
                                                  build\kernel\components\drivers\i2c\i2c_core.o
                                                  build\kernel\components\drivers\audio\audio_pipe.o
                                                  build\kernel\components\dfs\filesystems\elmfat\ff.o
                                                  build\kernel\components\dfs\filesystems\devfs\devfs.o
                                                  build\kernel\components\dfs\src\dfs_file.o
                                                  build\kernel\src\mempool.o
                                                  build\kernel\src\ipc.o
                                                  build\kernel\src\scheduler.o
                                                  build\kernel\src\kservice.o
                                                  build\kernel\src\mem.o
                                                  build\kernel\src\thread.o
__riscv_save_6                                    libraries\hal_libraries\ab32vg1_hal\libhal.a(save-restore.o)
                                                  libraries\hal_libraries\bmsis\source\system_ab32vgx.o
                                                  libraries\hal_libraries\ab32vg1_hal\source\ab32vg1_hal_gpio.o
                                                  build\kernel\components\finsh\msh.o
                                                  build\kernel\components\finsh\cmd.o
                                                  build\kernel\components\finsh\finsh_parser.o
                                                  build\kernel\components\drivers\src\ringbuffer.o
                                                  build\kernel\components\drivers\sdio\sdio.o
                                                  build\kernel\components\drivers\sdio\sd.o
                                                  build\kernel\components\drivers\rtc\alarm.o
                                                  build\kernel\components\drivers\misc\adc.o
                                                  build\kernel\components\drivers\i2c\i2c-bit-ops.o
                                                  build\kernel\components\drivers\hwtimer\hwtimer.o
                                                  build\kernel\components\dfs\filesystems\elmfat\dfs_elm.o
                                                  build\kernel\components\dfs\filesystems\elmfat\ff.o
                                                  build\kernel\src\ipc.o
                                                  build\kernel\src\timer.o
                                                  build\kernel\src\thread.o
                                                  build\applications\mnt.o
__riscv_save_7                                    libraries\hal_libraries\ab32vg1_hal\libhal.a(save-restore.o)
                                                  libraries\hal_drivers\drv_pwm.o
                                                  build\kernel\components\finsh\msh.o
                                                  build\kernel\components\finsh\msh_file.o
                                                  build\kernel\components\drivers\serial\serial.o
                                                  build\kernel\components\drivers\sdio\mmcsd_core.o
                                                  build\kernel\components\drivers\sdio\sdio.o
                                                  build\kernel\components\drivers\rtc\rtc.o
                                                  build\kernel\components\drivers\audio\audio.o
                                                  build\kernel\components\dfs\filesystems\elmfat\ff.o
                                                  build\kernel\components\dfs\filesystems\devfs\devfs.o
                                                  build\kernel\components\dfs\src\dfs.o
                                                  build\kernel\src\memheap.o
__riscv_save_8                                    libraries\hal_libraries\ab32vg1_hal\libhal.a(save-restore.o)
                                                  build\kernel\components\finsh\finsh_var.o
                                                  build\kernel\components\finsh\msh.o
                                                  build\kernel\components\finsh\cmd.o
                                                  build\kernel\components\finsh\finsh_parser.o
                                                  build\kernel\components\drivers\sdio\sdio.o
                                                  build\kernel\components\drivers\sdio\block_dev.o
                                                  build\kernel\components\drivers\audio\audio.o
                                                  build\kernel\components\dfs\filesystems\elmfat\ff.o
                                                  build\kernel\src\memheap.o
                                                  build\kernel\src\object.o
                                                  build\kernel\src\thread.o
__riscv_save_9                                    libraries\hal_libraries\ab32vg1_hal\libhal.a(save-restore.o)
                                                  libraries\hal_libraries\ab32vg1_hal\source\ab32vg1_hal_sd.o
                                                  build\kernel\components\finsh\finsh_compiler.o
                                                  build\kernel\components\finsh\cmd.o
                                                  build\kernel\components\finsh\finsh_parser.o
                                                  build\kernel\components\drivers\sdio\sdio.o
                                                  build\kernel\components\drivers\sdio\block_dev.o
                                                  build\kernel\components\drivers\audio\audio_pipe.o
                                                  build\kernel\components\dfs\filesystems\elmfat\ff.o
                                                  build\kernel\components\dfs\src\dfs_file.o
                                                  build\kernel\components\dfs\src\dfs_fs.o
__rt_ffs                                          build\kernel\src\kservice.o
                                                  build\kernel\components\drivers\sdio\mmcsd_core.o
                                                  build\kernel\src\scheduler.o
__rt_init_ab32_adc_init                           libraries\hal_drivers\drv_adc.o
__rt_init_ab32_hwtimer_init                       libraries\hal_drivers\drv_hwtimer.o
__rt_init_ab32_pwm_init                           libraries\hal_drivers\drv_pwm.o
__rt_init_ab32_sdcard_mount                       build\applications\mnt.o
__rt_init_dfs_init                                build\kernel\components\dfs\src\dfs.o
__rt_init_elm_init                                build\kernel\components\dfs\filesystems\elmfat\dfs_elm.o
__rt_init_finsh_system_init                       build\kernel\components\finsh\shell.o
__rt_init_rt_alarm_system_init                    build\kernel\components\drivers\rtc\alarm.o
__rt_init_rt_hw_i2c_init                          libraries\hal_drivers\drv_soft_i2c.o
__rt_init_rt_hw_rtc_init                          libraries\hal_drivers\drv_rtc.o
__rt_init_rt_hw_sdio_init                         libraries\hal_drivers\drv_sdio.o
__rt_init_rt_hw_sound_init                        build\board\ports\audio\drv_sound.o
__rt_init_rt_i2c_core_init                        build\kernel\components\drivers\i2c\i2c_core.o
__rt_init_rt_mmcsd_core_init                      build\kernel\components\drivers\sdio\mmcsd_core.o
__rt_init_rt_wdt_init                             libraries\hal_drivers\drv_wdt.o
__rt_init_rti_board_end                           build\kernel\src\components.o
__rt_init_rti_board_start                         build\kernel\src\components.o
__rt_init_rti_end                                 build\kernel\src\components.o
__rt_init_rti_start                               build\kernel\src\components.o
__subsf3                                          d:/program_files/programming/rt-threadstudio/repo/extract/toolchain_support_packages/risc-v/risc-v-gcc/10.1.0/bin/../lib/gcc/riscv64-unknown-elf/10.1.0/rv32im/ilp32\libgcc.a(subsf3.o)
                                                  build\kernel\components\drivers\hwtimer\hwtimer.o
__udivdi3                                         d:/program_files/programming/rt-threadstudio/repo/extract/toolchain_support_packages/risc-v/risc-v-gcc/10.1.0/bin/../lib/gcc/riscv64-unknown-elf/10.1.0/rv32im/ilp32\libgcc.a(_udivdi3.o)
                                                  libraries\hal_drivers\drv_pwm.o
__vsym_dummy                                      build\kernel\components\finsh\cmd.o
__vsym_dummy_desc                                 build\kernel\components\finsh\cmd.o
__vsym_dummy_name                                 build\kernel\components\finsh\cmd.o
__vsymtab_end                                     build\kernel\components\finsh\shell.o
__vsymtab_start                                   build\kernel\components\finsh\shell.o
__wqueue_default_wake                             build\kernel\components\drivers\src\waitqueue.o
_calloc_r                                         build\kernel\components\libc\compilers\newlib\minilib.o
_free_r                                           build\kernel\components\libc\compilers\newlib\minilib.o
_global_impure_ptr                                d:/program_files/programming/rt-threadstudio/repo/extract/toolchain_support_packages/risc-v/risc-v-gcc/10.1.0/bin/../lib/gcc/riscv64-unknown-elf/10.1.0/../../../../riscv64-unknown-elf/lib/rv32im/ilp32\libc.a(lib_a-impure.o)
_gp                                               libraries\hal_libraries\ab32vg1_hal\libhal.a(save-restore.o)
_impure_ptr                                       d:/program_files/programming/rt-threadstudio/repo/extract/toolchain_support_packages/risc-v/risc-v-gcc/10.1.0/bin/../lib/gcc/riscv64-unknown-elf/10.1.0/../../../../riscv64-unknown-elf/lib/rv32im/ilp32\libc.a(lib_a-impure.o)
                                                  d:/program_files/programming/rt-threadstudio/repo/extract/toolchain_support_packages/risc-v/risc-v-gcc/10.1.0/bin/../lib/gcc/riscv64-unknown-elf/10.1.0/../../../../riscv64-unknown-elf/lib/rv32im/ilp32\libc.a(lib_a-errno.o)
_malloc_r                                         build\kernel\components\libc\compilers\newlib\minilib.o
_realloc_r                                        build\kernel\components\libc\compilers\newlib\minilib.o
_rt_errno                                         build\kernel\src\kservice.o
_start                                            libraries\hal_libraries\bmsis\source\startup.o
_syscall_table_begin                              build\kernel\components\finsh\shell.o
                                                  build\kernel\components\finsh\msh.o
                                                  build\kernel\components\finsh\finsh_vm.o
                                                  build\kernel\components\finsh\cmd.o
_syscall_table_end                                build\kernel\components\finsh\shell.o
                                                  build\kernel\components\finsh\msh.o
                                                  build\kernel\components\finsh\finsh_vm.o
                                                  build\kernel\components\finsh\cmd.o
_sysvar_table_begin                               build\kernel\components\finsh\shell.o
                                                  build\kernel\components\finsh\finsh_var.o
                                                  build\kernel\components\finsh\cmd.o
_sysvar_table_end                                 build\kernel\components\finsh\shell.o
                                                  build\kernel\components\finsh\finsh_var.o
                                                  build\kernel\components\finsh\cmd.o
ab32_mmcsd_change                                 libraries\hal_drivers\drv_sdio.o
ab32_sdcard_mount                                 build\applications\mnt.o
access                                            build\kernel\components\dfs\src\dfs_posix.o
adpll_init                                        build\board\ports\audio\drv_sound.o
asctime                                           build\kernel\components\libc\compilers\common\time.o
asctime_r                                         build\kernel\components\libc\compilers\common\time.o
atoi                                              libraries\hal_libraries\ab32vg1_hal\libhal.a(rom_fun.o)
                                                  build\kernel\components\finsh\finsh_token.o
                                                  build\kernel\components\drivers\rtc\rtc.o
                                                  build\kernel\components\drivers\misc\rt_drv_pwm.o
                                                  build\kernel\components\drivers\misc\adc.o
audio_sem_pend                                    build\board\ports\audio\drv_sound.o
audio_sem_post                                    build\board\ports\audio\drv_sound.o
cache_init                                        build\board\board.o
                                                  libraries\hal_libraries\bmsis\source\startup.o
cat                                               build\kernel\components\dfs\src\dfs_file.o
                                                  build\kernel\components\finsh\msh_file.o
chdir                                             build\kernel\components\dfs\src\dfs_posix.o
                                                  build\kernel\components\finsh\msh_file.o
clock                                             build\kernel\components\libc\compilers\common\time.o
close                                             build\kernel\components\dfs\src\dfs_posix.o
                                                  build\kernel\components\finsh\msh_file.o
closedir                                          build\kernel\components\dfs\src\dfs_posix.o
                                                  build\kernel\components\finsh\msh.o
                                                  build\kernel\components\finsh\msh_file.o
cmd_cat                                           build\kernel\components\finsh\msh_file.o
cmd_cd                                            build\kernel\components\finsh\msh_file.o
cmd_cp                                            build\kernel\components\finsh\msh_file.o
cmd_df                                            build\kernel\components\finsh\msh_file.o
cmd_echo                                          build\kernel\components\finsh\msh_file.o
cmd_free                                          build\kernel\components\finsh\msh.o
cmd_ls                                            build\kernel\components\finsh\msh_file.o
cmd_mkdir                                         build\kernel\components\finsh\msh_file.o
cmd_mkfs                                          build\kernel\components\finsh\msh_file.o
cmd_mount                                         build\kernel\components\finsh\msh_file.o
cmd_mv                                            build\kernel\components\finsh\msh_file.o
cmd_ps                                            build\kernel\components\finsh\msh.o
cmd_pwd                                           build\kernel\components\finsh\msh_file.o
cmd_rm                                            build\kernel\components\finsh\msh_file.o
cmd_umount                                        build\kernel\components\finsh\msh_file.o
copy                                              build\kernel\components\dfs\src\dfs_file.o
                                                  build\kernel\components\finsh\msh_file.o
cpu_irq_comm                                      libraries\hal_libraries\bmsis\source\startup.o
                                                  build\board\board.o
cpu_irq_comm_do                                   libcpu\cpu\interrupt.o
                                                  libraries\hal_libraries\bmsis\source\startup.o
cpu_irq_comm_hook                                 libcpu\cpu\interrupt.o
                                                  libcpu\cpu\context_gcc.o
ctime                                             build\kernel\components\libc\compilers\common\time.o
                                                  build\kernel\components\drivers\rtc\rtc.o
ctime_r                                           build\kernel\components\libc\compilers\common\time.o
dac_start                                         build\board\ports\audio\drv_sound.o
devfs_init                                        build\kernel\components\dfs\filesystems\devfs\devfs.o
                                                  build\kernel\components\dfs\src\dfs.o
df                                                build\kernel\components\dfs\src\dfs_fs.o
                                                  build\kernel\components\finsh\msh_file.o
dfs_device_fs_close                               build\kernel\components\dfs\filesystems\devfs\devfs.o
dfs_device_fs_getdents                            build\kernel\components\dfs\filesystems\devfs\devfs.o
dfs_device_fs_ioctl                               build\kernel\components\dfs\filesystems\devfs\devfs.o
dfs_device_fs_mount                               build\kernel\components\dfs\filesystems\devfs\devfs.o
dfs_device_fs_open                                build\kernel\components\dfs\filesystems\devfs\devfs.o
dfs_device_fs_read                                build\kernel\components\dfs\filesystems\devfs\devfs.o
dfs_device_fs_stat                                build\kernel\components\dfs\filesystems\devfs\devfs.o
dfs_device_fs_write                               build\kernel\components\dfs\filesystems\devfs\devfs.o
dfs_elm_close                                     build\kernel\components\dfs\filesystems\elmfat\dfs_elm.o
dfs_elm_flush                                     build\kernel\components\dfs\filesystems\elmfat\dfs_elm.o
dfs_elm_getdents                                  build\kernel\components\dfs\filesystems\elmfat\dfs_elm.o
dfs_elm_ioctl                                     build\kernel\components\dfs\filesystems\elmfat\dfs_elm.o
dfs_elm_lseek                                     build\kernel\components\dfs\filesystems\elmfat\dfs_elm.o
dfs_elm_mkfs                                      build\kernel\components\dfs\filesystems\elmfat\dfs_elm.o
dfs_elm_mount                                     build\kernel\components\dfs\filesystems\elmfat\dfs_elm.o
dfs_elm_open                                      build\kernel\components\dfs\filesystems\elmfat\dfs_elm.o
dfs_elm_read                                      build\kernel\components\dfs\filesystems\elmfat\dfs_elm.o
dfs_elm_rename                                    build\kernel\components\dfs\filesystems\elmfat\dfs_elm.o
dfs_elm_stat                                      build\kernel\components\dfs\filesystems\elmfat\dfs_elm.o
dfs_elm_statfs                                    build\kernel\components\dfs\filesystems\elmfat\dfs_elm.o
dfs_elm_unlink                                    build\kernel\components\dfs\filesystems\elmfat\dfs_elm.o
dfs_elm_unmount                                   build\kernel\components\dfs\filesystems\elmfat\dfs_elm.o
dfs_elm_write                                     build\kernel\components\dfs\filesystems\elmfat\dfs_elm.o
dfs_fdtable_get                                   build\kernel\components\dfs\src\dfs.o
dfs_file_close                                    build\kernel\components\dfs\src\dfs_file.o
                                                  build\kernel\components\dfs\src\dfs_fs.o
                                                  build\kernel\components\dfs\src\dfs_posix.o
dfs_file_flush                                    build\kernel\components\dfs\src\dfs_file.o
                                                  build\kernel\components\dfs\src\dfs_posix.o
dfs_file_ftruncate                                build\kernel\components\dfs\src\dfs_file.o
                                                  build\kernel\components\dfs\src\dfs_posix.o
dfs_file_getdents                                 build\kernel\components\dfs\src\dfs_file.o
                                                  build\kernel\components\dfs\src\dfs_posix.o
dfs_file_ioctl                                    build\kernel\components\dfs\src\dfs_file.o
                                                  build\kernel\components\dfs\src\dfs_posix.o
dfs_file_lseek                                    build\kernel\components\dfs\src\dfs_file.o
                                                  build\kernel\components\dfs\src\dfs_posix.o
dfs_file_open                                     build\kernel\components\dfs\src\dfs_file.o
                                                  build\kernel\components\dfs\src\dfs_fs.o
                                                  build\kernel\components\dfs\src\dfs_posix.o
dfs_file_read                                     build\kernel\components\dfs\src\dfs_file.o
                                                  build\kernel\components\dfs\src\dfs_posix.o
dfs_file_rename                                   build\kernel\components\dfs\src\dfs_file.o
                                                  build\kernel\components\dfs\src\dfs_posix.o
dfs_file_stat                                     build\kernel\components\dfs\src\dfs_file.o
                                                  build\kernel\components\dfs\src\dfs_posix.o
dfs_file_unlink                                   build\kernel\components\dfs\src\dfs_file.o
                                                  build\kernel\components\dfs\src\dfs_posix.o
dfs_file_write                                    build\kernel\components\dfs\src\dfs_file.o
                                                  build\kernel\components\dfs\src\dfs_posix.o
dfs_filesystem_get_mounted_path                   build\kernel\components\dfs\src\dfs_fs.o
                                                  build\kernel\components\drivers\sdio\block_dev.o
dfs_filesystem_get_partition                      build\kernel\components\dfs\src\dfs_fs.o
                                                  build\kernel\components\drivers\sdio\block_dev.o
dfs_filesystem_lookup                             build\kernel\components\dfs\src\dfs_fs.o
                                                  build\kernel\components\dfs\src\dfs_file.o
                                                  build\kernel\components\dfs\src\dfs.o
dfs_init                                          build\kernel\components\dfs\src\dfs.o
dfs_lock                                          build\kernel\components\dfs\src\dfs.o
                                                  build\kernel\components\dfs\src\dfs_fs.o
                                                  build\kernel\components\dfs\src\dfs_posix.o
dfs_mkfs                                          build\kernel\components\dfs\src\dfs_fs.o
                                                  build\kernel\components\finsh\msh_file.o
dfs_mount                                         build\kernel\components\dfs\src\dfs_fs.o
                                                  build\kernel\components\finsh\msh_file.o
                                                  build\kernel\components\dfs\src\dfs.o
                                                  build\applications\mnt.o
dfs_normalize_path                                build\kernel\components\dfs\src\dfs.o
                                                  build\kernel\components\dfs\src\dfs_file.o
                                                  build\kernel\components\dfs\src\dfs_fs.o
                                                  build\kernel\components\dfs\src\dfs_posix.o
dfs_register                                      build\kernel\components\dfs\src\dfs_fs.o
                                                  build\kernel\components\dfs\filesystems\elmfat\dfs_elm.o
                                                  build\kernel\components\dfs\filesystems\devfs\devfs.o
dfs_statfs                                        build\kernel\components\dfs\src\dfs_fs.o
                                                  build\kernel\components\dfs\src\dfs_posix.o
dfs_subdir                                        build\kernel\components\dfs\src\dfs.o
                                                  build\kernel\components\dfs\src\dfs_file.o
dfs_unlock                                        build\kernel\components\dfs\src\dfs.o
                                                  build\kernel\components\dfs\src\dfs_fs.o
                                                  build\kernel\components\dfs\src\dfs_posix.o
dfs_unmount                                       build\kernel\components\dfs\src\dfs_fs.o
                                                  build\kernel\components\finsh\msh_file.o
                                                  build\kernel\components\drivers\sdio\block_dev.o
disk_initialize                                   build\kernel\components\dfs\filesystems\elmfat\dfs_elm.o
                                                  build\kernel\components\dfs\filesystems\elmfat\ff.o
disk_ioctl                                        build\kernel\components\dfs\filesystems\elmfat\dfs_elm.o
                                                  build\kernel\components\dfs\filesystems\elmfat\ff.o
disk_read                                         build\kernel\components\dfs\filesystems\elmfat\dfs_elm.o
                                                  build\kernel\components\dfs\filesystems\elmfat\ff.o
disk_status                                       build\kernel\components\dfs\filesystems\elmfat\dfs_elm.o
                                                  build\kernel\components\dfs\filesystems\elmfat\ff.o
disk_write                                        build\kernel\components\dfs\filesystems\elmfat\dfs_elm.o
                                                  build\kernel\components\dfs\filesystems\elmfat\ff.o
elm_get_vol                                       build\kernel\components\dfs\filesystems\elmfat\ff.o
                                                  build\kernel\components\dfs\filesystems\elmfat\dfs_elm.o
elm_init                                          build\kernel\components\dfs\filesystems\elmfat\dfs_elm.o
entry                                             build\kernel\src\components.o
                                                  libraries\hal_libraries\bmsis\source\startup.o
exception_isr                                     build\board\board.o
                                                  libraries\hal_libraries\bmsis\source\startup.o
f_close                                           build\kernel\components\dfs\filesystems\elmfat\ff.o
                                                  build\kernel\components\dfs\filesystems\elmfat\dfs_elm.o
f_closedir                                        build\kernel\components\dfs\filesystems\elmfat\ff.o
f_getfree                                         build\kernel\components\dfs\filesystems\elmfat\ff.o
                                                  build\kernel\components\dfs\filesystems\elmfat\dfs_elm.o
f_lseek                                           build\kernel\components\dfs\filesystems\elmfat\ff.o
                                                  build\kernel\components\dfs\filesystems\elmfat\dfs_elm.o
f_mkdir                                           build\kernel\components\dfs\filesystems\elmfat\ff.o
                                                  build\kernel\components\dfs\filesystems\elmfat\dfs_elm.o
f_mkfs                                            build\kernel\components\dfs\filesystems\elmfat\ff.o
                                                  build\kernel\components\dfs\filesystems\elmfat\dfs_elm.o
f_mount                                           build\kernel\components\dfs\filesystems\elmfat\ff.o
                                                  build\kernel\components\dfs\filesystems\elmfat\dfs_elm.o
f_open                                            build\kernel\components\dfs\filesystems\elmfat\ff.o
                                                  build\kernel\components\dfs\filesystems\elmfat\dfs_elm.o
f_opendir                                         build\kernel\components\dfs\filesystems\elmfat\ff.o
                                                  build\kernel\components\dfs\filesystems\elmfat\dfs_elm.o
f_read                                            build\kernel\components\dfs\filesystems\elmfat\ff.o
                                                  build\kernel\components\dfs\filesystems\elmfat\dfs_elm.o
f_readdir                                         build\kernel\components\dfs\filesystems\elmfat\ff.o
                                                  build\kernel\components\dfs\filesystems\elmfat\dfs_elm.o
f_rename                                          build\kernel\components\dfs\filesystems\elmfat\ff.o
                                                  build\kernel\components\dfs\filesystems\elmfat\dfs_elm.o
f_seekdir                                         build\kernel\components\dfs\filesystems\elmfat\ff.o
                                                  build\kernel\components\dfs\filesystems\elmfat\dfs_elm.o
f_stat                                            build\kernel\components\dfs\filesystems\elmfat\ff.o
                                                  build\kernel\components\dfs\filesystems\elmfat\dfs_elm.o
f_sync                                            build\kernel\components\dfs\filesystems\elmfat\ff.o
                                                  build\kernel\components\dfs\filesystems\elmfat\dfs_elm.o
f_truncate                                        build\kernel\components\dfs\filesystems\elmfat\ff.o
                                                  build\kernel\components\dfs\filesystems\elmfat\dfs_elm.o
f_unlink                                          build\kernel\components\dfs\filesystems\elmfat\ff.o
                                                  build\kernel\components\dfs\filesystems\elmfat\dfs_elm.o
f_write                                           build\kernel\components\dfs\filesystems\elmfat\ff.o
                                                  build\kernel\components\dfs\filesystems\elmfat\dfs_elm.o
fcntl                                             build\kernel\components\dfs\src\dfs_posix.o
fd_get                                            build\kernel\components\dfs\src\dfs.o
                                                  build\kernel\components\dfs\src\dfs_posix.o
fd_is_open                                        build\kernel\components\dfs\src\dfs.o
                                                  build\kernel\components\dfs\src\dfs_file.o
fd_new                                            build\kernel\components\dfs\src\dfs.o
                                                  build\kernel\components\dfs\src\dfs_posix.o
fd_put                                            build\kernel\components\dfs\src\dfs.o
                                                  build\kernel\components\dfs\src\dfs_posix.o
ff_cre_syncobj                                    build\kernel\components\dfs\filesystems\elmfat\dfs_elm.o
                                                  build\kernel\components\dfs\filesystems\elmfat\ff.o
ff_del_syncobj                                    build\kernel\components\dfs\filesystems\elmfat\dfs_elm.o
                                                  build\kernel\components\dfs\filesystems\elmfat\ff.o
ff_memalloc                                       build\kernel\components\dfs\filesystems\elmfat\dfs_elm.o
                                                  build\kernel\components\dfs\filesystems\elmfat\ff.o
ff_memfree                                        build\kernel\components\dfs\filesystems\elmfat\dfs_elm.o
                                                  build\kernel\components\dfs\filesystems\elmfat\ff.o
ff_oem2uni                                        build\kernel\components\dfs\filesystems\elmfat\ffunicode.o
                                                  build\kernel\components\dfs\filesystems\elmfat\ff.o
ff_rel_grant                                      build\kernel\components\dfs\filesystems\elmfat\dfs_elm.o
                                                  build\kernel\components\dfs\filesystems\elmfat\ff.o
ff_req_grant                                      build\kernel\components\dfs\filesystems\elmfat\dfs_elm.o
                                                  build\kernel\components\dfs\filesystems\elmfat\ff.o
ff_uni2oem                                        build\kernel\components\dfs\filesystems\elmfat\ffunicode.o
                                                  build\kernel\components\dfs\filesystems\elmfat\ff.o
ff_wtoupper                                       build\kernel\components\dfs\filesystems\elmfat\ffunicode.o
                                                  build\kernel\components\dfs\filesystems\elmfat\ff.o
filesystem_operation_table                        build\kernel\components\dfs\src\dfs.o
                                                  build\kernel\components\dfs\src\dfs_fs.o
filesystem_table                                  build\kernel\components\dfs\src\dfs.o
                                                  build\kernel\components\finsh\msh_file.o
                                                  build\kernel\components\dfs\src\dfs_fs.o
finsh_compile_pc                                  build\kernel\components\finsh\finsh_compiler.o
finsh_compile_sp                                  build\kernel\components\finsh\finsh_compiler.o
finsh_compiler_run                                build\kernel\components\finsh\finsh_compiler.o
                                                  build\kernel\components\finsh\shell.o
finsh_errno                                       build\kernel\components\finsh\finsh_error.o
                                                  build\kernel\components\finsh\shell.o
finsh_error_init                                  build\kernel\components\finsh\finsh_error.o
                                                  build\kernel\components\finsh\finsh_init.o
finsh_error_set                                   build\kernel\components\finsh\finsh_error.o
                                                  build\kernel\components\finsh\finsh_token.o
                                                  build\kernel\components\finsh\finsh_compiler.o
                                                  build\kernel\components\finsh\finsh_parser.o
                                                  build\kernel\components\finsh\finsh_node.o
finsh_error_string                                build\kernel\components\finsh\finsh_error.o
                                                  build\kernel\components\finsh\shell.o
finsh_flush                                       build\kernel\components\finsh\finsh_init.o
                                                  build\kernel\components\finsh\shell.o
finsh_get_device                                  build\kernel\components\finsh\shell.o
finsh_get_echo                                    build\kernel\components\finsh\shell.o
finsh_get_prompt                                  build\kernel\components\finsh\shell.o
finsh_get_prompt_mode                             build\kernel\components\finsh\shell.o
finsh_heap                                        build\kernel\components\finsh\finsh_heap.o
finsh_heap_allocate                               build\kernel\components\finsh\finsh_heap.o
                                                  build\kernel\components\finsh\finsh_node.o
finsh_heap_free                                   build\kernel\components\finsh\finsh_heap.o
finsh_heap_init                                   build\kernel\components\finsh\finsh_heap.o
                                                  build\kernel\components\finsh\finsh_init.o
finsh_init                                        build\kernel\components\finsh\finsh_init.o
                                                  build\kernel\components\finsh\shell.o
finsh_node_allocate                               build\kernel\components\finsh\finsh_node.o
                                                  build\kernel\components\finsh\finsh_parser.o
finsh_node_init                                   build\kernel\components\finsh\finsh_node.o
                                                  build\kernel\components\finsh\finsh_init.o
finsh_node_new_char                               build\kernel\components\finsh\finsh_node.o
                                                  build\kernel\components\finsh\finsh_parser.o
finsh_node_new_id                                 build\kernel\components\finsh\finsh_node.o
                                                  build\kernel\components\finsh\finsh_parser.o
finsh_node_new_int                                build\kernel\components\finsh\finsh_node.o
                                                  build\kernel\components\finsh\finsh_parser.o
finsh_node_new_long                               build\kernel\components\finsh\finsh_node.o
                                                  build\kernel\components\finsh\finsh_parser.o
finsh_node_new_ptr                                build\kernel\components\finsh\finsh_node.o
                                                  build\kernel\components\finsh\finsh_parser.o
finsh_node_new_string                             build\kernel\components\finsh\finsh_node.o
                                                  build\kernel\components\finsh\finsh_parser.o
finsh_parser_init                                 build\kernel\components\finsh\finsh_parser.o
                                                  build\kernel\components\finsh\finsh_init.o
finsh_parser_run                                  build\kernel\components\finsh\finsh_parser.o
                                                  build\kernel\components\finsh\shell.o
finsh_pc                                          build\kernel\components\finsh\finsh_vm.o
                                                  build\kernel\components\finsh\finsh_ops.o
finsh_reset                                       build\kernel\components\finsh\finsh_init.o
finsh_run_line                                    build\kernel\components\finsh\shell.o
finsh_set_device                                  build\kernel\components\finsh\shell.o
finsh_set_echo                                    build\kernel\components\finsh\shell.o
finsh_set_prompt                                  build\kernel\components\finsh\shell.o
finsh_set_prompt_mode                             build\kernel\components\finsh\shell.o
finsh_sp                                          build\kernel\components\finsh\finsh_vm.o
                                                  build\kernel\components\finsh\finsh_ops.o
finsh_stack_bottom                                build\kernel\components\finsh\finsh_init.o
                                                  build\kernel\components\finsh\shell.o
finsh_syscall_append                              build\kernel\components\finsh\finsh_vm.o
finsh_syscall_lookup                              build\kernel\components\finsh\finsh_vm.o
                                                  build\kernel\components\finsh\finsh_node.o
finsh_system_function_init                        build\kernel\components\finsh\shell.o
finsh_system_init                                 build\kernel\components\finsh\shell.o
finsh_system_var_init                             build\kernel\components\finsh\shell.o
finsh_sysvar_append                               build\kernel\components\finsh\finsh_var.o
finsh_sysvar_lookup                               build\kernel\components\finsh\finsh_var.o
                                                  build\kernel\components\finsh\finsh_node.o
finsh_thread_entry                                build\kernel\components\finsh\shell.o
finsh_token_get_token                             build\kernel\components\finsh\finsh_token.o
finsh_token_init                                  build\kernel\components\finsh\finsh_token.o
                                                  build\kernel\components\finsh\finsh_parser.o
finsh_token_token                                 build\kernel\components\finsh\finsh_token.o
                                                  build\kernel\components\finsh\finsh_parser.o
finsh_var_delete                                  build\kernel\components\finsh\finsh_var.o
finsh_var_init                                    build\kernel\components\finsh\finsh_var.o
                                                  build\kernel\components\finsh\finsh_init.o
finsh_var_insert                                  build\kernel\components\finsh\finsh_var.o
                                                  build\kernel\components\finsh\finsh_parser.o
finsh_var_lookup                                  build\kernel\components\finsh\finsh_var.o
                                                  build\kernel\components\finsh\finsh_node.o
finsh_vm_run                                      build\kernel\components\finsh\finsh_vm.o
                                                  build\kernel\components\finsh\shell.o
finsh_vm_stack                                    build\kernel\components\finsh\finsh_vm.o
                                                  build\kernel\components\finsh\finsh_init.o
                                                  build\kernel\components\finsh\finsh_compiler.o
fstat                                             build\kernel\components\dfs\src\dfs_posix.o
fsync                                             build\kernel\components\dfs\src\dfs_posix.o
ftruncate                                         build\kernel\components\dfs\src\dfs_posix.o
get_clksel_val                                    libraries\hal_libraries\bmsis\source\system_ab32vgx.o
get_cur_sysclk                                    libraries\hal_libraries\bmsis\source\system_ab32vgx.o
get_fattime                                       build\kernel\components\dfs\filesystems\elmfat\dfs_elm.o
                                                  build\kernel\components\dfs\filesystems\elmfat\ff.o
get_sd_rate                                       libraries\hal_libraries\bmsis\source\system_ab32vgx.o
get_sysclk_nhz                                    libraries\hal_libraries\bmsis\source\system_ab32vgx.o
                                                  libraries\hal_drivers\drv_hwtimer.o
                                                  libraries\hal_drivers\drv_pwm.o
                                                  libraries\hal_drivers\drv_sdio.o
                                                  build\board\board.o
get_weekday                                       libraries\hal_drivers\drv_rtc.o
getcwd                                            build\kernel\components\dfs\src\dfs_posix.o
                                                  build\kernel\components\finsh\shell.o
                                                  build\kernel\components\finsh\msh.o
gettimeofday                                      build\kernel\components\libc\compilers\common\time.o
global_errno                                      build\kernel\components\finsh\finsh_error.o
global_node_table                                 build\kernel\components\finsh\finsh_node.o
global_syscall_list                               build\kernel\components\finsh\finsh_vm.o
                                                  build\kernel\components\finsh\cmd.o
global_sysvar_list                                build\kernel\components\finsh\finsh_var.o
                                                  build\kernel\components\finsh\cmd.o
global_variable                                   build\kernel\components\finsh\finsh_var.o
                                                  build\kernel\components\finsh\finsh_heap.o
gmtime                                            build\kernel\components\libc\compilers\common\time.o
                                                  build\kernel\components\dfs\filesystems\elmfat\dfs_elm.o
gmtime_r                                          build\kernel\components\libc\compilers\common\time.o
                                                  build\kernel\components\drivers\rtc\alarm.o
gpio_afinit                                       libraries\hal_libraries\ab32vg1_hal\source\ab32vg1_hal_gpio.o
hal_adc_enable                                    libraries\hal_libraries\ab32vg1_hal\libhal.a(ab32vg1_hal_adc.o)
                                                  libraries\hal_drivers\drv_adc.o
hal_adc_poll_for_conversion                       libraries\hal_libraries\ab32vg1_hal\libhal.a(ab32vg1_hal_adc.o)
                                                  libraries\hal_drivers\drv_adc.o
hal_adc_start                                     libraries\hal_libraries\ab32vg1_hal\libhal.a(ab32vg1_hal_adc.o)
                                                  libraries\hal_drivers\drv_adc.o
hal_gpio_init                                     libraries\hal_libraries\ab32vg1_hal\source\ab32vg1_hal_gpio.o
                                                  libraries\hal_drivers\drv_gpio.o
                                                  build\board\ab32vg1_hal_msp.o
hal_gpio_read                                     libraries\hal_libraries\ab32vg1_hal\source\ab32vg1_hal_gpio.o
                                                  libraries\hal_drivers\drv_gpio.o
hal_gpio_toggle                                   libraries\hal_libraries\ab32vg1_hal\source\ab32vg1_hal_gpio.o
hal_gpio_write                                    libraries\hal_libraries\ab32vg1_hal\source\ab32vg1_hal_gpio.o
                                                  libraries\hal_drivers\drv_gpio.o
hal_mdelay                                        build\board\board.o
                                                  libraries\hal_libraries\ab32vg1_hal\libhal.a(ab32vg1_hal_adc.o)
                                                  libraries\hal_libraries\ab32vg1_hal\source\ab32vg1_hal_sd.o
                                                  libraries\hal_drivers\drv_sdio.o
                                                  build\board\ports\audio\drv_sound.o
hal_printf                                        build\board\board.o
                                                  libraries\hal_libraries\ab32vg1_hal\source\ab32vg1_hal_sd.o
hal_pwm_mspinit                                   build\board\ab32vg1_hal_msp.o
                                                  libraries\hal_drivers\drv_pwm.o
hal_rcu_periph_clk_disable                        libraries\hal_libraries\ab32vg1_hal\source\ab32vg1_hal_rcu.o
hal_rcu_periph_clk_enable                         libraries\hal_libraries\ab32vg1_hal\source\ab32vg1_hal_rcu.o
                                                  libraries\hal_libraries\ab32vg1_hal\source\ab32vg1_hal_uart.o
                                                  libraries\hal_drivers\drv_sdio.o
hal_rtc_init                                      libraries\hal_drivers\drv_rtc.o
hal_sd_deinit                                     libraries\hal_libraries\ab32vg1_hal\source\ab32vg1_hal_sd.o
hal_sd_init                                       libraries\hal_libraries\ab32vg1_hal\source\ab32vg1_hal_sd.o
hal_sd_initcard                                   libraries\hal_libraries\ab32vg1_hal\source\ab32vg1_hal_sd.o
hal_sd_mspinit                                    build\board\ab32vg1_hal_msp.o
                                                  libraries\hal_drivers\drv_sdio.o
hal_sd_read                                       libraries\hal_libraries\ab32vg1_hal\source\ab32vg1_hal_sd.o
hal_set_tick_hook                                 libraries\hal_libraries\ab32vg1_hal\source\ab32vg1_hal.o
                                                  build\board\board.o
hal_set_ticks                                     libraries\hal_libraries\ab32vg1_hal\source\ab32vg1_hal.o
                                                  build\board\board.o
hal_uart_clrflag                                  libraries\hal_libraries\ab32vg1_hal\source\ab32vg1_hal_uart.o
                                                  libraries\hal_drivers\drv_usart.o
hal_uart_control                                  libraries\hal_libraries\ab32vg1_hal\source\ab32vg1_hal_uart.o
                                                  libraries\hal_drivers\drv_usart.o
hal_uart_deinit                                   libraries\hal_libraries\ab32vg1_hal\source\ab32vg1_hal_uart.o
                                                  libraries\hal_drivers\drv_usart.o
hal_uart_getflag                                  libraries\hal_libraries\ab32vg1_hal\source\ab32vg1_hal_uart.o
                                                  libraries\hal_drivers\drv_usart.o
hal_uart_init                                     libraries\hal_libraries\ab32vg1_hal\source\ab32vg1_hal_uart.o
                                                  libraries\hal_drivers\drv_usart.o
hal_uart_mspinit                                  build\board\ab32vg1_hal_msp.o
                                                  libraries\hal_libraries\ab32vg1_hal\source\ab32vg1_hal_uart.o
hal_uart_read                                     libraries\hal_libraries\ab32vg1_hal\source\ab32vg1_hal_uart.o
                                                  libraries\hal_drivers\drv_usart.o
hal_uart_setbaud                                  libraries\hal_libraries\ab32vg1_hal\source\ab32vg1_hal_uart.o
hal_uart_setparam                                 libraries\hal_libraries\ab32vg1_hal\source\ab32vg1_hal_uart.o
hal_uart_write                                    libraries\hal_libraries\ab32vg1_hal\source\ab32vg1_hal_uart.o
                                                  libraries\hal_drivers\drv_usart.o
hal_udelay                                        libraries\hal_libraries\ab32vg1_hal\source\ab32vg1_hal.o
                                                  libraries\hal_libraries\ab32vg1_hal\source\ab32vg1_hal_sd.o
hello                                             build\kernel\components\finsh\cmd.o
init_mmc                                          build\kernel\components\drivers\sdio\mmc.o
                                                  build\kernel\components\drivers\sdio\mmcsd_core.o
init_sd                                           build\kernel\components\drivers\sdio\sd.o
                                                  build\kernel\components\drivers\sdio\mmcsd_core.o
init_sdio                                         build\kernel\components\drivers\sdio\sdio.o
                                                  build\kernel\components\drivers\sdio\mmcsd_core.o
ioctl                                             build\kernel\components\dfs\src\dfs_posix.o
irq_mask                                          libcpu\cpu\interrupt.o
irtc_read                                         libraries\hal_drivers\drv_rtc.o
irtc_sfr_read                                     libraries\hal_drivers\drv_rtc.o
irtc_sfr_write                                    libraries\hal_drivers\drv_rtc.o
irtc_time_read                                    libraries\hal_drivers\drv_rtc.o
irtc_time_write                                   libraries\hal_drivers\drv_rtc.o
irtc_write                                        libraries\hal_drivers\drv_rtc.o
list                                              build\kernel\components\finsh\cmd.o
list_date                                         build\kernel\components\drivers\rtc\rtc.o
list_device                                       build\kernel\components\finsh\cmd.o
list_event                                        build\kernel\components\finsh\cmd.o
list_fd                                           build\kernel\components\dfs\src\dfs.o
list_mailbox                                      build\kernel\components\finsh\cmd.o
list_mem                                          build\kernel\src\mem.o
                                                  build\kernel\components\finsh\msh.o
list_memheap                                      build\kernel\components\finsh\cmd.o
                                                  build\kernel\src\memheap.o
list_mempool                                      build\kernel\components\finsh\cmd.o
list_msgqueue                                     build\kernel\components\finsh\cmd.o
list_mutex                                        build\kernel\components\finsh\cmd.o
list_prefix                                       build\kernel\components\finsh\cmd.o
                                                  build\kernel\components\finsh\shell.o
list_sem                                          build\kernel\components\finsh\cmd.o
list_thread                                       build\kernel\components\finsh\cmd.o
                                                  build\kernel\components\finsh\msh.o
list_timer                                        build\kernel\components\finsh\cmd.o
load_cache                                        libraries\hal_libraries\ab32vg1_hal\libhal.a(cache.o)
                                                  build\board\board.o
localtime                                         build\kernel\components\libc\compilers\common\time.o
                                                  build\kernel\components\drivers\rtc\rtc.o
localtime_r                                       build\kernel\components\libc\compilers\common\time.o
low_prio_irq                                      libcpu\cpu\context_gcc.o
                                                  libraries\hal_libraries\bmsis\source\startup.o
ls                                                build\kernel\components\dfs\src\dfs_file.o
                                                  build\kernel\components\finsh\msh_file.o
lseek                                             build\kernel\components\dfs\src\dfs_posix.o
main                                              build\applications\main.o
                                                  build\kernel\src\components.o
main_thread_entry                                 build\kernel\src\components.o
memcmp                                            libraries\hal_libraries\ab32vg1_hal\libhal.a(rom_fun.o)
                                                  build\kernel\components\finsh\shell.o
memcpy                                            libraries\hal_libraries\ab32vg1_hal\libhal.a(rom_fun.o)
                                                  libraries\hal_drivers\drv_soft_i2c.o
                                                  build\kernel\components\finsh\shell.o
                                                  build\kernel\components\finsh\msh.o
                                                  build\kernel\components\finsh\msh_file.o
                                                  build\kernel\components\drivers\src\ringbuffer.o
                                                  build\kernel\components\drivers\rtc\alarm.o
                                                  build\kernel\components\drivers\hwtimer\hwtimer.o
                                                  build\kernel\components\drivers\audio\audio.o
                                                  build\kernel\components\dfs\filesystems\elmfat\dfs_elm.o
memheaptrace                                      build\kernel\src\memheap.o
memove                                            libraries\hal_libraries\ab32vg1_hal\libhal.a(rom_fun.o)
memset                                            libraries\hal_libraries\ab32vg1_hal\libhal.a(rom_fun.o)
                                                  libraries\hal_libraries\bmsis\source\startup.o
                                                  libraries\hal_drivers\drv_sdio.o
                                                  libraries\hal_drivers\drv_rtc.o
                                                  build\kernel\components\finsh\finsh_token.o
                                                  build\kernel\components\finsh\finsh_heap.o
                                                  build\kernel\components\finsh\finsh_compiler.o
                                                  build\kernel\components\finsh\finsh_var.o
                                                  build\kernel\components\finsh\shell.o
                                                  build\kernel\components\finsh\msh.o
                                                  build\kernel\components\finsh\finsh_parser.o
                                                  build\kernel\components\finsh\finsh_node.o
                                                  build\kernel\components\drivers\sdio\sd.o
                                                  build\kernel\components\drivers\sdio\mmc.o
                                                  build\kernel\components\drivers\misc\rt_drv_pwm.o
                                                  build\kernel\components\drivers\audio\audio.o
                                                  build\kernel\components\dfs\src\dfs_file.o
                                                  build\kernel\components\dfs\src\dfs.o
                                                  build\kernel\components\dfs\src\dfs_posix.o
                                                  build\kernel\src\kservice.o
mkdir                                             build\kernel\components\dfs\src\dfs_posix.o
                                                  build\kernel\components\finsh\msh_file.o
                                                  build\kernel\components\dfs\src\dfs_file.o
mkfs                                              build\kernel\components\dfs\src\dfs_fs.o
mktime                                            build\kernel\components\libc\compilers\common\time.o
                                                  build\kernel\components\drivers\rtc\rtc.o
mmc_send_op_cond                                  build\kernel\components\drivers\sdio\mmc.o
                                                  build\kernel\components\drivers\sdio\mmcsd_core.o
mmcsd_all_get_cid                                 build\kernel\components\drivers\sdio\mmcsd_core.o
                                                  build\kernel\components\drivers\sdio\sd.o
                                                  build\kernel\components\drivers\sdio\mmc.o
mmcsd_alloc_host                                  build\kernel\components\drivers\sdio\mmcsd_core.o
                                                  libraries\hal_drivers\drv_sdio.o
mmcsd_app_set_bus_width                           build\kernel\components\drivers\sdio\sd.o
mmcsd_change                                      build\kernel\components\drivers\sdio\mmcsd_core.o
                                                  libraries\hal_drivers\drv_sdio.o
mmcsd_deselect_cards                              build\kernel\components\drivers\sdio\mmcsd_core.o
mmcsd_detect                                      build\kernel\components\drivers\sdio\mmcsd_core.o
mmcsd_free_host                                   build\kernel\components\drivers\sdio\mmcsd_core.o
mmcsd_get_card_addr                               build\kernel\components\drivers\sdio\sd.o
                                                  build\kernel\components\drivers\sdio\sdio.o
mmcsd_get_cid                                     build\kernel\components\drivers\sdio\mmcsd_core.o
                                                  build\kernel\components\drivers\sdio\sd.o
                                                  build\kernel\components\drivers\sdio\mmc.o
mmcsd_get_csd                                     build\kernel\components\drivers\sdio\mmcsd_core.o
                                                  build\kernel\components\drivers\sdio\sd.o
                                                  build\kernel\components\drivers\sdio\mmc.o
mmcsd_get_scr                                     build\kernel\components\drivers\sdio\sd.o
mmcsd_go_idle                                     build\kernel\components\drivers\sdio\mmcsd_core.o
                                                  build\kernel\components\drivers\sdio\sd.o
                                                  build\kernel\components\drivers\sdio\mmc.o
mmcsd_host_lock                                   build\kernel\components\drivers\sdio\mmcsd_core.o
                                                  build\kernel\components\drivers\sdio\sdio.o
                                                  build\kernel\components\drivers\sdio\block_dev.o
                                                  build\kernel\components\drivers\sdio\sd.o
                                                  build\kernel\components\drivers\sdio\mmc.o
mmcsd_host_unlock                                 build\kernel\components\drivers\sdio\mmcsd_core.o
                                                  build\kernel\components\drivers\sdio\sdio.o
                                                  build\kernel\components\drivers\sdio\block_dev.o
                                                  build\kernel\components\drivers\sdio\sd.o
                                                  build\kernel\components\drivers\sdio\mmc.o
mmcsd_num_wr_blocks                               build\kernel\components\drivers\sdio\block_dev.o
mmcsd_req_complete                                build\kernel\components\drivers\sdio\mmcsd_core.o
                                                  libraries\hal_drivers\drv_sdio.o
mmcsd_select_card                                 build\kernel\components\drivers\sdio\mmcsd_core.o
                                                  build\kernel\components\drivers\sdio\sdio.o
                                                  build\kernel\components\drivers\sdio\sd.o
                                                  build\kernel\components\drivers\sdio\mmc.o
mmcsd_select_voltage                              build\kernel\components\drivers\sdio\mmcsd_core.o
                                                  build\kernel\components\drivers\sdio\sdio.o
                                                  build\kernel\components\drivers\sdio\sd.o
                                                  build\kernel\components\drivers\sdio\mmc.o
mmcsd_send_app_cmd                                build\kernel\components\drivers\sdio\sd.o
mmcsd_send_app_op_cond                            build\kernel\components\drivers\sdio\sd.o
                                                  build\kernel\components\drivers\sdio\mmcsd_core.o
mmcsd_send_cmd                                    build\kernel\components\drivers\sdio\mmcsd_core.o
                                                  build\kernel\components\drivers\sdio\sdio.o
                                                  build\kernel\components\drivers\sdio\block_dev.o
                                                  build\kernel\components\drivers\sdio\sd.o
                                                  build\kernel\components\drivers\sdio\mmc.o
mmcsd_send_if_cond                                build\kernel\components\drivers\sdio\sd.o
                                                  build\kernel\components\drivers\sdio\mmcsd_core.o
mmcsd_send_request                                build\kernel\components\drivers\sdio\mmcsd_core.o
                                                  build\kernel\components\drivers\sdio\sdio.o
                                                  build\kernel\components\drivers\sdio\block_dev.o
                                                  build\kernel\components\drivers\sdio\sd.o
                                                  build\kernel\components\drivers\sdio\mmc.o
mmcsd_set_bus_mode                                build\kernel\components\drivers\sdio\mmcsd_core.o
                                                  build\kernel\components\drivers\sdio\sdio.o
                                                  build\kernel\components\drivers\sdio\sd.o
                                                  build\kernel\components\drivers\sdio\mmc.o
mmcsd_set_bus_width                               build\kernel\components\drivers\sdio\mmcsd_core.o
                                                  build\kernel\components\drivers\sdio\sdio.o
                                                  build\kernel\components\drivers\sdio\sd.o
                                                  build\kernel\components\drivers\sdio\mmc.o
mmcsd_set_chip_select                             build\kernel\components\drivers\sdio\mmcsd_core.o
mmcsd_set_clock                                   build\kernel\components\drivers\sdio\mmcsd_core.o
                                                  build\kernel\components\drivers\sdio\sdio.o
                                                  build\kernel\components\drivers\sdio\sd.o
                                                  build\kernel\components\drivers\sdio\mmc.o
mmcsd_set_data_timeout                            build\kernel\components\drivers\sdio\mmcsd_core.o
                                                  build\kernel\components\drivers\sdio\sdio.o
                                                  build\kernel\components\drivers\sdio\block_dev.o
                                                  build\kernel\components\drivers\sdio\sd.o
mmcsd_spi_read_ocr                                build\kernel\components\drivers\sdio\mmcsd_core.o
                                                  build\kernel\components\drivers\sdio\sd.o
                                                  build\kernel\components\drivers\sdio\mmc.o
mmcsd_spi_use_crc                                 build\kernel\components\drivers\sdio\mmcsd_core.o
                                                  build\kernel\components\drivers\sdio\sdio.o
                                                  build\kernel\components\drivers\sdio\sd.o
                                                  build\kernel\components\drivers\sdio\mmc.o
mmcsd_wait_cd_changed                             build\kernel\components\drivers\sdio\mmcsd_core.o
msh_auto_complete                                 build\kernel\components\finsh\msh.o
                                                  build\kernel\components\finsh\shell.o
msh_auto_complete_path                            build\kernel\components\finsh\msh.o
msh_exec                                          build\kernel\components\finsh\msh.o
                                                  build\kernel\components\finsh\shell.o
                                                  build\kernel\components\finsh\msh_file.o
msh_exec_script                                   build\kernel\components\finsh\msh_file.o
                                                  build\kernel\components\finsh\msh.o
msh_help                                          build\kernel\components\finsh\msh.o
msh_is_used                                       build\kernel\components\finsh\msh.o
                                                  build\kernel\components\finsh\shell.o
my_print_r                                        libraries\hal_libraries\ab32vg1_hal\libhal.a(rom_fun.o)
                                                  libraries\hal_libraries\ab32vg1_hal\libhal.a(sys_err.o)
my_printf                                         libraries\hal_libraries\ab32vg1_hal\libhal.a(rom_fun.o)
                                                  libraries\hal_libraries\ab32vg1_hal\libhal.a(sys_err.o)
op_table                                          build\kernel\components\finsh\finsh_ops.o
                                                  build\kernel\components\finsh\finsh_vm.o
open                                              build\kernel\components\dfs\src\dfs_posix.o
                                                  build\kernel\components\finsh\msh_file.o
opendir                                           build\kernel\components\dfs\src\dfs_posix.o
                                                  build\kernel\components\finsh\msh.o
                                                  build\kernel\components\finsh\msh_file.o
os_spiflash_lock                                  build\board\board.o
                                                  libraries\hal_libraries\ab32vg1_hal\libhal.a(cache.o)
os_spiflash_unlock                                build\board\board.o
                                                  libraries\hal_libraries\ab32vg1_hal\libhal.a(cache.o)
read                                              build\kernel\components\dfs\src\dfs_posix.o
                                                  build\kernel\components\finsh\msh_file.o
readdir                                           build\kernel\components\dfs\src\dfs_posix.o
                                                  build\kernel\components\finsh\msh.o
                                                  build\kernel\components\finsh\msh_file.o
rename                                            build\kernel\components\dfs\src\dfs_posix.o
                                                  build\kernel\components\finsh\msh_file.o
rewinddir                                         build\kernel\components\dfs\src\dfs_posix.o
                                                  build\kernel\components\finsh\msh.o
rm                                                build\kernel\components\dfs\src\dfs_file.o
rmdir                                             build\kernel\components\dfs\src\dfs_posix.o
rt_adc_disable                                    build\kernel\components\drivers\misc\adc.o
rt_adc_enable                                     build\kernel\components\drivers\misc\adc.o
rt_adc_read                                       build\kernel\components\drivers\misc\adc.o
rt_alarm_control                                  build\kernel\components\drivers\rtc\alarm.o
rt_alarm_create                                   build\kernel\components\drivers\rtc\alarm.o
rt_alarm_delete                                   build\kernel\components\drivers\rtc\alarm.o
rt_alarm_dump                                     build\kernel\components\drivers\rtc\alarm.o
rt_alarm_start                                    build\kernel\components\drivers\rtc\alarm.o
rt_alarm_stop                                     build\kernel\components\drivers\rtc\alarm.o
rt_alarm_system_init                              build\kernel\components\drivers\rtc\alarm.o
rt_alarm_update                                   build\kernel\components\drivers\rtc\alarm.o
rt_application_init                               build\kernel\src\components.o
rt_assert_handler                                 build\kernel\src\kservice.o
                                                  libcpu\cpu\cpuport.o
                                                  libraries\hal_drivers\drv_hwtimer.o
                                                  libraries\hal_drivers\drv_usart.o
                                                  libraries\hal_drivers\drv_adc.o
                                                  libraries\hal_drivers\drv_sdio.o
                                                  libraries\hal_drivers\drv_soft_i2c.o
                                                  libraries\hal_drivers\drv_rtc.o
                                                  build\kernel\components\finsh\shell.o
                                                  build\kernel\components\drivers\watchdog\watchdog.o
                                                  build\kernel\components\drivers\src\waitqueue.o
                                                  build\kernel\components\drivers\src\workqueue.o
                                                  build\kernel\components\drivers\src\completion.o
                                                  build\kernel\components\drivers\src\ringbuffer.o
                                                  build\kernel\components\drivers\src\dataqueue.o
                                                  build\kernel\components\drivers\src\pipe.o
                                                  build\kernel\components\drivers\src\ringblk_buf.o
                                                  build\kernel\components\drivers\serial\serial.o
                                                  build\kernel\components\drivers\sdio\mmcsd_core.o
                                                  build\kernel\components\drivers\sdio\sdio.o
                                                  build\kernel\components\drivers\rtc\alarm.o
                                                  build\kernel\components\drivers\misc\pin.o
                                                  build\kernel\components\drivers\misc\adc.o
                                                  build\kernel\components\drivers\i2c\i2c_dev.o
                                                  build\kernel\components\drivers\i2c\i2c_core.o
                                                  build\kernel\components\drivers\hwtimer\hwtimer.o
                                                  build\kernel\components\drivers\audio\audio_pipe.o
                                                  build\kernel\components\drivers\audio\audio.o
                                                  build\kernel\components\dfs\filesystems\elmfat\dfs_elm.o
                                                  build\kernel\components\dfs\filesystems\devfs\devfs.o
                                                  build\kernel\components\dfs\src\dfs.o
                                                  build\kernel\components\dfs\src\dfs_fs.o
                                                  build\kernel\src\mempool.o
                                                  build\kernel\src\components.o
                                                  build\kernel\src\ipc.o
                                                  build\kernel\src\idle.o
                                                  build\kernel\src\memheap.o
                                                  build\kernel\src\timer.o
                                                  build\kernel\src\scheduler.o
                                                  build\kernel\src\object.o
                                                  build\kernel\src\mem.o
                                                  build\kernel\src\device.o
                                                  build\kernel\src\thread.o
                                                  build\board\ports\audio\drv_sound.o
rt_assert_hook                                    build\kernel\src\kservice.o
rt_assert_set_hook                                build\kernel\src\kservice.o
rt_audio_pipe_create                              build\kernel\components\drivers\audio\audio_pipe.o
rt_audio_pipe_destroy                             build\kernel\components\drivers\audio\audio_pipe.o
rt_audio_pipe_detach                              build\kernel\components\drivers\audio\audio_pipe.o
rt_audio_pipe_init                                build\kernel\components\drivers\audio\audio_pipe.o
                                                  build\kernel\components\drivers\audio\audio.o
rt_audio_register                                 build\kernel\components\drivers\audio\audio.o
                                                  build\board\ports\audio\drv_sound.o
rt_audio_rx_done                                  build\kernel\components\drivers\audio\audio.o
rt_audio_samplerate_to_speed                      build\kernel\components\drivers\audio\audio.o
rt_audio_tx_complete                              build\kernel\components\drivers\audio\audio.o
                                                  build\board\ports\audio\drv_sound.o
rt_calloc                                         build\kernel\src\mem.o
                                                  build\kernel\components\libc\compilers\newlib\minilib.o
                                                  build\kernel\components\finsh\shell.o
                                                  build\kernel\components\drivers\sdio\block_dev.o
                                                  build\kernel\components\drivers\audio\audio_pipe.o
                                                  build\kernel\components\dfs\src\dfs.o
                                                  build\board\ports\audio\drv_sound.o
rt_completion_done                                build\kernel\components\drivers\src\completion.o
                                                  build\kernel\components\drivers\serial\serial.o
                                                  build\kernel\components\drivers\audio\audio.o
rt_completion_init                                build\kernel\components\drivers\src\completion.o
                                                  build\kernel\components\drivers\serial\serial.o
                                                  build\kernel\components\drivers\audio\audio.o
rt_completion_wait                                build\kernel\components\drivers\src\completion.o
                                                  build\kernel\components\drivers\serial\serial.o
                                                  build\kernel\components\drivers\audio\audio.o
rt_components_board_init                          build\kernel\src\components.o
                                                  build\board\board.o
rt_components_init                                build\kernel\src\components.o
rt_console_get_device                             build\kernel\src\kservice.o
                                                  build\kernel\components\finsh\shell.o
                                                  build\board\board.o
rt_console_set_device                             build\kernel\src\kservice.o
                                                  build\board\board.o
rt_critical_level                                 build\kernel\src\scheduler.o
rt_cur_thread_sp                                  libcpu\cpu\cpuport.o
                                                  libcpu\cpu\context_gcc.o
rt_current_priority                               build\kernel\src\scheduler.o
rt_current_thread                                 build\kernel\src\scheduler.o
                                                  build\kernel\src\thread.o
rt_data_queue_deinit                              build\kernel\components\drivers\src\dataqueue.o
rt_data_queue_init                                build\kernel\components\drivers\src\dataqueue.o
                                                  build\kernel\components\drivers\audio\audio.o
rt_data_queue_len                                 build\kernel\components\drivers\src\dataqueue.o
rt_data_queue_peek                                build\kernel\components\drivers\src\dataqueue.o
                                                  build\kernel\components\drivers\audio\audio.o
rt_data_queue_pop                                 build\kernel\components\drivers\src\dataqueue.o
                                                  build\kernel\components\drivers\audio\audio.o
rt_data_queue_push                                build\kernel\components\drivers\src\dataqueue.o
                                                  build\kernel\components\drivers\audio\audio.o
rt_data_queue_reset                               build\kernel\components\drivers\src\dataqueue.o
rt_delayed_work_init                              build\kernel\components\drivers\src\workqueue.o
rt_device_close                                   build\kernel\src\device.o
                                                  build\kernel\components\libc\compilers\common\time.o
                                                  build\kernel\components\finsh\shell.o
                                                  build\kernel\components\drivers\audio\audio.o
                                                  build\kernel\components\dfs\filesystems\elmfat\dfs_elm.o
                                                  build\kernel\components\dfs\filesystems\devfs\devfs.o
                                                  build\kernel\components\dfs\src\dfs_fs.o
                                                  build\kernel\src\kservice.o
rt_device_control                                 build\kernel\src\device.o
                                                  build\kernel\components\libc\compilers\common\time.o
                                                  build\kernel\components\drivers\rtc\alarm.o
                                                  build\kernel\components\drivers\rtc\rtc.o
                                                  build\kernel\components\drivers\misc\rt_drv_pwm.o
                                                  build\kernel\components\dfs\filesystems\elmfat\dfs_elm.o
                                                  build\kernel\components\dfs\filesystems\devfs\devfs.o
rt_device_create                                  build\kernel\src\device.o
rt_device_destroy                                 build\kernel\src\device.o
rt_device_find                                    build\kernel\src\device.o
                                                  build\kernel\components\libc\compilers\common\time.o
                                                  build\kernel\components\finsh\shell.o
                                                  build\kernel\components\drivers\src\pipe.o
                                                  build\kernel\components\drivers\rtc\alarm.o
                                                  build\kernel\components\drivers\rtc\rtc.o
                                                  build\kernel\components\drivers\misc\rt_drv_pwm.o
                                                  build\kernel\components\drivers\misc\adc.o
                                                  build\kernel\components\drivers\i2c\i2c_core.o
                                                  build\kernel\components\dfs\filesystems\devfs\devfs.o
                                                  build\kernel\components\dfs\src\dfs_fs.o
                                                  build\kernel\src\kservice.o
                                                  build\applications\mnt.o
rt_device_hwtimer_isr                             build\kernel\components\drivers\hwtimer\hwtimer.o
                                                  libraries\hal_drivers\drv_hwtimer.o
rt_device_hwtimer_register                        build\kernel\components\drivers\hwtimer\hwtimer.o
                                                  libraries\hal_drivers\drv_hwtimer.o
rt_device_init                                    build\kernel\src\device.o
                                                  build\kernel\components\drivers\audio\audio.o
rt_device_open                                    build\kernel\src\device.o
                                                  build\kernel\components\libc\compilers\common\time.o
                                                  build\kernel\components\finsh\shell.o
                                                  build\kernel\components\drivers\audio\audio.o
                                                  build\kernel\components\dfs\filesystems\elmfat\dfs_elm.o
                                                  build\kernel\components\dfs\filesystems\devfs\devfs.o
                                                  build\kernel\components\dfs\src\dfs_fs.o
                                                  build\kernel\src\kservice.o
rt_device_pin_register                            build\kernel\components\drivers\misc\pin.o
                                                  libraries\hal_drivers\drv_gpio.o
rt_device_pwm_register                            build\kernel\components\drivers\misc\rt_drv_pwm.o
                                                  libraries\hal_drivers\drv_pwm.o
rt_device_read                                    build\kernel\src\device.o
                                                  build\kernel\components\finsh\shell.o
                                                  build\kernel\components\drivers\audio\audio.o
                                                  build\kernel\components\dfs\filesystems\elmfat\dfs_elm.o
                                                  build\kernel\components\dfs\filesystems\devfs\devfs.o
rt_device_register                                build\kernel\src\device.o
                                                  libraries\hal_drivers\drv_rtc.o
                                                  build\kernel\components\drivers\watchdog\watchdog.o
                                                  build\kernel\components\drivers\src\pipe.o
                                                  build\kernel\components\drivers\serial\serial.o
                                                  build\kernel\components\drivers\sdio\block_dev.o
                                                  build\kernel\components\drivers\misc\pin.o
                                                  build\kernel\components\drivers\misc\rt_drv_pwm.o
                                                  build\kernel\components\drivers\misc\adc.o
                                                  build\kernel\components\drivers\i2c\i2c_dev.o
                                                  build\kernel\components\drivers\hwtimer\hwtimer.o
                                                  build\kernel\components\drivers\audio\audio_pipe.o
                                                  build\kernel\components\drivers\audio\audio.o
rt_device_set_rx_indicate                         build\kernel\src\device.o
                                                  build\kernel\components\finsh\shell.o
rt_device_set_tx_complete                         build\kernel\src\device.o
rt_device_unregister                              build\kernel\src\device.o
                                                  build\kernel\components\drivers\src\pipe.o
                                                  build\kernel\components\drivers\sdio\block_dev.o
                                                  build\kernel\components\drivers\audio\audio_pipe.o
rt_device_write                                   build\kernel\src\device.o
                                                  build\kernel\components\drivers\audio\audio.o
                                                  build\kernel\components\dfs\filesystems\elmfat\dfs_elm.o
                                                  build\kernel\components\dfs\filesystems\devfs\devfs.o
                                                  build\kernel\src\kservice.o
                                                  build\board\board.o
rt_enter_critical                                 build\kernel\src\scheduler.o
                                                  build\kernel\components\drivers\src\workqueue.o
                                                  build\kernel\components\drivers\src\dataqueue.o
                                                  build\kernel\components\drivers\rtc\rtc.o
                                                  build\kernel\components\dfs\filesystems\elmfat\dfs_elm.o
                                                  build\kernel\components\dfs\filesystems\devfs\devfs.o
                                                  build\kernel\components\dfs\src\dfs.o
                                                  build\kernel\src\object.o
rt_event_control                                  build\kernel\src\ipc.o
rt_event_create                                   build\kernel\src\ipc.o
rt_event_delete                                   build\kernel\src\ipc.o
rt_event_detach                                   build\kernel\src\ipc.o
rt_event_init                                     build\kernel\src\ipc.o
                                                  libraries\hal_drivers\drv_sdio.o
                                                  build\kernel\components\drivers\rtc\alarm.o
rt_event_recv                                     build\kernel\src\ipc.o
                                                  libraries\hal_drivers\drv_sdio.o
                                                  build\kernel\components\drivers\rtc\alarm.o
rt_event_send                                     build\kernel\src\ipc.o
                                                  libraries\hal_drivers\drv_sdio.o
                                                  build\kernel\components\drivers\rtc\alarm.o
rt_exit_critical                                  build\kernel\src\scheduler.o
                                                  build\kernel\components\drivers\src\workqueue.o
                                                  build\kernel\components\drivers\src\dataqueue.o
                                                  build\kernel\components\drivers\rtc\rtc.o
                                                  build\kernel\components\dfs\filesystems\elmfat\dfs_elm.o
                                                  build\kernel\components\dfs\filesystems\devfs\devfs.o
                                                  build\kernel\components\dfs\src\dfs.o
                                                  build\kernel\src\object.o
rt_free                                           build\kernel\src\mem.o
                                                  libraries\hal_drivers\drv_sdio.o
                                                  build\kernel\components\libc\compilers\newlib\minilib.o
                                                  build\kernel\components\finsh\shell.o
                                                  build\kernel\components\finsh\msh.o
                                                  build\kernel\components\finsh\msh_file.o
                                                  build\kernel\components\drivers\src\workqueue.o
                                                  build\kernel\components\drivers\src\ringbuffer.o
                                                  build\kernel\components\drivers\src\dataqueue.o
                                                  build\kernel\components\drivers\src\pipe.o
                                                  build\kernel\components\drivers\src\ringblk_buf.o
                                                  build\kernel\components\drivers\serial\serial.o
                                                  build\kernel\components\drivers\sdio\mmcsd_core.o
                                                  build\kernel\components\drivers\sdio\sdio.o
                                                  build\kernel\components\drivers\sdio\block_dev.o
                                                  build\kernel\components\drivers\sdio\sd.o
                                                  build\kernel\components\drivers\sdio\mmc.o
                                                  build\kernel\components\drivers\rtc\alarm.o
                                                  build\kernel\components\drivers\audio\audio_pipe.o
                                                  build\kernel\components\drivers\audio\audio.o
                                                  build\kernel\components\dfs\filesystems\elmfat\dfs_elm.o
                                                  build\kernel\components\dfs\filesystems\devfs\devfs.o
                                                  build\kernel\components\dfs\src\dfs_file.o
                                                  build\kernel\components\dfs\src\dfs.o
                                                  build\kernel\components\dfs\src\dfs_fs.o
                                                  build\kernel\components\dfs\src\dfs_posix.o
                                                  build\kernel\src\mempool.o
                                                  build\kernel\src\ipc.o
                                                  build\kernel\src\idle.o
                                                  build\kernel\src\memheap.o
                                                  build\kernel\src\kservice.o
                                                  build\kernel\src\object.o
                                                  build\kernel\src\device.o
rt_free_align                                     build\kernel\src\kservice.o
rt_free_sethook                                   build\kernel\src\mem.o
rt_get_errno                                      build\kernel\src\kservice.o
rt_hw_adc_register                                build\kernel\components\drivers\misc\adc.o
                                                  libraries\hal_drivers\drv_adc.o
rt_hw_board_init                                  build\board\board.o
                                                  build\kernel\src\components.o
rt_hw_console_output                              build\kernel\src\kservice.o
                                                  build\board\board.o
rt_hw_context_switch                              libcpu\cpu\context_gcc.o
                                                  build\kernel\src\scheduler.o
rt_hw_context_switch_interrupt                    libcpu\cpu\context_gcc.o
                                                  build\kernel\src\scheduler.o
rt_hw_context_switch_to                           libcpu\cpu\context_gcc.o
                                                  build\kernel\src\scheduler.o
rt_hw_cpu_shutdown                                libcpu\cpu\cpuport.o
rt_hw_i2c_init                                    libraries\hal_drivers\drv_soft_i2c.o
rt_hw_interrupt_disable                           libcpu\cpu\context_gcc.o
                                                  libcpu\cpu\cpuport.o
                                                  libraries\hal_drivers\drv_usart.o
                                                  build\kernel\components\finsh\cmd.o
                                                  build\kernel\components\drivers\src\waitqueue.o
                                                  build\kernel\components\drivers\src\workqueue.o
                                                  build\kernel\components\drivers\src\completion.o
                                                  build\kernel\components\drivers\src\dataqueue.o
                                                  build\kernel\components\drivers\src\ringblk_buf.o
                                                  build\kernel\components\drivers\serial\serial.o
                                                  build\kernel\components\drivers\hwtimer\hwtimer.o
                                                  build\kernel\components\drivers\audio\audio_pipe.o
                                                  build\kernel\src\clock.o
                                                  build\kernel\src\mempool.o
                                                  build\kernel\src\components.o
                                                  build\kernel\src\ipc.o
                                                  build\kernel\src\idle.o
                                                  build\kernel\src\irq.o
                                                  build\kernel\src\timer.o
                                                  build\kernel\src\scheduler.o
                                                  build\kernel\src\object.o
                                                  build\kernel\src\mem.o
                                                  build\kernel\src\thread.o
rt_hw_interrupt_enable                            libcpu\cpu\context_gcc.o
                                                  libraries\hal_drivers\drv_usart.o
                                                  build\kernel\components\finsh\cmd.o
                                                  build\kernel\components\drivers\src\waitqueue.o
                                                  build\kernel\components\drivers\src\workqueue.o
                                                  build\kernel\components\drivers\src\completion.o
                                                  build\kernel\components\drivers\src\dataqueue.o
                                                  build\kernel\components\drivers\src\ringblk_buf.o
                                                  build\kernel\components\drivers\serial\serial.o
                                                  build\kernel\components\drivers\hwtimer\hwtimer.o
                                                  build\kernel\components\drivers\audio\audio_pipe.o
                                                  build\kernel\src\clock.o
                                                  build\kernel\src\mempool.o
                                                  build\kernel\src\ipc.o
                                                  build\kernel\src\idle.o
                                                  build\kernel\src\irq.o
                                                  build\kernel\src\timer.o
                                                  build\kernel\src\scheduler.o
                                                  build\kernel\src\object.o
                                                  build\kernel\src\mem.o
                                                  build\kernel\src\thread.o
rt_hw_interrupt_init                              libcpu\cpu\interrupt.o
rt_hw_interrupt_install                           libcpu\cpu\interrupt.o
                                                  libraries\hal_drivers\drv_hwtimer.o
                                                  libraries\hal_drivers\drv_usart.o
                                                  libraries\hal_drivers\drv_sdio.o
                                                  libraries\hal_drivers\drv_rtc.o
                                                  build\board\board.o
                                                  build\board\ports\audio\drv_sound.o
rt_hw_irq_disable                                 libcpu\cpu\interrupt.o
                                                  libraries\hal_drivers\drv_sdio.o
rt_hw_irq_enable                                  libcpu\cpu\interrupt.o
                                                  libraries\hal_drivers\drv_sdio.o
rt_hw_pin_init                                    libraries\hal_drivers\drv_gpio.o
                                                  build\board\board.o
rt_hw_rtc_init                                    libraries\hal_drivers\drv_rtc.o
rt_hw_sdio_init                                   libraries\hal_drivers\drv_sdio.o
rt_hw_serial_isr                                  build\kernel\components\drivers\serial\serial.o
rt_hw_serial_register                             build\kernel\components\drivers\serial\serial.o
                                                  libraries\hal_drivers\drv_usart.o
rt_hw_stack_init                                  libcpu\cpu\cpuport.o
                                                  build\kernel\src\thread.o
rt_hw_systick_init                                build\board\board.o
rt_hw_us_delay                                    build\board\board.o
rt_hw_usart_init                                  libraries\hal_drivers\drv_usart.o
                                                  build\board\board.o
rt_hw_watchdog_register                           build\kernel\components\drivers\watchdog\watchdog.o
                                                  libraries\hal_drivers\drv_wdt.o
rt_i2c_bit_add_bus                                build\kernel\components\drivers\i2c\i2c-bit-ops.o
                                                  libraries\hal_drivers\drv_soft_i2c.o
rt_i2c_bus_device_device_init                     build\kernel\components\drivers\i2c\i2c_dev.o
                                                  build\kernel\components\drivers\i2c\i2c_core.o
rt_i2c_bus_device_find                            build\kernel\components\drivers\i2c\i2c_core.o
rt_i2c_bus_device_register                        build\kernel\components\drivers\i2c\i2c_core.o
                                                  build\kernel\components\drivers\i2c\i2c-bit-ops.o
rt_i2c_core_init                                  build\kernel\components\drivers\i2c\i2c_core.o
rt_i2c_master_recv                                build\kernel\components\drivers\i2c\i2c_core.o
                                                  build\kernel\components\drivers\i2c\i2c_dev.o
rt_i2c_master_send                                build\kernel\components\drivers\i2c\i2c_core.o
                                                  build\kernel\components\drivers\i2c\i2c_dev.o
rt_i2c_transfer                                   build\kernel\components\drivers\i2c\i2c_core.o
                                                  build\kernel\components\drivers\i2c\i2c_dev.o
rt_interrupt_enter                                build\kernel\src\irq.o
                                                  libraries\hal_drivers\drv_hwtimer.o
                                                  libraries\hal_drivers\drv_usart.o
                                                  libraries\hal_drivers\drv_sdio.o
                                                  libraries\hal_drivers\drv_rtc.o
                                                  build\board\board.o
                                                  build\board\ports\audio\drv_sound.o
rt_interrupt_enter_sethook                        build\kernel\src\irq.o
rt_interrupt_from_thread                          libcpu\cpu\cpuport.o
                                                  libcpu\cpu\context_gcc.o
rt_interrupt_get_nest                             build\kernel\src\irq.o
                                                  build\kernel\components\drivers\src\waitqueue.o
                                                  build\kernel\components\drivers\src\completion.o
                                                  build\kernel\components\drivers\src\dataqueue.o
                                                  build\kernel\components\drivers\audio\audio_pipe.o
                                                  build\kernel\src\mempool.o
                                                  build\kernel\src\ipc.o
                                                  build\kernel\src\idle.o
                                                  build\kernel\src\kservice.o
                                                  build\kernel\src\object.o
                                                  build\kernel\src\mem.o
rt_interrupt_leave                                build\kernel\src\irq.o
                                                  libraries\hal_drivers\drv_hwtimer.o
                                                  libraries\hal_drivers\drv_usart.o
                                                  libraries\hal_drivers\drv_sdio.o
                                                  libraries\hal_drivers\drv_rtc.o
                                                  build\board\board.o
                                                  build\board\ports\audio\drv_sound.o
rt_interrupt_leave_sethook                        build\kernel\src\irq.o
rt_interrupt_nest                                 build\kernel\src\irq.o
                                                  libcpu\cpu\context_gcc.o
                                                  build\kernel\src\scheduler.o
                                                  build\board\board.o
rt_interrupt_to_thread                            libcpu\cpu\cpuport.o
                                                  libcpu\cpu\context_gcc.o
rt_ipc_get_highest_priority                       build\kernel\src\ipc.o
rt_kprintf                                        build\kernel\src\kservice.o
                                                  libcpu\cpu\cpuport.o
                                                  libraries\hal_drivers\drv_hwtimer.o
                                                  libraries\hal_drivers\drv_pwm.o
                                                  libraries\hal_drivers\drv_adc.o
                                                  libraries\hal_drivers\drv_sdio.o
                                                  libraries\hal_drivers\drv_wdt.o
                                                  libraries\hal_drivers\drv_rtc.o
                                                  build\kernel\components\finsh\shell.o
                                                  build\kernel\components\finsh\msh.o
                                                  build\kernel\components\finsh\msh_file.o
                                                  build\kernel\components\finsh\cmd.o
                                                  build\kernel\components\drivers\watchdog\watchdog.o
                                                  build\kernel\components\drivers\src\waitqueue.o
                                                  build\kernel\components\drivers\src\completion.o
                                                  build\kernel\components\drivers\src\dataqueue.o
                                                  build\kernel\components\drivers\serial\serial.o
                                                  build\kernel\components\drivers\sdio\mmcsd_core.o
                                                  build\kernel\components\drivers\sdio\sdio.o
                                                  build\kernel\components\drivers\sdio\block_dev.o
                                                  build\kernel\components\drivers\sdio\sd.o
                                                  build\kernel\components\drivers\sdio\mmc.o
                                                  build\kernel\components\drivers\rtc\alarm.o
                                                  build\kernel\components\drivers\rtc\rtc.o
                                                  build\kernel\components\drivers\misc\rt_drv_pwm.o
                                                  build\kernel\components\drivers\misc\adc.o
                                                  build\kernel\components\drivers\i2c\i2c-bit-ops.o
                                                  build\kernel\components\drivers\i2c\i2c_core.o
                                                  build\kernel\components\drivers\audio\audio_pipe.o
                                                  build\kernel\components\drivers\audio\audio.o
                                                  build\kernel\components\dfs\filesystems\elmfat\dfs_elm.o
                                                  build\kernel\components\dfs\src\dfs_file.o
                                                  build\kernel\components\dfs\src\dfs.o
                                                  build\kernel\components\dfs\src\dfs_fs.o
                                                  build\kernel\components\dfs\src\dfs_posix.o
                                                  build\kernel\src\mempool.o
                                                  build\kernel\src\ipc.o
                                                  build\kernel\src\idle.o
                                                  build\kernel\src\memheap.o
                                                  build\kernel\src\scheduler.o
                                                  build\kernel\src\object.o
                                                  build\kernel\src\mem.o
                                                  build\kernel\src\device.o
                                                  build\applications\main.o
                                                  build\applications\mnt.o
rt_kputs                                          build\kernel\src\kservice.o
rt_malloc                                         build\kernel\src\mem.o
                                                  libraries\hal_drivers\drv_sdio.o
                                                  build\kernel\components\libc\compilers\newlib\minilib.o
                                                  build\kernel\components\finsh\finsh_var.o
                                                  build\kernel\components\finsh\shell.o
                                                  build\kernel\components\finsh\msh.o
                                                  build\kernel\components\finsh\msh_file.o
                                                  build\kernel\components\finsh\finsh_vm.o
                                                  build\kernel\components\drivers\src\workqueue.o
                                                  build\kernel\components\drivers\src\ringbuffer.o
                                                  build\kernel\components\drivers\src\dataqueue.o
                                                  build\kernel\components\drivers\src\pipe.o
                                                  build\kernel\components\drivers\src\ringblk_buf.o
                                                  build\kernel\components\drivers\serial\serial.o
                                                  build\kernel\components\drivers\sdio\mmcsd_core.o
                                                  build\kernel\components\drivers\sdio\sdio.o
                                                  build\kernel\components\drivers\sdio\block_dev.o
                                                  build\kernel\components\drivers\sdio\sd.o
                                                  build\kernel\components\drivers\sdio\mmc.o
                                                  build\kernel\components\drivers\rtc\alarm.o
                                                  build\kernel\components\drivers\audio\audio_pipe.o
                                                  build\kernel\components\drivers\audio\audio.o
                                                  build\kernel\components\dfs\filesystems\elmfat\dfs_elm.o
                                                  build\kernel\components\dfs\filesystems\devfs\devfs.o
                                                  build\kernel\components\dfs\src\dfs_file.o
                                                  build\kernel\components\dfs\src\dfs.o
                                                  build\kernel\components\dfs\src\dfs_posix.o
                                                  build\kernel\src\mempool.o
                                                  build\kernel\src\ipc.o
                                                  build\kernel\src\memheap.o
                                                  build\kernel\src\kservice.o
                                                  build\kernel\src\object.o
                                                  build\kernel\src\device.o
                                                  build\kernel\src\thread.o
rt_malloc_align                                   build\kernel\src\kservice.o
rt_malloc_sethook                                 build\kernel\src\mem.o
rt_mb_control                                     build\kernel\src\ipc.o
rt_mb_create                                      build\kernel\src\ipc.o
rt_mb_delete                                      build\kernel\src\ipc.o
rt_mb_detach                                      build\kernel\src\ipc.o
rt_mb_init                                        build\kernel\src\ipc.o
                                                  build\kernel\components\drivers\sdio\mmcsd_core.o
rt_mb_recv                                        build\kernel\src\ipc.o
                                                  build\kernel\components\drivers\sdio\mmcsd_core.o
rt_mb_send                                        build\kernel\src\ipc.o
                                                  build\kernel\components\drivers\sdio\mmcsd_core.o
rt_mb_send_wait                                   build\kernel\src\ipc.o
rt_mb_urgent                                      build\kernel\src\ipc.o
rt_memcmp                                         build\kernel\src\kservice.o
rt_memcpy                                         build\kernel\src\kservice.o
                                                  libraries\hal_drivers\drv_sdio.o
                                                  build\kernel\components\drivers\sdio\mmcsd_core.o
                                                  build\kernel\components\drivers\sdio\block_dev.o
                                                  build\kernel\components\drivers\sdio\sd.o
                                                  build\kernel\components\drivers\sdio\mmc.o
                                                  build\kernel\components\drivers\rtc\rtc.o
                                                  build\kernel\components\drivers\hwtimer\hwtimer.o
                                                  build\kernel\src\ipc.o
                                                  build\kernel\src\memheap.o
                                                  build\kernel\src\mem.o
rt_memheap_alloc                                  build\kernel\src\memheap.o
rt_memheap_detach                                 build\kernel\src\memheap.o
rt_memheap_dump                                   build\kernel\src\memheap.o
rt_memheap_free                                   build\kernel\src\memheap.o
rt_memheap_init                                   build\kernel\src\memheap.o
rt_memheap_realloc                                build\kernel\src\memheap.o
rt_memmove                                        build\kernel\src\kservice.o
                                                  build\kernel\components\finsh\shell.o
rt_memory_info                                    build\kernel\src\mem.o
rt_memset                                         build\kernel\src\kservice.o
                                                  libraries\hal_drivers\drv_sdio.o
                                                  build\kernel\components\drivers\src\pipe.o
                                                  build\kernel\components\drivers\serial\serial.o
                                                  build\kernel\components\drivers\sdio\mmcsd_core.o
                                                  build\kernel\components\drivers\sdio\sdio.o
                                                  build\kernel\components\drivers\sdio\block_dev.o
                                                  build\kernel\components\drivers\sdio\sd.o
                                                  build\kernel\components\drivers\sdio\mmc.o
                                                  build\kernel\components\dfs\filesystems\elmfat\dfs_elm.o
                                                  build\kernel\src\object.o
                                                  build\kernel\src\mem.o
                                                  build\kernel\src\device.o
                                                  build\kernel\src\thread.o
rt_mmcsd_blk_init                                 build\kernel\components\drivers\sdio\block_dev.o
rt_mmcsd_blk_probe                                build\kernel\components\drivers\sdio\block_dev.o
                                                  build\kernel\components\drivers\sdio\sd.o
                                                  build\kernel\components\drivers\sdio\mmc.o
rt_mmcsd_blk_remove                               build\kernel\components\drivers\sdio\block_dev.o
                                                  build\kernel\components\drivers\sdio\mmcsd_core.o
                                                  build\kernel\components\drivers\sdio\sd.o
                                                  build\kernel\components\drivers\sdio\mmc.o
rt_mmcsd_core_init                                build\kernel\components\drivers\sdio\mmcsd_core.o
rt_mp_alloc                                       build\kernel\src\mempool.o
                                                  build\kernel\components\drivers\audio\audio.o
rt_mp_alloc_sethook                               build\kernel\src\mempool.o
rt_mp_create                                      build\kernel\src\mempool.o
                                                  build\kernel\components\drivers\audio\audio.o
rt_mp_delete                                      build\kernel\src\mempool.o
rt_mp_detach                                      build\kernel\src\mempool.o
rt_mp_free                                        build\kernel\src\mempool.o
                                                  build\kernel\components\drivers\audio\audio.o
rt_mp_free_sethook                                build\kernel\src\mempool.o
rt_mp_init                                        build\kernel\src\mempool.o
rt_mq_control                                     build\kernel\src\ipc.o
rt_mq_create                                      build\kernel\src\ipc.o
rt_mq_delete                                      build\kernel\src\ipc.o
rt_mq_detach                                      build\kernel\src\ipc.o
rt_mq_init                                        build\kernel\src\ipc.o
rt_mq_recv                                        build\kernel\src\ipc.o
rt_mq_send                                        build\kernel\src\ipc.o
rt_mq_send_wait                                   build\kernel\src\ipc.o
rt_mq_urgent                                      build\kernel\src\ipc.o
rt_mutex_control                                  build\kernel\src\ipc.o
rt_mutex_create                                   build\kernel\src\ipc.o
                                                  build\kernel\components\dfs\filesystems\elmfat\dfs_elm.o
rt_mutex_delete                                   build\kernel\src\ipc.o
                                                  build\kernel\components\dfs\filesystems\elmfat\dfs_elm.o
rt_mutex_detach                                   build\kernel\src\ipc.o
                                                  build\kernel\components\drivers\src\pipe.o
                                                  build\kernel\components\drivers\sdio\mmcsd_core.o
rt_mutex_init                                     build\kernel\src\ipc.o
                                                  libraries\hal_drivers\drv_sdio.o
                                                  build\kernel\components\drivers\src\pipe.o
                                                  build\kernel\components\drivers\sdio\mmcsd_core.o
                                                  build\kernel\components\drivers\rtc\alarm.o
                                                  build\kernel\components\drivers\i2c\i2c_core.o
                                                  build\kernel\components\drivers\audio\audio.o
                                                  build\kernel\components\dfs\src\dfs.o
                                                  build\board\board.o
rt_mutex_release                                  build\kernel\src\ipc.o
                                                  libraries\hal_drivers\drv_sdio.o
                                                  build\kernel\components\drivers\src\pipe.o
                                                  build\kernel\components\drivers\sdio\mmcsd_core.o
                                                  build\kernel\components\drivers\rtc\alarm.o
                                                  build\kernel\components\drivers\i2c\i2c_core.o
                                                  build\kernel\components\drivers\audio\audio.o
                                                  build\kernel\components\dfs\filesystems\elmfat\dfs_elm.o
                                                  build\kernel\components\dfs\src\dfs.o
                                                  build\board\board.o
rt_mutex_take                                     build\kernel\src\ipc.o
                                                  libraries\hal_drivers\drv_sdio.o
                                                  build\kernel\components\drivers\src\pipe.o
                                                  build\kernel\components\drivers\sdio\mmcsd_core.o
                                                  build\kernel\components\drivers\rtc\alarm.o
                                                  build\kernel\components\drivers\i2c\i2c_core.o
                                                  build\kernel\components\drivers\audio\audio.o
                                                  build\kernel\components\dfs\filesystems\elmfat\dfs_elm.o
                                                  build\kernel\components\dfs\src\dfs.o
                                                  build\board\board.o
rt_object_allocate                                build\kernel\src\object.o
                                                  build\kernel\src\mempool.o
                                                  build\kernel\src\ipc.o
                                                  build\kernel\src\timer.o
                                                  build\kernel\src\thread.o
rt_object_attach_sethook                          build\kernel\src\object.o
rt_object_delete                                  build\kernel\src\object.o
                                                  build\kernel\src\mempool.o
                                                  build\kernel\src\ipc.o
                                                  build\kernel\src\idle.o
                                                  build\kernel\src\timer.o
                                                  build\kernel\src\thread.o
rt_object_detach                                  build\kernel\src\object.o
                                                  build\kernel\src\mempool.o
                                                  build\kernel\src\ipc.o
                                                  build\kernel\src\memheap.o
                                                  build\kernel\src\timer.o
                                                  build\kernel\src\device.o
                                                  build\kernel\src\thread.o
rt_object_detach_sethook                          build\kernel\src\object.o
rt_object_find                                    build\kernel\src\object.o
                                                  build\kernel\src\device.o
                                                  build\kernel\src\thread.o
rt_object_get_information                         build\kernel\src\object.o
                                                  build\kernel\components\finsh\cmd.o
                                                  build\kernel\components\dfs\filesystems\devfs\devfs.o
rt_object_get_length                              build\kernel\src\object.o
                                                  build\kernel\src\memheap.o
rt_object_get_pointers                            build\kernel\src\object.o
                                                  build\kernel\src\memheap.o
rt_object_get_type                                build\kernel\src\object.o
                                                  build\kernel\src\mempool.o
                                                  build\kernel\src\ipc.o
                                                  build\kernel\src\memheap.o
                                                  build\kernel\src\timer.o
                                                  build\kernel\src\device.o
                                                  build\kernel\src\thread.o
rt_object_init                                    build\kernel\src\object.o
                                                  build\kernel\src\mempool.o
                                                  build\kernel\src\ipc.o
                                                  build\kernel\src\memheap.o
                                                  build\kernel\src\timer.o
                                                  build\kernel\src\device.o
                                                  build\kernel\src\thread.o
rt_object_is_systemobject                         build\kernel\src\object.o
                                                  build\kernel\src\mempool.o
                                                  build\kernel\src\ipc.o
                                                  build\kernel\src\memheap.o
                                                  build\kernel\src\timer.o
                                                  build\kernel\src\device.o
                                                  build\kernel\src\thread.o
rt_object_put_hook                                build\kernel\src\object.o
                                                  build\kernel\src\ipc.o
                                                  build\kernel\src\timer.o
rt_object_put_sethook                             build\kernel\src\object.o
rt_object_take_hook                               build\kernel\src\object.o
                                                  build\kernel\src\ipc.o
                                                  build\kernel\src\timer.o
rt_object_take_sethook                            build\kernel\src\object.o
rt_object_trytake_hook                            build\kernel\src\object.o
                                                  build\kernel\src\ipc.o
rt_object_trytake_sethook                         build\kernel\src\object.o
rt_pin_attach_irq                                 build\kernel\components\drivers\misc\pin.o
rt_pin_detach_irq                                 build\kernel\components\drivers\misc\pin.o
rt_pin_get                                        build\kernel\components\drivers\misc\pin.o
                                                  build\applications\main.o
rt_pin_irq_enable                                 build\kernel\components\drivers\misc\pin.o
rt_pin_mode                                       build\kernel\components\drivers\misc\pin.o
                                                  libraries\hal_drivers\drv_soft_i2c.o
                                                  build\applications\main.o
rt_pin_read                                       build\kernel\components\drivers\misc\pin.o
                                                  libraries\hal_drivers\drv_soft_i2c.o
rt_pin_write                                      build\kernel\components\drivers\misc\pin.o
                                                  libraries\hal_drivers\drv_soft_i2c.o
                                                  build\applications\main.o
rt_pipe_close                                     build\kernel\components\drivers\src\pipe.o
rt_pipe_control                                   build\kernel\components\drivers\src\pipe.o
rt_pipe_create                                    build\kernel\components\drivers\src\pipe.o
rt_pipe_delete                                    build\kernel\components\drivers\src\pipe.o
rt_pipe_open                                      build\kernel\components\drivers\src\pipe.o
rt_pipe_read                                      build\kernel\components\drivers\src\pipe.o
rt_pipe_write                                     build\kernel\components\drivers\src\pipe.o
rt_pwm_disable                                    build\kernel\components\drivers\misc\rt_drv_pwm.o
rt_pwm_enable                                     build\kernel\components\drivers\misc\rt_drv_pwm.o
rt_pwm_get                                        build\kernel\components\drivers\misc\rt_drv_pwm.o
rt_pwm_set                                        build\kernel\components\drivers\misc\rt_drv_pwm.o
rt_rbb_blk_alloc                                  build\kernel\components\drivers\src\ringblk_buf.o
rt_rbb_blk_buf                                    build\kernel\components\drivers\src\ringblk_buf.o
rt_rbb_blk_free                                   build\kernel\components\drivers\src\ringblk_buf.o
rt_rbb_blk_get                                    build\kernel\components\drivers\src\ringblk_buf.o
rt_rbb_blk_put                                    build\kernel\components\drivers\src\ringblk_buf.o
rt_rbb_blk_queue_buf                              build\kernel\components\drivers\src\ringblk_buf.o
rt_rbb_blk_queue_free                             build\kernel\components\drivers\src\ringblk_buf.o
rt_rbb_blk_queue_get                              build\kernel\components\drivers\src\ringblk_buf.o
rt_rbb_blk_queue_len                              build\kernel\components\drivers\src\ringblk_buf.o
rt_rbb_blk_size                                   build\kernel\components\drivers\src\ringblk_buf.o
rt_rbb_create                                     build\kernel\components\drivers\src\ringblk_buf.o
rt_rbb_destroy                                    build\kernel\components\drivers\src\ringblk_buf.o
rt_rbb_get_buf_size                               build\kernel\components\drivers\src\ringblk_buf.o
rt_rbb_init                                       build\kernel\components\drivers\src\ringblk_buf.o
rt_rbb_next_blk_queue_len                         build\kernel\components\drivers\src\ringblk_buf.o
rt_realloc                                        build\kernel\src\mem.o
                                                  build\kernel\components\libc\compilers\newlib\minilib.o
                                                  build\kernel\components\dfs\src\dfs.o
rt_ringbuffer_create                              build\kernel\components\drivers\src\ringbuffer.o
                                                  build\kernel\components\drivers\src\pipe.o
rt_ringbuffer_data_len                            build\kernel\components\drivers\src\ringbuffer.o
                                                  build\kernel\components\drivers\audio\audio_pipe.o
rt_ringbuffer_destroy                             build\kernel\components\drivers\src\ringbuffer.o
                                                  build\kernel\components\drivers\src\pipe.o
rt_ringbuffer_get                                 build\kernel\components\drivers\src\ringbuffer.o
                                                  build\kernel\components\drivers\src\pipe.o
                                                  build\kernel\components\drivers\audio\audio_pipe.o
rt_ringbuffer_getchar                             build\kernel\components\drivers\src\ringbuffer.o
rt_ringbuffer_init                                build\kernel\components\drivers\src\ringbuffer.o
                                                  build\kernel\components\drivers\audio\audio_pipe.o
rt_ringbuffer_peak                                build\kernel\components\drivers\src\ringbuffer.o
rt_ringbuffer_put                                 build\kernel\components\drivers\src\ringbuffer.o
                                                  build\kernel\components\drivers\src\pipe.o
                                                  build\kernel\components\drivers\audio\audio_pipe.o
rt_ringbuffer_put_force                           build\kernel\components\drivers\src\ringbuffer.o
                                                  build\kernel\components\drivers\audio\audio_pipe.o
rt_ringbuffer_putchar                             build\kernel\components\drivers\src\ringbuffer.o
rt_ringbuffer_putchar_force                       build\kernel\components\drivers\src\ringbuffer.o
rt_ringbuffer_reset                               build\kernel\components\drivers\src\ringbuffer.o
rt_schedule                                       build\kernel\src\scheduler.o
                                                  build\kernel\components\drivers\src\waitqueue.o
                                                  build\kernel\components\drivers\src\workqueue.o
                                                  build\kernel\components\drivers\src\completion.o
                                                  build\kernel\components\drivers\src\dataqueue.o
                                                  build\kernel\components\drivers\audio\audio_pipe.o
                                                  build\kernel\src\clock.o
                                                  build\kernel\src\mempool.o
                                                  build\kernel\src\ipc.o
                                                  build\kernel\src\timer.o
                                                  build\kernel\src\thread.o
rt_schedule_insert_thread                         build\kernel\src\scheduler.o
                                                  build\kernel\src\thread.o
rt_schedule_remove_thread                         build\kernel\src\scheduler.o
                                                  build\kernel\src\thread.o
rt_scheduler_sethook                              build\kernel\src\scheduler.o
rt_sdio_init                                      build\kernel\components\drivers\sdio\sdio.o
                                                  build\kernel\components\drivers\sdio\mmcsd_core.o
rt_sem_control                                    build\kernel\src\ipc.o
rt_sem_create                                     build\kernel\src\ipc.o
                                                  build\kernel\components\drivers\sdio\sdio.o
                                                  build\kernel\components\drivers\sdio\block_dev.o
                                                  build\board\ports\audio\drv_sound.o
rt_sem_delete                                     build\kernel\src\ipc.o
                                                  build\kernel\components\drivers\sdio\sdio.o
                                                  build\kernel\components\drivers\sdio\block_dev.o
rt_sem_detach                                     build\kernel\src\ipc.o
                                                  build\kernel\components\drivers\src\workqueue.o
                                                  build\kernel\components\drivers\sdio\mmcsd_core.o
                                                  build\kernel\src\memheap.o
rt_sem_init                                       build\kernel\src\ipc.o
                                                  build\kernel\components\finsh\shell.o
                                                  build\kernel\components\drivers\src\workqueue.o
                                                  build\kernel\components\drivers\sdio\mmcsd_core.o
                                                  build\kernel\src\memheap.o
                                                  build\kernel\src\mem.o
rt_sem_release                                    build\kernel\src\ipc.o
                                                  libraries\hal_drivers\drv_usart.o
                                                  build\kernel\components\finsh\shell.o
                                                  build\kernel\components\drivers\src\workqueue.o
                                                  build\kernel\components\drivers\sdio\mmcsd_core.o
                                                  build\kernel\components\drivers\sdio\sdio.o
                                                  build\kernel\components\drivers\sdio\block_dev.o
                                                  build\kernel\src\memheap.o
                                                  build\kernel\src\mem.o
                                                  build\board\ports\audio\drv_sound.o
rt_sem_take                                       build\kernel\src\ipc.o
                                                  build\kernel\components\finsh\shell.o
                                                  build\kernel\components\drivers\src\workqueue.o
                                                  build\kernel\components\drivers\sdio\mmcsd_core.o
                                                  build\kernel\components\drivers\sdio\sdio.o
                                                  build\kernel\components\drivers\sdio\block_dev.o
                                                  build\kernel\src\memheap.o
                                                  build\kernel\src\mem.o
                                                  build\board\ports\audio\drv_sound.o
rt_sem_trytake                                    build\kernel\src\ipc.o
                                                  build\kernel\components\drivers\src\workqueue.o
rt_set_errno                                      build\kernel\src\kservice.o
                                                  build\kernel\components\drivers\src\pipe.o
                                                  build\kernel\components\drivers\sdio\block_dev.o
                                                  build\kernel\components\dfs\src\dfs_fs.o
                                                  build\kernel\components\dfs\src\dfs_posix.o
                                                  build\kernel\src\mempool.o
                                                  build\kernel\src\memheap.o
                                                  build\kernel\src\device.o
rt_show_version                                   build\kernel\src\kservice.o
                                                  build\kernel\components\finsh\cmd.o
                                                  build\kernel\src\components.o
rt_snprintf                                       build\kernel\src\kservice.o
                                                  build\kernel\components\finsh\msh_file.o
                                                  build\kernel\components\drivers\sdio\block_dev.o
                                                  build\kernel\components\dfs\filesystems\elmfat\dfs_elm.o
                                                  build\kernel\components\dfs\src\dfs.o
rt_soft_isr                                       libcpu\cpu\context_gcc.o
                                                  build\board\board.o
rt_soft_timer_check                               build\kernel\src\timer.o
rt_sprintf                                        build\kernel\src\kservice.o
                                                  build\kernel\components\finsh\msh_file.o
                                                  build\kernel\src\idle.o
rt_strcasecmp                                     build\kernel\src\kservice.o
rt_strcmp                                         build\kernel\src\kservice.o
                                                  build\kernel\components\finsh\msh_file.o
rt_strdup                                         build\kernel\src\kservice.o
                                                  build\kernel\components\finsh\finsh_var.o
                                                  build\kernel\components\finsh\finsh_vm.o
                                                  build\kernel\components\dfs\src\dfs_file.o
                                                  build\kernel\components\dfs\src\dfs.o
rt_strlen                                         build\kernel\src\kservice.o
                                                  libraries\hal_drivers\drv_gpio.o
                                                  build\kernel\components\finsh\shell.o
                                                  build\kernel\components\finsh\msh.o
                                                  build\kernel\components\finsh\msh_file.o
                                                  build\kernel\components\dfs\filesystems\elmfat\dfs_elm.o
rt_strncmp                                        build\kernel\src\kservice.o
                                                  build\kernel\src\object.o
rt_strncpy                                        build\kernel\src\kservice.o
                                                  build\kernel\components\finsh\msh.o
                                                  build\kernel\components\finsh\cmd.o
                                                  build\kernel\components\dfs\filesystems\elmfat\dfs_elm.o
                                                  build\kernel\components\dfs\filesystems\devfs\devfs.o
                                                  build\kernel\src\object.o
rt_strnlen                                        build\kernel\src\kservice.o
rt_strstr                                         build\kernel\src\kservice.o
rt_switch_to_thread                               libcpu\cpu\context_gcc.o
rt_system_heap_init                               build\kernel\src\mem.o
                                                  build\board\board.o
rt_system_scheduler_init                          build\kernel\src\scheduler.o
                                                  build\kernel\src\components.o
rt_system_scheduler_start                         build\kernel\src\scheduler.o
                                                  build\kernel\src\components.o
rt_system_timer_init                              build\kernel\src\timer.o
                                                  build\kernel\src\components.o
rt_system_timer_thread_init                       build\kernel\src\timer.o
                                                  build\kernel\src\components.o
rt_thread_control                                 build\kernel\src\thread.o
                                                  build\kernel\src\ipc.o
rt_thread_create                                  build\kernel\src\thread.o
                                                  build\kernel\components\finsh\shell.o
                                                  build\kernel\components\drivers\src\workqueue.o
                                                  build\kernel\components\drivers\sdio\sdio.o
                                                  build\kernel\components\drivers\rtc\alarm.o
                                                  build\kernel\src\components.o
                                                  build\board\ports\audio\drv_sound.o
                                                  build\applications\mnt.o
rt_thread_defunct                                 build\kernel\src\scheduler.o
                                                  build\kernel\src\idle.o
                                                  build\kernel\src\thread.o
rt_thread_delay                                   build\kernel\src\thread.o
                                                  build\kernel\components\drivers\sdio\mmcsd_core.o
                                                  build\kernel\components\drivers\sdio\sdio.o
                                                  build\kernel\components\drivers\sdio\sd.o
                                                  build\kernel\components\drivers\sdio\mmc.o
                                                  build\kernel\components\drivers\i2c\i2c-bit-ops.o
                                                  build\kernel\src\timer.o
rt_thread_delay_until                             build\kernel\src\thread.o
rt_thread_delete                                  build\kernel\src\thread.o
                                                  build\kernel\components\drivers\src\workqueue.o
                                                  build\kernel\components\drivers\sdio\sdio.o
rt_thread_detach                                  build\kernel\src\thread.o
rt_thread_exit                                    build\kernel\src\thread.o
rt_thread_find                                    build\kernel\src\thread.o
rt_thread_idle_delhook                            build\kernel\src\idle.o
rt_thread_idle_excute                             build\kernel\src\idle.o
rt_thread_idle_gethandler                         build\kernel\src\idle.o
rt_thread_idle_init                               build\kernel\src\idle.o
                                                  build\kernel\src\components.o
rt_thread_idle_sethook                            build\kernel\src\idle.o
rt_thread_init                                    build\kernel\src\thread.o
                                                  build\kernel\components\drivers\sdio\mmcsd_core.o
                                                  build\kernel\src\idle.o
                                                  build\kernel\src\timer.o
rt_thread_inited_sethook                          build\kernel\src\thread.o
rt_thread_mdelay                                  build\kernel\src\thread.o
                                                  libraries\hal_drivers\drv_sdio.o
                                                  build\board\board.o
                                                  build\board\ports\audio\drv_sound.o
                                                  build\applications\main.o
                                                  build\applications\mnt.o
rt_thread_priority_table                          build\kernel\src\scheduler.o
rt_thread_ready_priority_group                    build\kernel\src\scheduler.o
rt_thread_resume                                  build\kernel\src\thread.o
                                                  build\kernel\components\drivers\src\waitqueue.o
                                                  build\kernel\components\drivers\src\workqueue.o
                                                  build\kernel\components\drivers\src\completion.o
                                                  build\kernel\components\drivers\src\dataqueue.o
                                                  build\kernel\components\drivers\audio\audio_pipe.o
                                                  build\kernel\src\mempool.o
                                                  build\kernel\src\ipc.o
                                                  build\kernel\src\timer.o
rt_thread_resume_sethook                          build\kernel\src\thread.o
rt_thread_self                                    build\kernel\src\thread.o
                                                  build\kernel\components\drivers\src\waitqueue.o
                                                  build\kernel\components\drivers\src\workqueue.o
                                                  build\kernel\components\drivers\src\completion.o
                                                  build\kernel\components\drivers\src\dataqueue.o
                                                  build\kernel\components\drivers\audio\audio_pipe.o
                                                  build\kernel\src\clock.o
                                                  build\kernel\src\mempool.o
                                                  build\kernel\src\ipc.o
                                                  build\kernel\src\timer.o
                                                  build\kernel\src\kservice.o
                                                  build\board\board.o
rt_thread_sleep                                   build\kernel\src\thread.o
rt_thread_startup                                 build\kernel\src\thread.o
                                                  build\kernel\components\finsh\shell.o
                                                  build\kernel\components\drivers\src\workqueue.o
                                                  build\kernel\components\drivers\sdio\mmcsd_core.o
                                                  build\kernel\components\drivers\sdio\sdio.o
                                                  build\kernel\components\drivers\rtc\alarm.o
                                                  build\kernel\src\components.o
                                                  build\kernel\src\idle.o
                                                  build\kernel\src\timer.o
                                                  build\board\ports\audio\drv_sound.o
                                                  build\applications\mnt.o
rt_thread_suspend                                 build\kernel\src\thread.o
                                                  build\kernel\components\drivers\src\waitqueue.o
                                                  build\kernel\components\drivers\src\workqueue.o
                                                  build\kernel\components\drivers\src\completion.o
                                                  build\kernel\components\drivers\src\dataqueue.o
                                                  build\kernel\components\drivers\audio\audio_pipe.o
                                                  build\kernel\src\mempool.o
                                                  build\kernel\src\ipc.o
                                                  build\kernel\src\timer.o
rt_thread_suspend_sethook                         build\kernel\src\thread.o
rt_thread_switch_interrupt_flag                   libcpu\cpu\cpuport.o
                                                  libcpu\cpu\context_gcc.o
rt_thread_timeout                                 build\kernel\src\thread.o
rt_thread_yield                                   build\kernel\src\thread.o
rt_tick_from_millisecond                          build\kernel\src\clock.o
                                                  libraries\hal_drivers\drv_sdio.o
                                                  build\kernel\components\drivers\src\waitqueue.o
                                                  build\kernel\src\thread.o
rt_tick_get                                       build\kernel\src\clock.o
                                                  build\kernel\components\libc\compilers\common\time.o
                                                  build\kernel\components\finsh\cmd.o
                                                  build\kernel\components\drivers\sdio\sdio.o
                                                  build\kernel\components\drivers\i2c\i2c-bit-ops.o
                                                  build\kernel\src\mempool.o
                                                  build\kernel\src\ipc.o
                                                  build\kernel\src\timer.o
                                                  build\kernel\src\thread.o
rt_tick_get_millisecond                           build\kernel\src\clock.o
rt_tick_increase                                  build\kernel\src\clock.o
                                                  build\board\board.o
rt_tick_set                                       build\kernel\src\clock.o
rt_timer_check                                    build\kernel\src\timer.o
                                                  build\kernel\src\clock.o
rt_timer_control                                  build\kernel\src\timer.o
                                                  build\kernel\components\drivers\src\waitqueue.o
                                                  build\kernel\components\drivers\src\workqueue.o
                                                  build\kernel\components\drivers\src\completion.o
                                                  build\kernel\components\drivers\src\dataqueue.o
                                                  build\kernel\src\mempool.o
                                                  build\kernel\src\ipc.o
                                                  build\kernel\src\thread.o
rt_timer_create                                   build\kernel\src\timer.o
rt_timer_delete                                   build\kernel\src\timer.o
rt_timer_detach                                   build\kernel\src\timer.o
                                                  build\kernel\components\drivers\src\workqueue.o
                                                  build\kernel\src\thread.o
rt_timer_enter_sethook                            build\kernel\src\timer.o
rt_timer_exit_sethook                             build\kernel\src\timer.o
rt_timer_init                                     build\kernel\src\timer.o
                                                  build\kernel\components\drivers\src\workqueue.o
                                                  build\kernel\src\thread.o
rt_timer_next_timeout_tick                        build\kernel\src\timer.o
rt_timer_start                                    build\kernel\src\timer.o
                                                  build\kernel\components\drivers\src\waitqueue.o
                                                  build\kernel\components\drivers\src\workqueue.o
                                                  build\kernel\components\drivers\src\completion.o
                                                  build\kernel\components\drivers\src\dataqueue.o
                                                  build\kernel\src\mempool.o
                                                  build\kernel\src\ipc.o
                                                  build\kernel\src\thread.o
rt_timer_stop                                     build\kernel\src\timer.o
                                                  build\kernel\components\drivers\src\workqueue.o
                                                  build\kernel\src\thread.o
rt_vsnprintf                                      build\kernel\src\kservice.o
                                                  build\board\board.o
rt_vsprintf                                       build\kernel\src\kservice.o
rt_wdt_init                                       libraries\hal_drivers\drv_wdt.o
rt_workqueue_cancel_all_work                      build\kernel\components\drivers\src\workqueue.o
rt_workqueue_cancel_work                          build\kernel\components\drivers\src\workqueue.o
rt_workqueue_cancel_work_sync                     build\kernel\components\drivers\src\workqueue.o
rt_workqueue_create                               build\kernel\components\drivers\src\workqueue.o
rt_workqueue_critical_work                        build\kernel\components\drivers\src\workqueue.o
rt_workqueue_destroy                              build\kernel\components\drivers\src\workqueue.o
rt_workqueue_dowork                               build\kernel\components\drivers\src\workqueue.o
rt_workqueue_submit_work                          build\kernel\components\drivers\src\workqueue.o
rt_wqueue_add                                     build\kernel\components\drivers\src\waitqueue.o
rt_wqueue_remove                                  build\kernel\components\drivers\src\waitqueue.o
rt_wqueue_wait                                    build\kernel\components\drivers\src\waitqueue.o
rt_wqueue_wakeup                                  build\kernel\components\drivers\src\waitqueue.o
rthw_sdio_irq_process                             libraries\hal_drivers\drv_sdio.o
rthw_sdio_irq_update                              libraries\hal_drivers\drv_sdio.o
rtthread_startup                                  build\kernel\src\components.o
saia_channels_set                                 build\board\ports\audio\drv_sound.o
saia_frequency_set                                build\board\ports\audio\drv_sound.o
saia_volume_get                                   build\board\ports\audio\drv_sound.o
saia_volume_set                                   build\board\ports\audio\drv_sound.o
sd_mount                                          build\applications\mnt.o
sdio_attach_irq                                   build\kernel\components\drivers\sdio\sdio.o
sdio_check_finish                                 libraries\hal_libraries\ab32vg1_hal\source\ab32vg1_hal_sd.o
sdio_check_rsp                                    libraries\hal_libraries\ab32vg1_hal\source\ab32vg1_hal_sd.o
sdio_detach_irq                                   build\kernel\components\drivers\sdio\sdio.o
sdio_disable_func                                 build\kernel\components\drivers\sdio\sdio.o
sdio_enable_func                                  build\kernel\components\drivers\sdio\sdio.o
sdio_free_cis                                     build\kernel\components\drivers\sdio\sdio.o
sdio_get_cmd_rsp                                  libraries\hal_libraries\ab32vg1_hal\source\ab32vg1_hal_sd.o
sdio_get_drvdata                                  build\kernel\components\drivers\sdio\sdio.o
sdio_get_rsp                                      libraries\hal_libraries\ab32vg1_hal\source\ab32vg1_hal_sd.o
sdio_host_create                                  libraries\hal_drivers\drv_sdio.o
sdio_init                                         libraries\hal_libraries\ab32vg1_hal\source\ab32vg1_hal_sd.o
sdio_io_read_multi_fifo_b                         build\kernel\components\drivers\sdio\sdio.o
sdio_io_read_multi_incr_b                         build\kernel\components\drivers\sdio\sdio.o
sdio_io_readb                                     build\kernel\components\drivers\sdio\sdio.o
sdio_io_readl                                     build\kernel\components\drivers\sdio\sdio.o
sdio_io_readw                                     build\kernel\components\drivers\sdio\sdio.o
sdio_io_rw_direct                                 build\kernel\components\drivers\sdio\sdio.o
sdio_io_rw_extended                               build\kernel\components\drivers\sdio\sdio.o
sdio_io_rw_extended_block                         build\kernel\components\drivers\sdio\sdio.o
sdio_io_send_op_cond                              build\kernel\components\drivers\sdio\sdio.o
                                                  build\kernel\components\drivers\sdio\mmcsd_core.o
sdio_io_write_multi_fifo_b                        build\kernel\components\drivers\sdio\sdio.o
sdio_io_write_multi_incr_b                        build\kernel\components\drivers\sdio\sdio.o
sdio_io_writeb                                    build\kernel\components\drivers\sdio\sdio.o
sdio_io_writel                                    build\kernel\components\drivers\sdio\sdio.o
sdio_io_writew                                    build\kernel\components\drivers\sdio\sdio.o
sdio_irq_wakeup                                   build\kernel\components\drivers\sdio\sdio.o
sdio_isbusy                                       libraries\hal_libraries\ab32vg1_hal\source\ab32vg1_hal_sd.o
sdio_isr                                          libraries\hal_drivers\drv_sdio.o
sdio_read_kick                                    libraries\hal_libraries\ab32vg1_hal\source\ab32vg1_hal_sd.o
sdio_register_driver                              build\kernel\components\drivers\sdio\sdio.o
sdio_send_cmd                                     libraries\hal_libraries\ab32vg1_hal\source\ab32vg1_hal_sd.o
sdio_set_block_size                               build\kernel\components\drivers\sdio\sdio.o
sdio_set_drvdata                                  build\kernel\components\drivers\sdio\sdio.o
sdio_setbaud                                      libraries\hal_libraries\ab32vg1_hal\source\ab32vg1_hal_sd.o
sdio_unregister_driver                            build\kernel\components\drivers\sdio\sdio.o
sdio_write_kick                                   libraries\hal_libraries\ab32vg1_hal\source\ab32vg1_hal_sd.o
sdmmc_acmd_op_cond                                libraries\hal_libraries\ab32vg1_hal\source\ab32vg1_hal_sd.o
sdmmc_cmd_all_send_cid                            libraries\hal_libraries\ab32vg1_hal\source\ab32vg1_hal_sd.o
sdmmc_cmd_app                                     libraries\hal_libraries\ab32vg1_hal\source\ab32vg1_hal_sd.o
sdmmc_cmd_go_idle_state                           libraries\hal_libraries\ab32vg1_hal\source\ab32vg1_hal_sd.o
sdmmc_cmd_read_multiblock                         libraries\hal_libraries\ab32vg1_hal\source\ab32vg1_hal_sd.o
sdmmc_cmd_select_card                             libraries\hal_libraries\ab32vg1_hal\source\ab32vg1_hal_sd.o
sdmmc_cmd_send_csd                                libraries\hal_libraries\ab32vg1_hal\source\ab32vg1_hal_sd.o
sdmmc_cmd_send_if_cond                            libraries\hal_libraries\ab32vg1_hal\source\ab32vg1_hal_sd.o
sdmmc_cmd_set_rel_addr                            libraries\hal_libraries\ab32vg1_hal\source\ab32vg1_hal_sd.o
seekdir                                           build\kernel\components\dfs\src\dfs_posix.o
set_cpu_irq_comm                                  libcpu\cpu\interrupt.o
                                                  build\board\board.o
set_date                                          build\kernel\components\drivers\rtc\rtc.o
set_peripherals_clkdiv                            libraries\hal_libraries\bmsis\source\system_ab32vgx.o
set_peripherals_clkdiv_safety                     libraries\hal_libraries\bmsis\source\system_ab32vgx.o
set_sd_baud                                       libraries\hal_libraries\bmsis\source\system_ab32vgx.o
set_sys_uart0baud                                 libraries\hal_libraries\bmsis\source\system_ab32vgx.o
set_sysclk                                        libraries\hal_libraries\bmsis\source\system_ab32vgx.o
                                                  build\board\board.o
set_time                                          build\kernel\components\drivers\rtc\rtc.o
settimeofday                                      build\kernel\components\libc\compilers\common\time.o
shell                                             build\kernel\components\finsh\shell.o
                                                  libraries\hal_drivers\drv_usart.o
sound_transmit                                    build\board\ports\audio\drv_sound.o
stat                                              build\kernel\components\dfs\src\dfs_posix.o
                                                  build\kernel\components\finsh\msh_file.o
statfs                                            build\kernel\components\dfs\src\dfs_posix.o
stime                                             build\kernel\components\libc\compilers\common\time.o
strcat                                            libraries\hal_libraries\ab32vg1_hal\libhal.a(rom_fun.o)
                                                  build\kernel\components\finsh\shell.o
                                                  build\kernel\components\finsh\msh.o
strchr                                            d:/program_files/programming/rt-threadstudio/repo/extract/toolchain_support_packages/risc-v/risc-v-gcc/10.1.0/bin/../lib/gcc/riscv64-unknown-elf/10.1.0/../../../../riscv64-unknown-elf/lib/rv32im/ilp32\libc.a(lib_a-strchr.o)
                                                  d:/program_files/programming/rt-threadstudio/repo/extract/toolchain_support_packages/risc-v/risc-v-gcc/10.1.0/bin/../lib/gcc/riscv64-unknown-elf/10.1.0/../../../../riscv64-unknown-elf/lib/rv32im/ilp32\libc.a(lib_a-strrchr.o)
strcmp                                            libraries\hal_libraries\ab32vg1_hal\libhal.a(rom_fun.o)
                                                  build\kernel\components\finsh\finsh_token.o
                                                  build\kernel\components\finsh\finsh_var.o
                                                  build\kernel\components\finsh\msh_file.o
                                                  build\kernel\components\finsh\finsh_vm.o
                                                  build\kernel\components\drivers\misc\adc.o
                                                  build\kernel\components\dfs\src\dfs_file.o
                                                  build\kernel\components\dfs\src\dfs.o
                                                  build\kernel\components\dfs\src\dfs_fs.o
strcpy                                            libraries\hal_libraries\ab32vg1_hal\libhal.a(rom_fun.o)
                                                  build\kernel\components\finsh\shell.o
                                                  build\kernel\components\finsh\msh.o
strlen                                            libraries\hal_libraries\ab32vg1_hal\libhal.a(rom_fun.o)
                                                  build\kernel\components\finsh\finsh_token.o
                                                  build\kernel\components\finsh\finsh_var.o
                                                  build\kernel\components\finsh\shell.o
                                                  build\kernel\components\finsh\msh.o
                                                  build\kernel\components\finsh\msh_file.o
                                                  build\kernel\components\finsh\finsh_vm.o
                                                  build\kernel\components\finsh\cmd.o
                                                  build\kernel\components\finsh\finsh_node.o
                                                  build\kernel\components\dfs\src\dfs.o
                                                  build\kernel\components\dfs\src\dfs_fs.o
                                                  build\kernel\components\dfs\src\dfs_posix.o
strncat                                           libraries\hal_libraries\ab32vg1_hal\libhal.a(rom_fun.o)
strncmp                                           libraries\hal_libraries\ab32vg1_hal\libhal.a(rom_fun.o)
                                                  build\kernel\components\finsh\finsh_var.o
                                                  build\kernel\components\finsh\msh.o
                                                  build\kernel\components\finsh\finsh_vm.o
                                                  build\kernel\components\finsh\cmd.o
                                                  build\kernel\components\dfs\src\dfs_fs.o
strncpy                                           libraries\hal_libraries\ab32vg1_hal\libhal.a(rom_fun.o)
                                                  build\kernel\components\finsh\finsh_token.o
                                                  build\kernel\components\finsh\finsh_var.o
                                                  build\kernel\components\finsh\shell.o
                                                  build\kernel\components\finsh\finsh_parser.o
                                                  build\kernel\components\finsh\finsh_node.o
                                                  build\kernel\components\dfs\src\dfs_posix.o
strrchr                                           d:/program_files/programming/rt-threadstudio/repo/extract/toolchain_support_packages/risc-v/risc-v-gcc/10.1.0/bin/../lib/gcc/riscv64-unknown-elf/10.1.0/../../../../riscv64-unknown-elf/lib/rv32im/ilp32\libc.a(lib_a-strrchr.o)
                                                  build\kernel\components\dfs\src\dfs_file.o
strstr                                            libraries\hal_libraries\ab32vg1_hal\libhal.a(rom_fun.o)
                                                  build\kernel\components\finsh\msh_file.o
sys                                               libraries\hal_libraries\bmsis\source\system_ab32vgx.o
sys_error_hook                                    libraries\hal_libraries\ab32vg1_hal\libhal.a(sys_err.o)
                                                  build\board\board.o
sysclk_index                                      libraries\hal_libraries\bmsis\source\system_ab32vgx.o
sysclk_sel_tbl                                    libraries\hal_libraries\bmsis\source\system_ab32vgx.o
sysclk_update_baud                                libraries\hal_libraries\bmsis\source\system_ab32vgx.o
                                                  libraries\hal_libraries\ab32vg1_hal\source\ab32vg1_hal_sd.o
                                                  libraries\hal_drivers\drv_sdio.o
tbl_irq_vector                                    libcpu\cpu\interrupt.o
telldir                                           build\kernel\components\dfs\src\dfs_posix.o
text_segment                                      build\kernel\components\finsh\finsh_vm.o
                                                  build\kernel\components\finsh\finsh_compiler.o
time                                              build\kernel\components\libc\compilers\common\time.o
                                                  build\kernel\components\drivers\rtc\alarm.o
                                                  build\kernel\components\drivers\rtc\rtc.o
                                                  build\kernel\components\dfs\filesystems\elmfat\dfs_elm.o
timegm                                            build\kernel\components\libc\compilers\common\time.o
                                                  libraries\hal_drivers\drv_rtc.o
                                                  build\kernel\components\drivers\rtc\alarm.o
                                                  build\kernel\components\dfs\filesystems\elmfat\dfs_elm.o
timer0_cfg                                        build\board\board.o
timer0_init                                       build\board\board.o
timer0_isr                                        build\board\board.o
timer1_isr                                        libraries\hal_drivers\drv_hwtimer.o
token_get_string                                  build\kernel\components\finsh\finsh_token.o
uart_config_all                                   libraries\hal_libraries\ab32vg1_hal\source\ab32vg1_hal_uart.o
uart_irq_process                                  libraries\hal_drivers\drv_usart.o
unlink                                            build\kernel\components\dfs\src\dfs_posix.o
                                                  build\kernel\components\finsh\msh_file.o
update_sd0baud                                    libraries\hal_libraries\bmsis\source\system_ab32vgx.o
update_uart0baud_in_sysclk                        libraries\hal_libraries\bmsis\source\system_ab32vgx.o
version                                           build\kernel\components\finsh\cmd.o
working_directory                                 build\kernel\components\dfs\src\dfs.o
                                                  build\kernel\components\finsh\msh_file.o
                                                  build\kernel\components\dfs\src\dfs_file.o
                                                  build\kernel\components\dfs\src\dfs_posix.o
write                                             build\kernel\components\dfs\src\dfs_posix.o
                                                  build\kernel\components\finsh\msh_file.o
